ARM GAS  /tmp/ccGoSq0J.s 			page 1


   1              		.cpu cortex-m4
   2              		.eabi_attribute 27, 1
   3              		.eabi_attribute 28, 1
   4              		.eabi_attribute 20, 1
   5              		.eabi_attribute 21, 1
   6              		.eabi_attribute 23, 3
   7              		.eabi_attribute 24, 1
   8              		.eabi_attribute 25, 1
   9              		.eabi_attribute 26, 1
  10              		.eabi_attribute 30, 1
  11              		.eabi_attribute 34, 1
  12              		.eabi_attribute 18, 4
  13              		.file	"nRF24.c"
  14              		.text
  15              	.Ltext0:
  16              		.cfi_sections	.debug_frame
  17              		.section	.text.SPI_SCK_1,"ax",%progbits
  18              		.align	1
  19              		.global	SPI_SCK_1
  20              		.syntax unified
  21              		.thumb
  22              		.thumb_func
  23              		.fpu fpv4-sp-d16
  25              	SPI_SCK_1:
  26              	.LFB131:
  27              		.file 1 "Src/nRF24.c"
   1:Src/nRF24.c   **** #include "nRF24.h"
   2:Src/nRF24.c   **** 
   3:Src/nRF24.c   **** 
   4:Src/nRF24.c   **** 
   5:Src/nRF24.c   **** 
   6:Src/nRF24.c   **** /* Pin Wiggling Macros --------------------------------------------------------*/
   7:Src/nRF24.c   **** 
   8:Src/nRF24.c   **** // SCK    PA8
   9:Src/nRF24.c   **** // MOSI   PB10
  10:Src/nRF24.c   **** // CSN    PB4
  11:Src/nRF24.c   **** // CE     PB5
  12:Src/nRF24.c   **** 
  13:Src/nRF24.c   **** // MISO   PA10
  14:Src/nRF24.c   **** 
  15:Src/nRF24.c   **** void SPI_SCK_1(){
  28              		.loc 1 15 0
  29              		.cfi_startproc
  30              		@ args = 0, pretend = 0, frame = 0
  31              		@ frame_needed = 0, uses_anonymous_args = 0
  32 0000 08B5     		push	{r3, lr}
  33              	.LCFI0:
  34              		.cfi_def_cfa_offset 8
  35              		.cfi_offset 3, -8
  36              		.cfi_offset 14, -4
  16:Src/nRF24.c   **** 		HAL_GPIO_WritePin(GPIOA, GPIO_PIN_8, GPIO_PIN_SET);	
  37              		.loc 1 16 0
  38 0002 0122     		movs	r2, #1
  39 0004 4FF48071 		mov	r1, #256
  40 0008 0148     		ldr	r0, .L3
  41 000a FFF7FEFF 		bl	HAL_GPIO_WritePin
  42              	.LVL0:
ARM GAS  /tmp/ccGoSq0J.s 			page 2


  43 000e 08BD     		pop	{r3, pc}
  44              	.L4:
  45              		.align	2
  46              	.L3:
  47 0010 00000240 		.word	1073872896
  48              		.cfi_endproc
  49              	.LFE131:
  51              		.section	.text.SPI_SCK_0,"ax",%progbits
  52              		.align	1
  53              		.global	SPI_SCK_0
  54              		.syntax unified
  55              		.thumb
  56              		.thumb_func
  57              		.fpu fpv4-sp-d16
  59              	SPI_SCK_0:
  60              	.LFB132:
  17:Src/nRF24.c   **** }
  18:Src/nRF24.c   **** void SPI_SCK_0(){
  61              		.loc 1 18 0
  62              		.cfi_startproc
  63              		@ args = 0, pretend = 0, frame = 0
  64              		@ frame_needed = 0, uses_anonymous_args = 0
  65 0000 08B5     		push	{r3, lr}
  66              	.LCFI1:
  67              		.cfi_def_cfa_offset 8
  68              		.cfi_offset 3, -8
  69              		.cfi_offset 14, -4
  19:Src/nRF24.c   **** 		HAL_GPIO_WritePin(GPIOA, GPIO_PIN_8, GPIO_PIN_RESET);	
  70              		.loc 1 19 0
  71 0002 0022     		movs	r2, #0
  72 0004 4FF48071 		mov	r1, #256
  73 0008 0148     		ldr	r0, .L7
  74 000a FFF7FEFF 		bl	HAL_GPIO_WritePin
  75              	.LVL1:
  76 000e 08BD     		pop	{r3, pc}
  77              	.L8:
  78              		.align	2
  79              	.L7:
  80 0010 00000240 		.word	1073872896
  81              		.cfi_endproc
  82              	.LFE132:
  84              		.section	.text.SPI_MOSI_1,"ax",%progbits
  85              		.align	1
  86              		.global	SPI_MOSI_1
  87              		.syntax unified
  88              		.thumb
  89              		.thumb_func
  90              		.fpu fpv4-sp-d16
  92              	SPI_MOSI_1:
  93              	.LFB133:
  20:Src/nRF24.c   **** } 
  21:Src/nRF24.c   **** 
  22:Src/nRF24.c   **** void SPI_MOSI_1(){
  94              		.loc 1 22 0
  95              		.cfi_startproc
  96              		@ args = 0, pretend = 0, frame = 0
  97              		@ frame_needed = 0, uses_anonymous_args = 0
ARM GAS  /tmp/ccGoSq0J.s 			page 3


  98 0000 08B5     		push	{r3, lr}
  99              	.LCFI2:
 100              		.cfi_def_cfa_offset 8
 101              		.cfi_offset 3, -8
 102              		.cfi_offset 14, -4
  23:Src/nRF24.c   **** 		HAL_GPIO_WritePin(GPIOB, GPIO_PIN_10, GPIO_PIN_SET);	
 103              		.loc 1 23 0
 104 0002 0122     		movs	r2, #1
 105 0004 4FF48061 		mov	r1, #1024
 106 0008 0148     		ldr	r0, .L11
 107 000a FFF7FEFF 		bl	HAL_GPIO_WritePin
 108              	.LVL2:
 109 000e 08BD     		pop	{r3, pc}
 110              	.L12:
 111              		.align	2
 112              	.L11:
 113 0010 00040240 		.word	1073873920
 114              		.cfi_endproc
 115              	.LFE133:
 117              		.section	.text.SPI_MOSI_0,"ax",%progbits
 118              		.align	1
 119              		.global	SPI_MOSI_0
 120              		.syntax unified
 121              		.thumb
 122              		.thumb_func
 123              		.fpu fpv4-sp-d16
 125              	SPI_MOSI_0:
 126              	.LFB134:
  24:Src/nRF24.c   **** }
  25:Src/nRF24.c   **** void SPI_MOSI_0(){
 127              		.loc 1 25 0
 128              		.cfi_startproc
 129              		@ args = 0, pretend = 0, frame = 0
 130              		@ frame_needed = 0, uses_anonymous_args = 0
 131 0000 08B5     		push	{r3, lr}
 132              	.LCFI3:
 133              		.cfi_def_cfa_offset 8
 134              		.cfi_offset 3, -8
 135              		.cfi_offset 14, -4
  26:Src/nRF24.c   **** 		HAL_GPIO_WritePin(GPIOB, GPIO_PIN_10, GPIO_PIN_RESET);	
 136              		.loc 1 26 0
 137 0002 0022     		movs	r2, #0
 138 0004 4FF48061 		mov	r1, #1024
 139 0008 0148     		ldr	r0, .L15
 140 000a FFF7FEFF 		bl	HAL_GPIO_WritePin
 141              	.LVL3:
 142 000e 08BD     		pop	{r3, pc}
 143              	.L16:
 144              		.align	2
 145              	.L15:
 146 0010 00040240 		.word	1073873920
 147              		.cfi_endproc
 148              	.LFE134:
 150              		.section	.text.SPI_CS_1,"ax",%progbits
 151              		.align	1
 152              		.global	SPI_CS_1
 153              		.syntax unified
ARM GAS  /tmp/ccGoSq0J.s 			page 4


 154              		.thumb
 155              		.thumb_func
 156              		.fpu fpv4-sp-d16
 158              	SPI_CS_1:
 159              	.LFB135:
  27:Src/nRF24.c   **** }
  28:Src/nRF24.c   **** 
  29:Src/nRF24.c   **** void SPI_CS_1() {
 160              		.loc 1 29 0
 161              		.cfi_startproc
 162              		@ args = 0, pretend = 0, frame = 0
 163              		@ frame_needed = 0, uses_anonymous_args = 0
 164 0000 08B5     		push	{r3, lr}
 165              	.LCFI4:
 166              		.cfi_def_cfa_offset 8
 167              		.cfi_offset 3, -8
 168              		.cfi_offset 14, -4
  30:Src/nRF24.c   **** 		/* CS High == CSN Low */
  31:Src/nRF24.c   **** 		HAL_GPIO_WritePin(GPIOB, GPIO_PIN_4, GPIO_PIN_RESET);	
 169              		.loc 1 31 0
 170 0002 0022     		movs	r2, #0
 171 0004 1021     		movs	r1, #16
 172 0006 0248     		ldr	r0, .L19
 173 0008 FFF7FEFF 		bl	HAL_GPIO_WritePin
 174              	.LVL4:
 175 000c 08BD     		pop	{r3, pc}
 176              	.L20:
 177 000e 00BF     		.align	2
 178              	.L19:
 179 0010 00040240 		.word	1073873920
 180              		.cfi_endproc
 181              	.LFE135:
 183              		.section	.text.SPI_CS_0,"ax",%progbits
 184              		.align	1
 185              		.global	SPI_CS_0
 186              		.syntax unified
 187              		.thumb
 188              		.thumb_func
 189              		.fpu fpv4-sp-d16
 191              	SPI_CS_0:
 192              	.LFB136:
  32:Src/nRF24.c   **** }
  33:Src/nRF24.c   **** void SPI_CS_0(){
 193              		.loc 1 33 0
 194              		.cfi_startproc
 195              		@ args = 0, pretend = 0, frame = 0
 196              		@ frame_needed = 0, uses_anonymous_args = 0
 197 0000 08B5     		push	{r3, lr}
 198              	.LCFI5:
 199              		.cfi_def_cfa_offset 8
 200              		.cfi_offset 3, -8
 201              		.cfi_offset 14, -4
  34:Src/nRF24.c   **** 		/* CS Low == CSN High */
  35:Src/nRF24.c   **** 		HAL_GPIO_WritePin(GPIOB, GPIO_PIN_4, GPIO_PIN_SET);
 202              		.loc 1 35 0
 203 0002 0122     		movs	r2, #1
 204 0004 1021     		movs	r1, #16
ARM GAS  /tmp/ccGoSq0J.s 			page 5


 205 0006 0248     		ldr	r0, .L23
 206 0008 FFF7FEFF 		bl	HAL_GPIO_WritePin
 207              	.LVL5:
 208 000c 08BD     		pop	{r3, pc}
 209              	.L24:
 210 000e 00BF     		.align	2
 211              	.L23:
 212 0010 00040240 		.word	1073873920
 213              		.cfi_endproc
 214              	.LFE136:
 216              		.section	.text.SPI_CE_1,"ax",%progbits
 217              		.align	1
 218              		.global	SPI_CE_1
 219              		.syntax unified
 220              		.thumb
 221              		.thumb_func
 222              		.fpu fpv4-sp-d16
 224              	SPI_CE_1:
 225              	.LFB137:
  36:Src/nRF24.c   **** }
  37:Src/nRF24.c   **** 
  38:Src/nRF24.c   **** void SPI_CE_1(){
 226              		.loc 1 38 0
 227              		.cfi_startproc
 228              		@ args = 0, pretend = 0, frame = 0
 229              		@ frame_needed = 0, uses_anonymous_args = 0
 230 0000 08B5     		push	{r3, lr}
 231              	.LCFI6:
 232              		.cfi_def_cfa_offset 8
 233              		.cfi_offset 3, -8
 234              		.cfi_offset 14, -4
  39:Src/nRF24.c   **** 		HAL_GPIO_WritePin(GPIOB, GPIO_PIN_5, GPIO_PIN_SET);	
 235              		.loc 1 39 0
 236 0002 0122     		movs	r2, #1
 237 0004 2021     		movs	r1, #32
 238 0006 0248     		ldr	r0, .L27
 239 0008 FFF7FEFF 		bl	HAL_GPIO_WritePin
 240              	.LVL6:
 241 000c 08BD     		pop	{r3, pc}
 242              	.L28:
 243 000e 00BF     		.align	2
 244              	.L27:
 245 0010 00040240 		.word	1073873920
 246              		.cfi_endproc
 247              	.LFE137:
 249              		.section	.text.SPI_CE_0,"ax",%progbits
 250              		.align	1
 251              		.global	SPI_CE_0
 252              		.syntax unified
 253              		.thumb
 254              		.thumb_func
 255              		.fpu fpv4-sp-d16
 257              	SPI_CE_0:
 258              	.LFB138:
  40:Src/nRF24.c   **** }
  41:Src/nRF24.c   **** 
  42:Src/nRF24.c   **** void SPI_CE_0(){
ARM GAS  /tmp/ccGoSq0J.s 			page 6


 259              		.loc 1 42 0
 260              		.cfi_startproc
 261              		@ args = 0, pretend = 0, frame = 0
 262              		@ frame_needed = 0, uses_anonymous_args = 0
 263 0000 08B5     		push	{r3, lr}
 264              	.LCFI7:
 265              		.cfi_def_cfa_offset 8
 266              		.cfi_offset 3, -8
 267              		.cfi_offset 14, -4
  43:Src/nRF24.c   **** 		HAL_GPIO_WritePin(GPIOB, GPIO_PIN_5, GPIO_PIN_RESET);
 268              		.loc 1 43 0
 269 0002 0022     		movs	r2, #0
 270 0004 2021     		movs	r1, #32
 271 0006 0248     		ldr	r0, .L31
 272 0008 FFF7FEFF 		bl	HAL_GPIO_WritePin
 273              	.LVL7:
 274 000c 08BD     		pop	{r3, pc}
 275              	.L32:
 276 000e 00BF     		.align	2
 277              	.L31:
 278 0010 00040240 		.word	1073873920
 279              		.cfi_endproc
 280              	.LFE138:
 282              		.section	.text.SPI_READ_MISO,"ax",%progbits
 283              		.align	1
 284              		.global	SPI_READ_MISO
 285              		.syntax unified
 286              		.thumb
 287              		.thumb_func
 288              		.fpu fpv4-sp-d16
 290              	SPI_READ_MISO:
 291              	.LFB139:
  44:Src/nRF24.c   **** }
  45:Src/nRF24.c   ****     
  46:Src/nRF24.c   **** GPIO_PinState SPI_READ_MISO(){
 292              		.loc 1 46 0
 293              		.cfi_startproc
 294              		@ args = 0, pretend = 0, frame = 0
 295              		@ frame_needed = 0, uses_anonymous_args = 0
 296 0000 08B5     		push	{r3, lr}
 297              	.LCFI8:
 298              		.cfi_def_cfa_offset 8
 299              		.cfi_offset 3, -8
 300              		.cfi_offset 14, -4
  47:Src/nRF24.c   **** 	return HAL_GPIO_ReadPin(GPIOA, GPIO_PIN_10);
 301              		.loc 1 47 0
 302 0002 4FF48061 		mov	r1, #1024
 303 0006 0248     		ldr	r0, .L35
 304 0008 FFF7FEFF 		bl	HAL_GPIO_ReadPin
 305              	.LVL8:
  48:Src/nRF24.c   **** }
 306              		.loc 1 48 0
 307 000c 08BD     		pop	{r3, pc}
 308              	.L36:
 309 000e 00BF     		.align	2
 310              	.L35:
 311 0010 00000240 		.word	1073872896
ARM GAS  /tmp/ccGoSq0J.s 			page 7


 312              		.cfi_endproc
 313              	.LFE139:
 315              		.section	.text.spi_delay,"ax",%progbits
 316              		.align	1
 317              		.global	spi_delay
 318              		.syntax unified
 319              		.thumb
 320              		.thumb_func
 321              		.fpu fpv4-sp-d16
 323              	spi_delay:
 324              	.LFB140:
  49:Src/nRF24.c   **** 
  50:Src/nRF24.c   **** 
  51:Src/nRF24.c   **** void spi_delay() {
 325              		.loc 1 51 0
 326              		.cfi_startproc
 327              		@ args = 0, pretend = 0, frame = 0
 328              		@ frame_needed = 0, uses_anonymous_args = 0
 329 0000 08B5     		push	{r3, lr}
 330              	.LCFI9:
 331              		.cfi_def_cfa_offset 8
 332              		.cfi_offset 3, -8
 333              		.cfi_offset 14, -4
  52:Src/nRF24.c   **** 	HAL_Delay(1);
 334              		.loc 1 52 0
 335 0002 0120     		movs	r0, #1
 336 0004 FFF7FEFF 		bl	HAL_Delay
 337              	.LVL9:
 338 0008 08BD     		pop	{r3, pc}
 339              		.cfi_endproc
 340              	.LFE140:
 342              		.section	.text.gpio_clockout_8_bits,"ax",%progbits
 343              		.align	1
 344              		.global	gpio_clockout_8_bits
 345              		.syntax unified
 346              		.thumb
 347              		.thumb_func
 348              		.fpu fpv4-sp-d16
 350              	gpio_clockout_8_bits:
 351              	.LFB141:
  53:Src/nRF24.c   **** }
  54:Src/nRF24.c   **** 
  55:Src/nRF24.c   **** void gpio_clockout_8_bits(uint8_t txData) {
 352              		.loc 1 55 0
 353              		.cfi_startproc
 354              		@ args = 0, pretend = 0, frame = 0
 355              		@ frame_needed = 0, uses_anonymous_args = 0
 356              	.LVL10:
 357 0000 38B5     		push	{r3, r4, r5, lr}
 358              	.LCFI10:
 359              		.cfi_def_cfa_offset 16
 360              		.cfi_offset 3, -16
 361              		.cfi_offset 4, -12
 362              		.cfi_offset 5, -8
 363              		.cfi_offset 14, -4
 364 0002 0446     		mov	r4, r0
  56:Src/nRF24.c   ****   spi_delay();
ARM GAS  /tmp/ccGoSq0J.s 			page 8


 365              		.loc 1 56 0
 366 0004 FFF7FEFF 		bl	spi_delay
 367              	.LVL11:
 368              	.LBB2:
  57:Src/nRF24.c   ****   for (int i = 0; i < 8; ++i) {
 369              		.loc 1 57 0
 370 0008 0025     		movs	r5, #0
 371 000a 08E0     		b	.L40
 372              	.LVL12:
 373              	.L46:
  58:Src/nRF24.c   ****       SPI_SCK_0();
  59:Src/nRF24.c   ****       spi_delay();
  60:Src/nRF24.c   ****       if(txData & 0x80) // MSBit first
  61:Src/nRF24.c   ****           SPI_MOSI_1();
 374              		.loc 1 61 0
 375 000c FFF7FEFF 		bl	SPI_MOSI_1
 376              	.LVL13:
 377              	.L42:
  62:Src/nRF24.c   ****       else
  63:Src/nRF24.c   ****           SPI_MOSI_0();
  64:Src/nRF24.c   ****       SPI_SCK_1(); // clock data
 378              		.loc 1 64 0 discriminator 2
 379 0010 FFF7FEFF 		bl	SPI_SCK_1
 380              	.LVL14:
  65:Src/nRF24.c   ****       txData = txData << 1; // load next MSB
 381              		.loc 1 65 0 discriminator 2
 382 0014 6400     		lsls	r4, r4, #1
 383              	.LVL15:
 384 0016 E4B2     		uxtb	r4, r4
 385              	.LVL16:
  66:Src/nRF24.c   ****       spi_delay();
 386              		.loc 1 66 0 discriminator 2
 387 0018 FFF7FEFF 		bl	spi_delay
 388              	.LVL17:
  57:Src/nRF24.c   ****       SPI_SCK_0();
 389              		.loc 1 57 0 discriminator 2
 390 001c 0135     		adds	r5, r5, #1
 391              	.LVL18:
 392              	.L40:
  57:Src/nRF24.c   ****       SPI_SCK_0();
 393              		.loc 1 57 0 is_stmt 0 discriminator 1
 394 001e 072D     		cmp	r5, #7
 395 0020 09DC     		bgt	.L45
  58:Src/nRF24.c   ****       spi_delay();
 396              		.loc 1 58 0 is_stmt 1
 397 0022 FFF7FEFF 		bl	SPI_SCK_0
 398              	.LVL19:
  59:Src/nRF24.c   ****       if(txData & 0x80) // MSBit first
 399              		.loc 1 59 0
 400 0026 FFF7FEFF 		bl	spi_delay
 401              	.LVL20:
  60:Src/nRF24.c   ****           SPI_MOSI_1();
 402              		.loc 1 60 0
 403 002a 14F0800F 		tst	r4, #128
 404 002e EDD1     		bne	.L46
  63:Src/nRF24.c   ****       SPI_SCK_1(); // clock data
 405              		.loc 1 63 0
ARM GAS  /tmp/ccGoSq0J.s 			page 9


 406 0030 FFF7FEFF 		bl	SPI_MOSI_0
 407              	.LVL21:
 408 0034 ECE7     		b	.L42
 409              	.L45:
 410              	.LBE2:
  67:Src/nRF24.c   ****   }
  68:Src/nRF24.c   ****   SPI_SCK_0();
 411              		.loc 1 68 0
 412 0036 FFF7FEFF 		bl	SPI_SCK_0
 413              	.LVL22:
 414 003a 38BD     		pop	{r3, r4, r5, pc}
 415              		.cfi_endproc
 416              	.LFE141:
 418              		.section	.text.gpio_clockin_8_bits,"ax",%progbits
 419              		.align	1
 420              		.global	gpio_clockin_8_bits
 421              		.syntax unified
 422              		.thumb
 423              		.thumb_func
 424              		.fpu fpv4-sp-d16
 426              	gpio_clockin_8_bits:
 427              	.LFB142:
  69:Src/nRF24.c   **** }
  70:Src/nRF24.c   **** 
  71:Src/nRF24.c   **** uint8_t gpio_clockin_8_bits(){
 428              		.loc 1 71 0
 429              		.cfi_startproc
 430              		@ args = 0, pretend = 0, frame = 0
 431              		@ frame_needed = 0, uses_anonymous_args = 0
 432 0000 38B5     		push	{r3, r4, r5, lr}
 433              	.LCFI11:
 434              		.cfi_def_cfa_offset 16
 435              		.cfi_offset 3, -16
 436              		.cfi_offset 4, -12
 437              		.cfi_offset 5, -8
 438              		.cfi_offset 14, -4
 439              	.LVL23:
  72:Src/nRF24.c   ****   uint8_t rxData = 0;
  73:Src/nRF24.c   ****   spi_delay();
 440              		.loc 1 73 0
 441 0002 FFF7FEFF 		bl	spi_delay
 442              	.LVL24:
 443              	.LBB3:
  74:Src/nRF24.c   ****   for (int i=0; i < 8; ++i) {
 444              		.loc 1 74 0
 445 0006 0025     		movs	r5, #0
 446              	.LBE3:
  72:Src/nRF24.c   ****   uint8_t rxData = 0;
 447              		.loc 1 72 0
 448 0008 2C46     		mov	r4, r5
 449              	.LBB4:
 450              		.loc 1 74 0
 451 000a 12E0     		b	.L48
 452              	.LVL25:
 453              	.L49:
  75:Src/nRF24.c   ****       SPI_SCK_0();
 454              		.loc 1 75 0 discriminator 3
ARM GAS  /tmp/ccGoSq0J.s 			page 10


 455 000c FFF7FEFF 		bl	SPI_SCK_0
 456              	.LVL26:
  76:Src/nRF24.c   ****       spi_delay();
 457              		.loc 1 76 0 discriminator 3
 458 0010 FFF7FEFF 		bl	spi_delay
 459              	.LVL27:
  77:Src/nRF24.c   ****       SPI_MOSI_0();
 460              		.loc 1 77 0 discriminator 3
 461 0014 FFF7FEFF 		bl	SPI_MOSI_0
 462              	.LVL28:
  78:Src/nRF24.c   ****       SPI_SCK_1();
 463              		.loc 1 78 0 discriminator 3
 464 0018 FFF7FEFF 		bl	SPI_SCK_1
 465              	.LVL29:
  79:Src/nRF24.c   ****       spi_delay();
 466              		.loc 1 79 0 discriminator 3
 467 001c FFF7FEFF 		bl	spi_delay
 468              	.LVL30:
  80:Src/nRF24.c   ****       rxData = rxData << 1; // Why shift first then OR'? range (0, 8) will need to shift only 7 tim
 469              		.loc 1 80 0 discriminator 3
 470 0020 6400     		lsls	r4, r4, #1
 471              	.LVL31:
 472 0022 E4B2     		uxtb	r4, r4
 473              	.LVL32:
  81:Src/nRF24.c   ****       rxData |= SPI_READ_MISO();
 474              		.loc 1 81 0 discriminator 3
 475 0024 FFF7FEFF 		bl	SPI_READ_MISO
 476              	.LVL33:
 477 0028 0443     		orrs	r4, r4, r0
 478              	.LVL34:
 479 002a E4B2     		uxtb	r4, r4
 480              	.LVL35:
  82:Src/nRF24.c   ****       spi_delay();
 481              		.loc 1 82 0 discriminator 3
 482 002c FFF7FEFF 		bl	spi_delay
 483              	.LVL36:
  74:Src/nRF24.c   ****       SPI_SCK_0();
 484              		.loc 1 74 0 discriminator 3
 485 0030 0135     		adds	r5, r5, #1
 486              	.LVL37:
 487              	.L48:
  74:Src/nRF24.c   ****       SPI_SCK_0();
 488              		.loc 1 74 0 is_stmt 0 discriminator 1
 489 0032 072D     		cmp	r5, #7
 490 0034 EADD     		ble	.L49
 491              	.LBE4:
  83:Src/nRF24.c   ****   }
  84:Src/nRF24.c   ****   SPI_SCK_0();
 492              		.loc 1 84 0 is_stmt 1
 493 0036 FFF7FEFF 		bl	SPI_SCK_0
 494              	.LVL38:
  85:Src/nRF24.c   ****   return rxData;
  86:Src/nRF24.c   **** }
 495              		.loc 1 86 0
 496 003a 2046     		mov	r0, r4
 497 003c 38BD     		pop	{r3, r4, r5, pc}
 498              		.cfi_endproc
ARM GAS  /tmp/ccGoSq0J.s 			page 11


 499              	.LFE142:
 501              		.section	.text.spi_read_register,"ax",%progbits
 502              		.align	1
 503              		.global	spi_read_register
 504              		.syntax unified
 505              		.thumb
 506              		.thumb_func
 507              		.fpu fpv4-sp-d16
 509              	spi_read_register:
 510              	.LFB143:
  87:Src/nRF24.c   ****   
  88:Src/nRF24.c   **** 
  89:Src/nRF24.c   **** void spi_read_register(uint8_t reg, uint8_t num_bytes, uint8_t* pbuf){
 511              		.loc 1 89 0
 512              		.cfi_startproc
 513              		@ args = 0, pretend = 0, frame = 0
 514              		@ frame_needed = 0, uses_anonymous_args = 0
 515              	.LVL39:
 516 0000 70B5     		push	{r4, r5, r6, lr}
 517              	.LCFI12:
 518              		.cfi_def_cfa_offset 16
 519              		.cfi_offset 4, -16
 520              		.cfi_offset 5, -12
 521              		.cfi_offset 6, -8
 522              		.cfi_offset 14, -4
 523 0002 0446     		mov	r4, r0
 524 0004 0D46     		mov	r5, r1
 525 0006 1646     		mov	r6, r2
  90:Src/nRF24.c   ****   // Select chip
  91:Src/nRF24.c   ****   SPI_CS_1();
 526              		.loc 1 91 0
 527 0008 FFF7FEFF 		bl	SPI_CS_1
 528              	.LVL40:
  92:Src/nRF24.c   ****   
  93:Src/nRF24.c   ****   // Write register address to read.
  94:Src/nRF24.c   ****   gpio_clockout_8_bits(reg);
 529              		.loc 1 94 0
 530 000c 2046     		mov	r0, r4
 531 000e FFF7FEFF 		bl	gpio_clockout_8_bits
 532              	.LVL41:
 533              	.LBB5:
  95:Src/nRF24.c   ****   // Read value
  96:Src/nRF24.c   ****   for (int i = 0; i < num_bytes; ++i) {
 534              		.loc 1 96 0
 535 0012 0024     		movs	r4, #0
 536 0014 03E0     		b	.L52
 537              	.LVL42:
 538              	.L53:
  97:Src/nRF24.c   ****     pbuf[i] = gpio_clockin_8_bits();
 539              		.loc 1 97 0 discriminator 3
 540 0016 FFF7FEFF 		bl	gpio_clockin_8_bits
 541              	.LVL43:
 542 001a 3055     		strb	r0, [r6, r4]
  96:Src/nRF24.c   ****     pbuf[i] = gpio_clockin_8_bits();
 543              		.loc 1 96 0 discriminator 3
 544 001c 0134     		adds	r4, r4, #1
 545              	.LVL44:
ARM GAS  /tmp/ccGoSq0J.s 			page 12


 546              	.L52:
  96:Src/nRF24.c   ****     pbuf[i] = gpio_clockin_8_bits();
 547              		.loc 1 96 0 is_stmt 0 discriminator 1
 548 001e AC42     		cmp	r4, r5
 549 0020 F9DB     		blt	.L53
 550              	.LBE5:
  98:Src/nRF24.c   ****   }
  99:Src/nRF24.c   ****   
 100:Src/nRF24.c   ****   // Deselect chip
 101:Src/nRF24.c   ****   SPI_CS_0();
 551              		.loc 1 101 0 is_stmt 1
 552 0022 FFF7FEFF 		bl	SPI_CS_0
 553              	.LVL45:
 554 0026 70BD     		pop	{r4, r5, r6, pc}
 555              		.cfi_endproc
 556              	.LFE143:
 558              		.section	.text.spi_write_register,"ax",%progbits
 559              		.align	1
 560              		.global	spi_write_register
 561              		.syntax unified
 562              		.thumb
 563              		.thumb_func
 564              		.fpu fpv4-sp-d16
 566              	spi_write_register:
 567              	.LFB144:
 102:Src/nRF24.c   **** }
 103:Src/nRF24.c   **** 
 104:Src/nRF24.c   **** 
 105:Src/nRF24.c   **** void spi_write_register(uint8_t reg, uint8_t num_bytes, uint8_t* writing_data){
 568              		.loc 1 105 0
 569              		.cfi_startproc
 570              		@ args = 0, pretend = 0, frame = 0
 571              		@ frame_needed = 0, uses_anonymous_args = 0
 572              	.LVL46:
 573 0000 70B5     		push	{r4, r5, r6, lr}
 574              	.LCFI13:
 575              		.cfi_def_cfa_offset 16
 576              		.cfi_offset 4, -16
 577              		.cfi_offset 5, -12
 578              		.cfi_offset 6, -8
 579              		.cfi_offset 14, -4
 580 0002 0446     		mov	r4, r0
 581 0004 0D46     		mov	r5, r1
 582 0006 1646     		mov	r6, r2
 106:Src/nRF24.c   ****   // Select chip (CSN LOW)
 107:Src/nRF24.c   ****   SPI_CS_1();
 583              		.loc 1 107 0
 584 0008 FFF7FEFF 		bl	SPI_CS_1
 585              	.LVL47:
 108:Src/nRF24.c   **** 
 109:Src/nRF24.c   ****   // Write chip register 
 110:Src/nRF24.c   ****   gpio_clockout_8_bits(reg);  // W_REGISTER_MASK is specifc to nRF24.
 586              		.loc 1 110 0
 587 000c 2046     		mov	r0, r4
 588 000e FFF7FEFF 		bl	gpio_clockout_8_bits
 589              	.LVL48:
 590              	.LBB6:
ARM GAS  /tmp/ccGoSq0J.s 			page 13


 111:Src/nRF24.c   ****   // Write value
 112:Src/nRF24.c   ****   for (int i = 0; i < num_bytes; ++i){
 591              		.loc 1 112 0
 592 0012 0024     		movs	r4, #0
 593 0014 03E0     		b	.L56
 594              	.LVL49:
 595              	.L57:
 596              	.LBB7:
 113:Src/nRF24.c   ****     uint8_t writing_byte = writing_data[i];
 114:Src/nRF24.c   ****     gpio_clockout_8_bits(writing_byte);
 597              		.loc 1 114 0 discriminator 3
 598 0016 305D     		ldrb	r0, [r6, r4]	@ zero_extendqisi2
 599 0018 FFF7FEFF 		bl	gpio_clockout_8_bits
 600              	.LVL50:
 601              	.LBE7:
 112:Src/nRF24.c   ****     uint8_t writing_byte = writing_data[i];
 602              		.loc 1 112 0 discriminator 3
 603 001c 0134     		adds	r4, r4, #1
 604              	.LVL51:
 605              	.L56:
 112:Src/nRF24.c   ****     uint8_t writing_byte = writing_data[i];
 606              		.loc 1 112 0 is_stmt 0 discriminator 1
 607 001e AC42     		cmp	r4, r5
 608 0020 F9DB     		blt	.L57
 609              	.LBE6:
 115:Src/nRF24.c   ****   }
 116:Src/nRF24.c   **** 
 117:Src/nRF24.c   ****   // Deselect chip (CSN HIGH)
 118:Src/nRF24.c   ****   SPI_CS_0();
 610              		.loc 1 118 0 is_stmt 1
 611 0022 FFF7FEFF 		bl	SPI_CS_0
 612              	.LVL52:
 613 0026 70BD     		pop	{r4, r5, r6, pc}
 614              		.cfi_endproc
 615              	.LFE144:
 617              		.section	.text.spi_verified_write_register,"ax",%progbits
 618              		.align	1
 619              		.global	spi_verified_write_register
 620              		.syntax unified
 621              		.thumb
 622              		.thumb_func
 623              		.fpu fpv4-sp-d16
 625              	spi_verified_write_register:
 626              	.LFB145:
 119:Src/nRF24.c   **** }
 120:Src/nRF24.c   **** 
 121:Src/nRF24.c   **** 
 122:Src/nRF24.c   **** // nRF24 Specific
 123:Src/nRF24.c   **** bool spi_verified_write_register(uint8_t reg, uint8_t num_bytes, uint8_t* writing_data){
 627              		.loc 1 123 0
 628              		.cfi_startproc
 629              		@ args = 0, pretend = 0, frame = 32
 630              		@ frame_needed = 1, uses_anonymous_args = 0
 631              	.LVL53:
 632 0000 2DE9F043 		push	{r4, r5, r6, r7, r8, r9, lr}
 633              	.LCFI14:
 634              		.cfi_def_cfa_offset 28
ARM GAS  /tmp/ccGoSq0J.s 			page 14


 635              		.cfi_offset 4, -28
 636              		.cfi_offset 5, -24
 637              		.cfi_offset 6, -20
 638              		.cfi_offset 7, -16
 639              		.cfi_offset 8, -12
 640              		.cfi_offset 9, -8
 641              		.cfi_offset 14, -4
 642 0004 89B0     		sub	sp, sp, #36
 643              	.LCFI15:
 644              		.cfi_def_cfa_offset 64
 645 0006 00AF     		add	r7, sp, #0
 646              	.LCFI16:
 647              		.cfi_def_cfa_register 7
 648 0008 8146     		mov	r9, r0
 649 000a 8846     		mov	r8, r1
 650 000c 1646     		mov	r6, r2
 124:Src/nRF24.c   ****     spi_write_register(reg, num_bytes, writing_data); 
 651              		.loc 1 124 0
 652 000e FFF7FEFF 		bl	spi_write_register
 653              	.LVL54:
 125:Src/nRF24.c   **** 
 126:Src/nRF24.c   ****     uint8_t read_data[num_bytes];
 654              		.loc 1 126 0
 655 0012 4446     		mov	r4, r8
 656              	.LVL55:
 657 0014 08F10703 		add	r3, r8, #7
 658 0018 23F00703 		bic	r3, r3, #7
 659 001c ADEB030D 		sub	sp, sp, r3
 660 0020 6D46     		mov	r5, sp
 661              	.LVL56:
 127:Src/nRF24.c   **** 
 128:Src/nRF24.c   ****     // reg & ~ W_REGISTER_MASK is a reverse operation of reg | W_REGISTER_MASK
 129:Src/nRF24.c   ****     spi_read_register(R_REGISTER_MASK | (reg & ~W_REGISTER_MASK), num_bytes, read_data);
 662              		.loc 1 129 0
 663 0022 6A46     		mov	r2, sp
 664 0024 4146     		mov	r1, r8
 665 0026 09F0DF00 		and	r0, r9, #223
 666 002a FFF7FEFF 		bl	spi_read_register
 667              	.LVL57:
 668              	.LBB8:
 130:Src/nRF24.c   ****     for (int i = 0; i < num_bytes; ++i) {
 669              		.loc 1 130 0
 670 002e 0023     		movs	r3, #0
 671              	.LVL58:
 672              	.L60:
 673              		.loc 1 130 0 is_stmt 0 discriminator 1
 674 0030 A342     		cmp	r3, r4
 675 0032 18DA     		bge	.L65
 131:Src/nRF24.c   ****       // if there's any mismatch between written data and read data from the register.
 132:Src/nRF24.c   ****       if (read_data[i] != writing_data[i]) {
 676              		.loc 1 132 0 is_stmt 1
 677 0034 E95C     		ldrb	r1, [r5, r3]	@ zero_extendqisi2
 678 0036 F25C     		ldrb	r2, [r6, r3]	@ zero_extendqisi2
 679 0038 9142     		cmp	r1, r2
 680 003a 01D1     		bne	.L66
 130:Src/nRF24.c   ****     for (int i = 0; i < num_bytes; ++i) {
 681              		.loc 1 130 0 discriminator 2
ARM GAS  /tmp/ccGoSq0J.s 			page 15


 682 003c 0133     		adds	r3, r3, #1
 683              	.LVL59:
 684 003e F7E7     		b	.L60
 685              	.L66:
 686              	.LBB9:
 133:Src/nRF24.c   ****         char message[] = "Problem writing to SPI register";
 687              		.loc 1 133 0
 688 0040 3C46     		mov	r4, r7
 689 0042 0B4D     		ldr	r5, .L67
 690              	.LVL60:
 691 0044 0FCD     		ldmia	r5!, {r0, r1, r2, r3}
 692              	.LVL61:
 693 0046 0FC4     		stmia	r4!, {r0, r1, r2, r3}
 694 0048 95E80F00 		ldm	r5, {r0, r1, r2, r3}
 695 004c 84E80F00 		stm	r4, {r0, r1, r2, r3}
 134:Src/nRF24.c   **** 				HAL_UART_Transmit(&huart2, (uint8_t*)message, strlen(message), 100);
 696              		.loc 1 134 0
 697 0050 3846     		mov	r0, r7
 698 0052 FFF7FEFF 		bl	strlen
 699              	.LVL62:
 700 0056 6423     		movs	r3, #100
 701 0058 82B2     		uxth	r2, r0
 702 005a 3946     		mov	r1, r7
 703 005c 0548     		ldr	r0, .L67+4
 704 005e FFF7FEFF 		bl	HAL_UART_Transmit
 705              	.LVL63:
 135:Src/nRF24.c   ****         return true;
 706              		.loc 1 135 0
 707 0062 0120     		movs	r0, #1
 708 0064 00E0     		b	.L62
 709              	.LVL64:
 710              	.L65:
 711              	.LBE9:
 712              	.LBE8:
 136:Src/nRF24.c   ****       } 
 137:Src/nRF24.c   ****   }
 138:Src/nRF24.c   ****   return false;
 713              		.loc 1 138 0
 714 0066 0020     		movs	r0, #0
 715              	.LVL65:
 716              	.L62:
 139:Src/nRF24.c   **** }
 717              		.loc 1 139 0 discriminator 1
 718 0068 2437     		adds	r7, r7, #36
 719              	.LCFI17:
 720              		.cfi_def_cfa_offset 28
 721 006a BD46     		mov	sp, r7
 722              	.LCFI18:
 723              		.cfi_def_cfa_register 13
 724              	.LVL66:
 725              		@ sp needed
 726 006c BDE8F083 		pop	{r4, r5, r6, r7, r8, r9, pc}
 727              	.LVL67:
 728              	.L68:
 729              		.align	2
 730              	.L67:
 731 0070 00000000 		.word	.LC2
ARM GAS  /tmp/ccGoSq0J.s 			page 16


 732 0074 00000000 		.word	huart2
 733              		.cfi_endproc
 734              	.LFE145:
 736              		.section	.text.nRF24_get_STATUS,"ax",%progbits
 737              		.align	1
 738              		.global	nRF24_get_STATUS
 739              		.syntax unified
 740              		.thumb
 741              		.thumb_func
 742              		.fpu fpv4-sp-d16
 744              	nRF24_get_STATUS:
 745              	.LFB146:
 140:Src/nRF24.c   **** 
 141:Src/nRF24.c   **** 
 142:Src/nRF24.c   **** uint8_t nRF24_get_STATUS() {
 746              		.loc 1 142 0
 747              		.cfi_startproc
 748              		@ args = 0, pretend = 0, frame = 8
 749              		@ frame_needed = 0, uses_anonymous_args = 0
 750 0000 00B5     		push	{lr}
 751              	.LCFI19:
 752              		.cfi_def_cfa_offset 4
 753              		.cfi_offset 14, -4
 754 0002 83B0     		sub	sp, sp, #12
 755              	.LCFI20:
 756              		.cfi_def_cfa_offset 16
 143:Src/nRF24.c   ****   uint8_t stat;
 144:Src/nRF24.c   ****   spi_read_register(R_REGISTER_MASK + STATUS, 1, &stat);
 757              		.loc 1 144 0
 758 0004 0DF10702 		add	r2, sp, #7
 759 0008 0121     		movs	r1, #1
 760 000a 0720     		movs	r0, #7
 761 000c FFF7FEFF 		bl	spi_read_register
 762              	.LVL68:
 145:Src/nRF24.c   ****   // Serial.print("- STATUS: "); Serial.println(stat,HEX);
 146:Src/nRF24.c   ****   return stat;
 147:Src/nRF24.c   **** }
 763              		.loc 1 147 0
 764 0010 9DF80700 		ldrb	r0, [sp, #7]	@ zero_extendqisi2
 765 0014 03B0     		add	sp, sp, #12
 766              	.LCFI21:
 767              		.cfi_def_cfa_offset 4
 768              		@ sp needed
 769 0016 5DF804FB 		ldr	pc, [sp], #4
 770              		.cfi_endproc
 771              	.LFE146:
 773              		.section	.text.nRF24_get_FIFO_STATUS,"ax",%progbits
 774              		.align	1
 775              		.global	nRF24_get_FIFO_STATUS
 776              		.syntax unified
 777              		.thumb
 778              		.thumb_func
 779              		.fpu fpv4-sp-d16
 781              	nRF24_get_FIFO_STATUS:
 782              	.LFB147:
 148:Src/nRF24.c   **** 
 149:Src/nRF24.c   **** uint8_t nRF24_get_FIFO_STATUS() {
ARM GAS  /tmp/ccGoSq0J.s 			page 17


 783              		.loc 1 149 0
 784              		.cfi_startproc
 785              		@ args = 0, pretend = 0, frame = 8
 786              		@ frame_needed = 0, uses_anonymous_args = 0
 787 0000 00B5     		push	{lr}
 788              	.LCFI22:
 789              		.cfi_def_cfa_offset 4
 790              		.cfi_offset 14, -4
 791 0002 83B0     		sub	sp, sp, #12
 792              	.LCFI23:
 793              		.cfi_def_cfa_offset 16
 150:Src/nRF24.c   ****   uint8_t fifo_status;
 151:Src/nRF24.c   ****   spi_read_register(R_REGISTER_MASK + FIFO_STATUS, 1, &fifo_status);
 794              		.loc 1 151 0
 795 0004 0DF10702 		add	r2, sp, #7
 796 0008 0121     		movs	r1, #1
 797 000a 1720     		movs	r0, #23
 798 000c FFF7FEFF 		bl	spi_read_register
 799              	.LVL69:
 152:Src/nRF24.c   ****   // Serial.print("- FIFO STATUS: "); Serial.println(fifo_status,HEX);
 153:Src/nRF24.c   ****   return fifo_status;
 154:Src/nRF24.c   **** }
 800              		.loc 1 154 0
 801 0010 9DF80700 		ldrb	r0, [sp, #7]	@ zero_extendqisi2
 802 0014 03B0     		add	sp, sp, #12
 803              	.LCFI24:
 804              		.cfi_def_cfa_offset 4
 805              		@ sp needed
 806 0016 5DF804FB 		ldr	pc, [sp], #4
 807              		.cfi_endproc
 808              	.LFE147:
 810              		.section	.text.nRF24_get_CONFIG,"ax",%progbits
 811              		.align	1
 812              		.global	nRF24_get_CONFIG
 813              		.syntax unified
 814              		.thumb
 815              		.thumb_func
 816              		.fpu fpv4-sp-d16
 818              	nRF24_get_CONFIG:
 819              	.LFB148:
 155:Src/nRF24.c   **** 
 156:Src/nRF24.c   **** uint8_t nRF24_get_CONFIG() {
 820              		.loc 1 156 0
 821              		.cfi_startproc
 822              		@ args = 0, pretend = 0, frame = 8
 823              		@ frame_needed = 0, uses_anonymous_args = 0
 824 0000 00B5     		push	{lr}
 825              	.LCFI25:
 826              		.cfi_def_cfa_offset 4
 827              		.cfi_offset 14, -4
 828 0002 83B0     		sub	sp, sp, #12
 829              	.LCFI26:
 830              		.cfi_def_cfa_offset 16
 157:Src/nRF24.c   ****   uint8_t config_reg;
 158:Src/nRF24.c   ****   spi_read_register(R_REGISTER_MASK + CONFIG, 1, &config_reg);
 831              		.loc 1 158 0
 832 0004 0DF10702 		add	r2, sp, #7
ARM GAS  /tmp/ccGoSq0J.s 			page 18


 833 0008 0121     		movs	r1, #1
 834 000a 0020     		movs	r0, #0
 835 000c FFF7FEFF 		bl	spi_read_register
 836              	.LVL70:
 159:Src/nRF24.c   ****   // Serial.print("- CONFIG: "); Serial.println(config_reg,HEX);
 160:Src/nRF24.c   ****   return config_reg;
 161:Src/nRF24.c   **** }
 837              		.loc 1 161 0
 838 0010 9DF80700 		ldrb	r0, [sp, #7]	@ zero_extendqisi2
 839 0014 03B0     		add	sp, sp, #12
 840              	.LCFI27:
 841              		.cfi_def_cfa_offset 4
 842              		@ sp needed
 843 0016 5DF804FB 		ldr	pc, [sp], #4
 844              		.cfi_endproc
 845              	.LFE148:
 847              		.section	.text.nRF24_tx_self_test,"ax",%progbits
 848              		.align	1
 849              		.global	nRF24_tx_self_test
 850              		.syntax unified
 851              		.thumb
 852              		.thumb_func
 853              		.fpu fpv4-sp-d16
 855              	nRF24_tx_self_test:
 856              	.LFB149:
 162:Src/nRF24.c   **** 
 163:Src/nRF24.c   **** 
 164:Src/nRF24.c   **** /**  
 165:Src/nRF24.c   ****  *  Brief: We need to make sure the Transmitter work before we have a Receiver working.
 166:Src/nRF24.c   ****  *  
 167:Src/nRF24.c   ****  *  How to know TX payload is loaded?
 168:Src/nRF24.c   ****  *  
 169:Src/nRF24.c   ****  *  Steps: 1. Disable Auto Acknowledgement, Auto Retransmit. TX_DS will be be set if these two are 
 170:Src/nRF24.c   ****  *         2. TX_DS (in STATUS register) is expected to be set when data in TX FIFO is set.
 171:Src/nRF24.c   ****  *         STATUS = 0x2E after firing means we have a working TX module.
 172:Src/nRF24.c   ****  *        
 173:Src/nRF24.c   ****  *        After writing to W_TX_PAYLOAD, TX_EMPTY (in FIFO_STATUS register) becomes 0.
 174:Src/nRF24.c   ****  *        
 175:Src/nRF24.c   ****  *        What happens if sending is not successful?
 176:Src/nRF24.c   ****  *        TX_FULL (in FIFO_STATUS register) becomes 1.
 177:Src/nRF24.c   ****  *        TX_FULL (in STATUS register) becomes 1.
 178:Src/nRF24.c   ****  *        TX_DS (in STATUS register) remains 0.  
 179:Src/nRF24.c   ****  *  States: 
 180:Src/nRF24.c   ****  *        The states can be referred in 6.1.1 State diagram.
 181:Src/nRF24.c   ****  *  
 182:Src/nRF24.c   ****  *  STATUS register
 183:Src/nRF24.c   ****  *            7             6           5         4         3:1         0
 184:Src/nRF24.c   ****  *        <reserved>      RX_DR       TX_DS     MAX_RT     RX_P_NO     TX_FULL
 185:Src/nRF24.c   ****  *        -----------------------------------------------------------------------
 186:Src/nRF24.c   ****  *         Always 0       Receive     Transfer  Maximum    000-101 :    1: 
 187:Src/nRF24.c   ****  *                        Data        Data      TX         Data Pipe #  TX_FULL
 188:Src/nRF24.c   ****  *                        Ready       Sent      Transmits  110 :
 189:Src/nRF24.c   ****  *                                                         Not Used.
 190:Src/nRF24.c   ****  *                                                         111:
 191:Src/nRF24.c   ****  *                                                         RX FIFO Empty.
 192:Src/nRF24.c   ****  */
 193:Src/nRF24.c   **** bool nRF24_tx_self_test() {
ARM GAS  /tmp/ccGoSq0J.s 			page 19


 857              		.loc 1 193 0
 858              		.cfi_startproc
 859              		@ args = 0, pretend = 0, frame = 272
 860              		@ frame_needed = 0, uses_anonymous_args = 0
 861 0000 30B5     		push	{r4, r5, lr}
 862              	.LCFI28:
 863              		.cfi_def_cfa_offset 12
 864              		.cfi_offset 4, -12
 865              		.cfi_offset 5, -8
 866              		.cfi_offset 14, -4
 867 0002 C5B0     		sub	sp, sp, #276
 868              	.LCFI29:
 869              		.cfi_def_cfa_offset 288
 194:Src/nRF24.c   **** 
 195:Src/nRF24.c   ****   char message1[] = "---- nrf24 tx self test. ----\n";
 870              		.loc 1 195 0
 871 0004 3CAC     		add	r4, sp, #240
 872 0006 3F4D     		ldr	r5, .L80
 873 0008 0FCD     		ldmia	r5!, {r0, r1, r2, r3}
 874 000a 0FC4     		stmia	r4!, {r0, r1, r2, r3}
 875 000c 95E80F00 		ldm	r5, {r0, r1, r2, r3}
 876 0010 07C4     		stmia	r4!, {r0, r1, r2}
 877 0012 24F8023B 		strh	r3, [r4], #2	@ movhi
 878 0016 1B0C     		lsrs	r3, r3, #16
 879 0018 2370     		strb	r3, [r4]
 196:Src/nRF24.c   **** 	HAL_UART_Transmit(&huart2, (uint8_t*)message1, strlen(message1), 100);
 880              		.loc 1 196 0
 881 001a 3CA8     		add	r0, sp, #240
 882 001c FFF7FEFF 		bl	strlen
 883              	.LVL71:
 884 0020 394C     		ldr	r4, .L80+4
 885 0022 6423     		movs	r3, #100
 886 0024 82B2     		uxth	r2, r0
 887 0026 3CA9     		add	r1, sp, #240
 888 0028 2046     		mov	r0, r4
 889 002a FFF7FEFF 		bl	HAL_UART_Transmit
 890              	.LVL72:
 197:Src/nRF24.c   **** 
 198:Src/nRF24.c   ****   char message2[] = "---- This test to verifies function of a tranmitter send without a receiver. -
 891              		.loc 1 198 0
 892 002e 5322     		movs	r2, #83
 893 0030 3649     		ldr	r1, .L80+8
 894 0032 27A8     		add	r0, sp, #156
 895 0034 FFF7FEFF 		bl	memcpy
 896              	.LVL73:
 199:Src/nRF24.c   **** 	HAL_UART_Transmit(&huart2, (uint8_t*)message2, strlen(message2), 100);
 897              		.loc 1 199 0
 898 0038 27A8     		add	r0, sp, #156
 899 003a FFF7FEFF 		bl	strlen
 900              	.LVL74:
 901 003e 6423     		movs	r3, #100
 902 0040 82B2     		uxth	r2, r0
 903 0042 27A9     		add	r1, sp, #156
 904 0044 2046     		mov	r0, r4
 905 0046 FFF7FEFF 		bl	HAL_UART_Transmit
 906              	.LVL75:
 200:Src/nRF24.c   **** 
ARM GAS  /tmp/ccGoSq0J.s 			page 20


 201:Src/nRF24.c   ****   uint8_t nRF24_status = 0x00;
 202:Src/nRF24.c   **** 
 203:Src/nRF24.c   ****   // Note that if we reset the Arduino without re-poweron the chip, initial value of registers such
 204:Src/nRF24.c   ****   // [Current State: Power-on reset 100 ms] 
 205:Src/nRF24.c   ****   SPI_CE_0();
 907              		.loc 1 205 0
 908 004a FFF7FEFF 		bl	SPI_CE_0
 909              	.LVL76:
 206:Src/nRF24.c   ****   // [Current State: (RF transmission is) Power Down (But SPI is alive.)]
 207:Src/nRF24.c   ****   uint8_t writing_byte = 0x00;
 910              		.loc 1 207 0
 911 004e 44AC     		add	r4, sp, #272
 912 0050 0023     		movs	r3, #0
 913 0052 04F8753D 		strb	r3, [r4, #-117]!
 208:Src/nRF24.c   ****   spi_verified_write_register(W_REGISTER_MASK + EN_AA, 1, &writing_byte);        // disable auto ac
 914              		.loc 1 208 0
 915 0056 2246     		mov	r2, r4
 916 0058 0121     		movs	r1, #1
 917 005a 2120     		movs	r0, #33
 918 005c FFF7FEFF 		bl	spi_verified_write_register
 919              	.LVL77:
 209:Src/nRF24.c   ****   spi_verified_write_register(W_REGISTER_MASK + EN_RXADDR, 1, &writing_byte);    // disable RX data
 920              		.loc 1 209 0
 921 0060 2246     		mov	r2, r4
 922 0062 0121     		movs	r1, #1
 923 0064 2220     		movs	r0, #34
 924 0066 FFF7FEFF 		bl	spi_verified_write_register
 925              	.LVL78:
 210:Src/nRF24.c   ****   spi_verified_write_register(W_REGISTER_MASK + SETUP_RETR, 1, &writing_byte);   // disable automat
 926              		.loc 1 210 0
 927 006a 2246     		mov	r2, r4
 928 006c 0121     		movs	r1, #1
 929 006e 2420     		movs	r0, #36
 930 0070 FFF7FEFF 		bl	spi_verified_write_register
 931              	.LVL79:
 211:Src/nRF24.c   ****   writing_byte = 0x0E;
 932              		.loc 1 211 0
 933 0074 0E23     		movs	r3, #14
 934 0076 8DF89B30 		strb	r3, [sp, #155]
 212:Src/nRF24.c   ****   spi_verified_write_register(W_REGISTER_MASK + CONFIG, 1, &writing_byte);       // PWR_UP = 1 PRIM
 935              		.loc 1 212 0
 936 007a 2246     		mov	r2, r4
 937 007c 0121     		movs	r1, #1
 938 007e 2020     		movs	r0, #32
 939 0080 FFF7FEFF 		bl	spi_verified_write_register
 940              	.LVL80:
 213:Src/nRF24.c   **** 
 214:Src/nRF24.c   ****   // PWR_UP=1, state transition -> [Current State: Standby-I]
 215:Src/nRF24.c   ****   uint8_t test_payload[4] = {0xDE, 0xAD, 0xBE, 0xEF}; // clock in a payload, now TX FIFO not empty 
 941              		.loc 1 215 0
 942 0084 224B     		ldr	r3, .L80+12
 943 0086 1B68     		ldr	r3, [r3]
 944 0088 44AA     		add	r2, sp, #272
 945 008a 42F87C3D 		str	r3, [r2, #-124]!
 216:Src/nRF24.c   ****   spi_write_register(W_TX_PAYLOAD, 4, test_payload);
 946              		.loc 1 216 0
 947 008e 0421     		movs	r1, #4
ARM GAS  /tmp/ccGoSq0J.s 			page 21


 948 0090 A020     		movs	r0, #160
 949 0092 FFF7FEFF 		bl	spi_write_register
 950              	.LVL81:
 217:Src/nRF24.c   ****   SPI_CE_1(); // Chip Enable. Fire the packet out on the antenna!
 951              		.loc 1 217 0
 952 0096 FFF7FEFF 		bl	SPI_CE_1
 953              	.LVL82:
 218:Src/nRF24.c   ****   
 219:Src/nRF24.c   ****   // TX FIFO not empty AND CE = 1, state transition -> [Current State: TX MODE]
 220:Src/nRF24.c   ****   nRF24_status = nRF24_get_STATUS();
 954              		.loc 1 220 0
 955 009a FFF7FEFF 		bl	nRF24_get_STATUS
 956              	.LVL83:
 957 009e 0546     		mov	r5, r0
 958              	.LVL84:
 221:Src/nRF24.c   ****   spi_delay(1);
 959              		.loc 1 221 0
 960 00a0 0120     		movs	r0, #1
 961 00a2 FFF7FEFF 		bl	spi_delay
 962              	.LVL85:
 222:Src/nRF24.c   **** 
 223:Src/nRF24.c   ****   // CE=0, state transition -> now return to [State: Standby-I]. 
 224:Src/nRF24.c   ****   SPI_CE_0();
 963              		.loc 1 224 0
 964 00a6 FFF7FEFF 		bl	SPI_CE_0
 965              	.LVL86:
 225:Src/nRF24.c   ****   // PWR_UP = 0, state transition -> now return to [State: Power Down]
 226:Src/nRF24.c   ****   writing_byte = 0x08; // write default value for CONFIG register (writing_byte = 0)
 966              		.loc 1 226 0
 967 00aa 0823     		movs	r3, #8
 968 00ac 8DF89B30 		strb	r3, [sp, #155]
 227:Src/nRF24.c   ****   spi_verified_write_register(W_REGISTER_MASK + CONFIG, 1, &writing_byte);       
 969              		.loc 1 227 0
 970 00b0 2246     		mov	r2, r4
 971 00b2 0121     		movs	r1, #1
 972 00b4 2020     		movs	r0, #32
 973 00b6 FFF7FEFF 		bl	spi_verified_write_register
 974              	.LVL87:
 228:Src/nRF24.c   **** 
 229:Src/nRF24.c   ****   // Now the chip is back to power down mode, check test result. 
 230:Src/nRF24.c   ****   if (nRF24_status & 0x2E) { // TX_DS bit is set.
 975              		.loc 1 230 0
 976 00ba 15F02E0F 		tst	r5, #46
 977 00be 10D1     		bne	.L79
 978              	.LBB10:
 231:Src/nRF24.c   ****   	char message3[] = "\n > nRF24 transmission self-test has passed. STATUS has value of 0x2E, TX_DS
 232:Src/nRF24.c   **** 		HAL_UART_Transmit(&huart2, (uint8_t*)message3, strlen(message3), 100);
 233:Src/nRF24.c   ****     return true;
 234:Src/nRF24.c   ****   } else {
 235:Src/nRF24.c   ****   	char message4[] = "\n > nRF24 transmission self-test has failed. STATUS is expected 0x2E.";
 979              		.loc 1 235 0
 980 00c0 4622     		movs	r2, #70
 981 00c2 1449     		ldr	r1, .L80+16
 982 00c4 01A8     		add	r0, sp, #4
 983 00c6 FFF7FEFF 		bl	memcpy
 984              	.LVL88:
 236:Src/nRF24.c   **** 		HAL_UART_Transmit(&huart2, (uint8_t*)message4, strlen(message4), 100);
ARM GAS  /tmp/ccGoSq0J.s 			page 22


 985              		.loc 1 236 0
 986 00ca 01A8     		add	r0, sp, #4
 987 00cc FFF7FEFF 		bl	strlen
 988              	.LVL89:
 989 00d0 6423     		movs	r3, #100
 990 00d2 82B2     		uxth	r2, r0
 991 00d4 01A9     		add	r1, sp, #4
 992 00d6 0C48     		ldr	r0, .L80+4
 993 00d8 FFF7FEFF 		bl	HAL_UART_Transmit
 994              	.LVL90:
 237:Src/nRF24.c   ****     return false;
 995              		.loc 1 237 0
 996 00dc 0020     		movs	r0, #0
 997              	.L77:
 998              	.LBE10:
 238:Src/nRF24.c   ****   }
 239:Src/nRF24.c   ****   
 240:Src/nRF24.c   **** }
 999              		.loc 1 240 0 discriminator 1
 1000 00de 45B0     		add	sp, sp, #276
 1001              	.LCFI30:
 1002              		.cfi_remember_state
 1003              		.cfi_def_cfa_offset 12
 1004              		@ sp needed
 1005 00e0 30BD     		pop	{r4, r5, pc}
 1006              	.LVL91:
 1007              	.L79:
 1008              	.LCFI31:
 1009              		.cfi_restore_state
 1010              	.LBB11:
 231:Src/nRF24.c   **** 		HAL_UART_Transmit(&huart2, (uint8_t*)message3, strlen(message3), 100);
 1011              		.loc 1 231 0
 1012 00e2 9022     		movs	r2, #144
 1013 00e4 0C49     		ldr	r1, .L80+20
 1014 00e6 01A8     		add	r0, sp, #4
 1015 00e8 FFF7FEFF 		bl	memcpy
 1016              	.LVL92:
 232:Src/nRF24.c   ****     return true;
 1017              		.loc 1 232 0
 1018 00ec 01A8     		add	r0, sp, #4
 1019 00ee FFF7FEFF 		bl	strlen
 1020              	.LVL93:
 1021 00f2 6423     		movs	r3, #100
 1022 00f4 82B2     		uxth	r2, r0
 1023 00f6 01A9     		add	r1, sp, #4
 1024 00f8 0348     		ldr	r0, .L80+4
 1025 00fa FFF7FEFF 		bl	HAL_UART_Transmit
 1026              	.LVL94:
 233:Src/nRF24.c   ****   } else {
 1027              		.loc 1 233 0
 1028 00fe 0120     		movs	r0, #1
 1029 0100 EDE7     		b	.L77
 1030              	.L81:
 1031 0102 00BF     		.align	2
 1032              	.L80:
 1033 0104 00000000 		.word	.LC3
 1034 0108 00000000 		.word	huart2
ARM GAS  /tmp/ccGoSq0J.s 			page 23


 1035 010c 20000000 		.word	.LC4
 1036 0110 00000000 		.word	.LANCHOR0
 1037 0114 74000000 		.word	.LC6
 1038 0118 BC000000 		.word	.LC5
 1039              	.LBE11:
 1040              		.cfi_endproc
 1041              	.LFE149:
 1043              		.section	.text.nRF24_configure_tx_mode,"ax",%progbits
 1044              		.align	1
 1045              		.global	nRF24_configure_tx_mode
 1046              		.syntax unified
 1047              		.thumb
 1048              		.thumb_func
 1049              		.fpu fpv4-sp-d16
 1051              	nRF24_configure_tx_mode:
 1052              	.LFB150:
 241:Src/nRF24.c   **** 
 242:Src/nRF24.c   **** 
 243:Src/nRF24.c   **** void nRF24_configure_tx_mode() {
 1053              		.loc 1 243 0
 1054              		.cfi_startproc
 1055              		@ args = 0, pretend = 0, frame = 16
 1056              		@ frame_needed = 0, uses_anonymous_args = 0
 1057 0000 30B5     		push	{r4, r5, lr}
 1058              	.LCFI32:
 1059              		.cfi_def_cfa_offset 12
 1060              		.cfi_offset 4, -12
 1061              		.cfi_offset 5, -8
 1062              		.cfi_offset 14, -4
 1063 0002 85B0     		sub	sp, sp, #20
 1064              	.LCFI33:
 1065              		.cfi_def_cfa_offset 32
 244:Src/nRF24.c   ****     SPI_CE_0();
 1066              		.loc 1 244 0
 1067 0004 FFF7FEFF 		bl	SPI_CE_0
 1068              	.LVL95:
 245:Src/nRF24.c   **** 
 246:Src/nRF24.c   ****     // Set TX_ADDR for sender. On the Receiver side, set RX_ADDR_P0 with same value.
 247:Src/nRF24.c   ****     unsigned char TX_ADDRESS[5] = {0x10,0xDE,0x10,0x10,0x10};  // 
 1069              		.loc 1 247 0
 1070 0008 1F4B     		ldr	r3, .L84
 1071 000a 93E80300 		ldm	r3, {r0, r1}
 1072 000e 0290     		str	r0, [sp, #8]
 1073 0010 8DF80C10 		strb	r1, [sp, #12]
 248:Src/nRF24.c   ****     spi_write_register(W_REGISTER_MASK + TX_ADDR, 5, TX_ADDRESS);     //       
 1074              		.loc 1 248 0
 1075 0014 02AA     		add	r2, sp, #8
 1076 0016 0521     		movs	r1, #5
 1077 0018 3020     		movs	r0, #48
 1078 001a FFF7FEFF 		bl	spi_write_register
 1079              	.LVL96:
 249:Src/nRF24.c   **** 
 250:Src/nRF24.c   ****     uint8_t writing_byte;
 251:Src/nRF24.c   ****     writing_byte = 0x00;
 1080              		.loc 1 251 0
 1081 001e 0025     		movs	r5, #0
 1082 0020 04AC     		add	r4, sp, #16
ARM GAS  /tmp/ccGoSq0J.s 			page 24


 1083 0022 04F8095D 		strb	r5, [r4, #-9]!
 252:Src/nRF24.c   ****     spi_verified_write_register(W_REGISTER_MASK + EN_AA, 1, &writing_byte);
 1084              		.loc 1 252 0
 1085 0026 2246     		mov	r2, r4
 1086 0028 0121     		movs	r1, #1
 1087 002a 2120     		movs	r0, #33
 1088 002c FFF7FEFF 		bl	spi_verified_write_register
 1089              	.LVL97:
 253:Src/nRF24.c   **** 
 254:Src/nRF24.c   ****     writing_byte = 0x00;
 1090              		.loc 1 254 0
 1091 0030 8DF80750 		strb	r5, [sp, #7]
 255:Src/nRF24.c   ****     spi_verified_write_register(W_REGISTER_MASK + EN_RXADDR, 1, &writing_byte);
 1092              		.loc 1 255 0
 1093 0034 2246     		mov	r2, r4
 1094 0036 0121     		movs	r1, #1
 1095 0038 2220     		movs	r0, #34
 1096 003a FFF7FEFF 		bl	spi_verified_write_register
 1097              	.LVL98:
 256:Src/nRF24.c   **** 
 257:Src/nRF24.c   ****     writing_byte = 0x00;
 1098              		.loc 1 257 0
 1099 003e 8DF80750 		strb	r5, [sp, #7]
 258:Src/nRF24.c   ****     spi_verified_write_register(W_REGISTER_MASK + SETUP_RETR, 1, &writing_byte);
 1100              		.loc 1 258 0
 1101 0042 2246     		mov	r2, r4
 1102 0044 0121     		movs	r1, #1
 1103 0046 2420     		movs	r0, #36
 1104 0048 FFF7FEFF 		bl	spi_verified_write_register
 1105              	.LVL99:
 259:Src/nRF24.c   **** 
 260:Src/nRF24.c   ****     writing_byte = 40;
 1106              		.loc 1 260 0
 1107 004c 2823     		movs	r3, #40
 1108 004e 8DF80730 		strb	r3, [sp, #7]
 261:Src/nRF24.c   ****     spi_verified_write_register(W_REGISTER_MASK + RF_CH, 1, &writing_byte);
 1109              		.loc 1 261 0
 1110 0052 2246     		mov	r2, r4
 1111 0054 0121     		movs	r1, #1
 1112 0056 2520     		movs	r0, #37
 1113 0058 FFF7FEFF 		bl	spi_verified_write_register
 1114              	.LVL100:
 262:Src/nRF24.c   **** 
 263:Src/nRF24.c   ****     writing_byte = 0x07;
 1115              		.loc 1 263 0
 1116 005c 0723     		movs	r3, #7
 1117 005e 8DF80730 		strb	r3, [sp, #7]
 264:Src/nRF24.c   ****     spi_verified_write_register(W_REGISTER_MASK + RF_SETUP, 1, &writing_byte);
 1118              		.loc 1 264 0
 1119 0062 2246     		mov	r2, r4
 1120 0064 0121     		movs	r1, #1
 1121 0066 2620     		movs	r0, #38
 1122 0068 FFF7FEFF 		bl	spi_verified_write_register
 1123              	.LVL101:
 265:Src/nRF24.c   **** 
 266:Src/nRF24.c   ****     // PWR_UP, state transition -> Standby-I
 267:Src/nRF24.c   ****     writing_byte = 0x0e;
ARM GAS  /tmp/ccGoSq0J.s 			page 25


 1124              		.loc 1 267 0
 1125 006c 0E23     		movs	r3, #14
 1126 006e 8DF80730 		strb	r3, [sp, #7]
 268:Src/nRF24.c   ****     spi_verified_write_register(W_REGISTER_MASK + CONFIG, 1, &writing_byte);
 1127              		.loc 1 268 0
 1128 0072 2246     		mov	r2, r4
 1129 0074 0121     		movs	r1, #1
 1130 0076 2020     		movs	r0, #32
 1131 0078 FFF7FEFF 		bl	spi_verified_write_register
 1132              	.LVL102:
 269:Src/nRF24.c   ****     spi_delay(150);
 1133              		.loc 1 269 0
 1134 007c 9620     		movs	r0, #150
 1135 007e FFF7FEFF 		bl	spi_delay
 1136              	.LVL103:
 270:Src/nRF24.c   **** 
 271:Src/nRF24.c   ****     // CE = 1 is not activated until we write to TX FIFO so stays in Standby-I mode.
 272:Src/nRF24.c   **** }
 1137              		.loc 1 272 0
 1138 0082 05B0     		add	sp, sp, #20
 1139              	.LCFI34:
 1140              		.cfi_def_cfa_offset 12
 1141              		@ sp needed
 1142 0084 30BD     		pop	{r4, r5, pc}
 1143              	.L85:
 1144 0086 00BF     		.align	2
 1145              	.L84:
 1146 0088 04000000 		.word	.LANCHOR0+4
 1147              		.cfi_endproc
 1148              	.LFE150:
 1150              		.section	.text.nRF24_keep_sending,"ax",%progbits
 1151              		.align	1
 1152              		.global	nRF24_keep_sending
 1153              		.syntax unified
 1154              		.thumb
 1155              		.thumb_func
 1156              		.fpu fpv4-sp-d16
 1158              	nRF24_keep_sending:
 1159              	.LFB151:
 273:Src/nRF24.c   **** 
 274:Src/nRF24.c   **** 
 275:Src/nRF24.c   **** void nRF24_keep_sending() {
 1160              		.loc 1 275 0
 1161              		.cfi_startproc
 1162              		@ args = 0, pretend = 0, frame = 72
 1163              		@ frame_needed = 0, uses_anonymous_args = 0
 1164 0000 30B5     		push	{r4, r5, lr}
 1165              	.LCFI35:
 1166              		.cfi_def_cfa_offset 12
 1167              		.cfi_offset 4, -12
 1168              		.cfi_offset 5, -8
 1169              		.cfi_offset 14, -4
 1170 0002 93B0     		sub	sp, sp, #76
 1171              	.LCFI36:
 1172              		.cfi_def_cfa_offset 88
 276:Src/nRF24.c   ****   uint8_t payload[] = {0xDE, 0xAD, 0xBE, 0xEF}; // clock in a payload, TX FIFO not empty 
 1173              		.loc 1 276 0
ARM GAS  /tmp/ccGoSq0J.s 			page 26


 1174 0004 254B     		ldr	r3, .L91
 1175 0006 1B68     		ldr	r3, [r3]
 1176 0008 12AA     		add	r2, sp, #72
 1177 000a 42F8043D 		str	r3, [r2, #-4]!
 277:Src/nRF24.c   ****   
 278:Src/nRF24.c   ****   spi_write_register(W_TX_PAYLOAD, 4, (uint8_t*) payload);
 1178              		.loc 1 278 0
 1179 000e 0421     		movs	r1, #4
 1180 0010 A020     		movs	r0, #160
 1181 0012 FFF7FEFF 		bl	spi_write_register
 1182              	.LVL104:
 279:Src/nRF24.c   ****   SPI_CE_1(); // fire out the transmit packet
 1183              		.loc 1 279 0
 1184 0016 FFF7FEFF 		bl	SPI_CE_1
 1185              	.LVL105:
 280:Src/nRF24.c   **** 
 281:Src/nRF24.c   ****   uint8_t stat = nRF24_get_STATUS();
 1186              		.loc 1 281 0
 1187 001a FFF7FEFF 		bl	nRF24_get_STATUS
 1188              	.LVL106:
 1189 001e 0446     		mov	r4, r0
 1190              	.LVL107:
 282:Src/nRF24.c   **** 	char message[64];
 283:Src/nRF24.c   **** 	sprintf(message, "Status is: %x\n", stat);
 1191              		.loc 1 283 0
 1192 0020 0246     		mov	r2, r0
 1193 0022 1F49     		ldr	r1, .L91+4
 1194 0024 01A8     		add	r0, sp, #4
 1195              	.LVL108:
 1196 0026 FFF7FEFF 		bl	sprintf
 1197              	.LVL109:
 284:Src/nRF24.c   **** 	HAL_UART_Transmit(&huart2, (uint8_t*)message, strlen(message), 100);
 1198              		.loc 1 284 0
 1199 002a 01A8     		add	r0, sp, #4
 1200 002c FFF7FEFF 		bl	strlen
 1201              	.LVL110:
 1202 0030 6423     		movs	r3, #100
 1203 0032 82B2     		uxth	r2, r0
 1204 0034 01A9     		add	r1, sp, #4
 1205 0036 1B48     		ldr	r0, .L91+8
 1206 0038 FFF7FEFF 		bl	HAL_UART_Transmit
 1207              	.LVL111:
 285:Src/nRF24.c   **** 
 286:Src/nRF24.c   ****   if (stat == 0x2e) { // TX_DS bit is set.
 1208              		.loc 1 286 0
 1209 003c 2E2C     		cmp	r4, #46
 1210 003e 1AD0     		beq	.L90
 287:Src/nRF24.c   **** 		strcpy(message, "nRF24 send successful.\n");
 288:Src/nRF24.c   **** 		HAL_UART_Transmit(&huart2, (uint8_t*)message, strlen(message), 100);
 289:Src/nRF24.c   ****   } else {
 290:Src/nRF24.c   **** 		strcpy(message, "nRF24 send failed.\n");
 1211              		.loc 1 290 0
 1212 0040 01AC     		add	r4, sp, #4
 1213 0042 194D     		ldr	r5, .L91+12
 1214 0044 0FCD     		ldmia	r5!, {r0, r1, r2, r3}
 1215 0046 0FC4     		stmia	r4!, {r0, r1, r2, r3}
 1216 0048 2B68     		ldr	r3, [r5]
ARM GAS  /tmp/ccGoSq0J.s 			page 27


 1217 004a 2360     		str	r3, [r4]
 291:Src/nRF24.c   **** 		HAL_UART_Transmit(&huart2, (uint8_t*)message, strlen(message), 100);
 1218              		.loc 1 291 0
 1219 004c 01A8     		add	r0, sp, #4
 1220 004e FFF7FEFF 		bl	strlen
 1221              	.LVL112:
 1222 0052 6423     		movs	r3, #100
 1223 0054 82B2     		uxth	r2, r0
 1224 0056 01A9     		add	r1, sp, #4
 1225 0058 1248     		ldr	r0, .L91+8
 1226 005a FFF7FEFF 		bl	HAL_UART_Transmit
 1227              	.LVL113:
 1228              	.L88:
 292:Src/nRF24.c   ****   }
 293:Src/nRF24.c   ****   // write 1 to clear TX_DS
 294:Src/nRF24.c   ****   uint8_t writing_byte = 0x20;
 1229              		.loc 1 294 0
 1230 005e 12AA     		add	r2, sp, #72
 1231 0060 2023     		movs	r3, #32
 1232 0062 02F8453D 		strb	r3, [r2, #-69]!
 295:Src/nRF24.c   ****   spi_write_register(W_REGISTER_MASK + STATUS, 1, &writing_byte); 
 1233              		.loc 1 295 0
 1234 0066 0121     		movs	r1, #1
 1235 0068 2720     		movs	r0, #39
 1236 006a FFF7FEFF 		bl	spi_write_register
 1237              	.LVL114:
 296:Src/nRF24.c   ****   SPI_CE_0(); // stop transmission. return to Standby-I state.
 1238              		.loc 1 296 0
 1239 006e FFF7FEFF 		bl	SPI_CE_0
 1240              	.LVL115:
 297:Src/nRF24.c   ****   // Return to [State: Standby-I]
 298:Src/nRF24.c   **** }
 1241              		.loc 1 298 0
 1242 0072 13B0     		add	sp, sp, #76
 1243              	.LCFI37:
 1244              		.cfi_remember_state
 1245              		.cfi_def_cfa_offset 12
 1246              		@ sp needed
 1247 0074 30BD     		pop	{r4, r5, pc}
 1248              	.L90:
 1249              	.LCFI38:
 1250              		.cfi_restore_state
 287:Src/nRF24.c   **** 		HAL_UART_Transmit(&huart2, (uint8_t*)message, strlen(message), 100);
 1251              		.loc 1 287 0
 1252 0076 01AC     		add	r4, sp, #4
 1253 0078 0C4D     		ldr	r5, .L91+16
 1254 007a 0FCD     		ldmia	r5!, {r0, r1, r2, r3}
 1255 007c 0FC4     		stmia	r4!, {r0, r1, r2, r3}
 1256 007e 95E80300 		ldm	r5, {r0, r1}
 1257 0082 84E80300 		stm	r4, {r0, r1}
 288:Src/nRF24.c   ****   } else {
 1258              		.loc 1 288 0
 1259 0086 01A8     		add	r0, sp, #4
 1260 0088 FFF7FEFF 		bl	strlen
 1261              	.LVL116:
 1262 008c 6423     		movs	r3, #100
 1263 008e 82B2     		uxth	r2, r0
ARM GAS  /tmp/ccGoSq0J.s 			page 28


 1264 0090 01A9     		add	r1, sp, #4
 1265 0092 0448     		ldr	r0, .L91+8
 1266 0094 FFF7FEFF 		bl	HAL_UART_Transmit
 1267              	.LVL117:
 1268 0098 E1E7     		b	.L88
 1269              	.L92:
 1270 009a 00BF     		.align	2
 1271              	.L91:
 1272 009c 00000000 		.word	.LANCHOR0
 1273 00a0 00000000 		.word	.LC7
 1274 00a4 00000000 		.word	huart2
 1275 00a8 28000000 		.word	.LC9
 1276 00ac 10000000 		.word	.LC8
 1277              		.cfi_endproc
 1278              	.LFE151:
 1280              		.section	.rodata
 1281              		.align	2
 1282              		.set	.LANCHOR0,. + 0
 1283              	.LC0:
 1284 0000 DE       		.byte	-34
 1285 0001 AD       		.byte	-83
 1286 0002 BE       		.byte	-66
 1287 0003 EF       		.byte	-17
 1288              	.LC1:
 1289 0004 10       		.byte	16
 1290 0005 DE       		.byte	-34
 1291 0006 10       		.byte	16
 1292 0007 10       		.byte	16
 1293 0008 10       		.byte	16
 1294              		.section	.rodata.nRF24_keep_sending.str1.4,"aMS",%progbits,1
 1295              		.align	2
 1296              	.LC7:
 1297 0000 53746174 		.ascii	"Status is: %x\012\000"
 1297      75732069 
 1297      733A2025 
 1297      780A00
 1298 000f 00       		.space	1
 1299              	.LC8:
 1300 0010 6E524632 		.ascii	"nRF24 send successful.\012\000"
 1300      34207365 
 1300      6E642073 
 1300      75636365 
 1300      73736675 
 1301              	.LC9:
 1302 0028 6E524632 		.ascii	"nRF24 send failed.\012\000"
 1302      34207365 
 1302      6E642066 
 1302      61696C65 
 1302      642E0A00 
 1303              		.section	.rodata.nRF24_tx_self_test.str1.4,"aMS",%progbits,1
 1304              		.align	2
 1305              	.LC3:
 1306 0000 2D2D2D2D 		.ascii	"---- nrf24 tx self test. ----\012\000"
 1306      206E7266 
 1306      32342074 
 1306      78207365 
 1306      6C662074 
ARM GAS  /tmp/ccGoSq0J.s 			page 29


 1307 001f 00       		.space	1
 1308              	.LC4:
 1309 0020 2D2D2D2D 		.ascii	"---- This test to verifies function of a tranmitter"
 1309      20546869 
 1309      73207465 
 1309      73742074 
 1309      6F207665 
 1310 0053 2073656E 		.ascii	" send without a receiver. ----\012\000"
 1310      64207769 
 1310      74686F75 
 1310      74206120 
 1310      72656365 
 1311 0073 00       		.space	1
 1312              	.LC6:
 1313 0074 0A203E20 		.ascii	"\012 > nRF24 transmission self-test has failed. STA"
 1313      6E524632 
 1313      34207472 
 1313      616E736D 
 1313      69737369 
 1314 00a4 54555320 		.ascii	"TUS is expected 0x2E.\000"
 1314      69732065 
 1314      78706563 
 1314      74656420 
 1314      30783245 
 1315 00ba 0000     		.space	2
 1316              	.LC5:
 1317 00bc 0A203E20 		.ascii	"\012 > nRF24 transmission self-test has passed. STA"
 1317      6E524632 
 1317      34207472 
 1317      616E736D 
 1317      69737369 
 1318 00ec 54555320 		.ascii	"TUS has value of 0x2E, TX_DS (transfer data sent) w"
 1318      68617320 
 1318      76616C75 
 1318      65206F66 
 1318      20307832 
 1319 011f 61732073 		.ascii	"as set, RX_P_NO = 111, means RX FIFO Empty.\012\000"
 1319      65742C20 
 1319      52585F50 
 1319      5F4E4F20 
 1319      3D203131 
 1320              		.section	.rodata.spi_verified_write_register.str1.4,"aMS",%progbits,1
 1321              		.align	2
 1322              	.LC2:
 1323 0000 50726F62 		.ascii	"Problem writing to SPI register\000"
 1323      6C656D20 
 1323      77726974 
 1323      696E6720 
 1323      746F2053 
 1324              		.text
 1325              	.Letext0:
 1326              		.file 2 "/usr/include/newlib/machine/_default_types.h"
 1327              		.file 3 "/usr/include/newlib/sys/_stdint.h"
 1328              		.file 4 "Drivers/CMSIS/Include/core_cm4.h"
 1329              		.file 5 "Drivers/CMSIS/Device/ST/STM32F4xx/Include/system_stm32f4xx.h"
 1330              		.file 6 "Drivers/CMSIS/Device/ST/STM32F4xx/Include/stm32f401xe.h"
 1331              		.file 7 "Drivers/STM32F4xx_HAL_Driver/Inc/stm32f4xx_hal_def.h"
ARM GAS  /tmp/ccGoSq0J.s 			page 30


 1332              		.file 8 "Drivers/STM32F4xx_HAL_Driver/Inc/stm32f4xx_hal_gpio.h"
 1333              		.file 9 "Drivers/STM32F4xx_HAL_Driver/Inc/stm32f4xx_hal_dma.h"
 1334              		.file 10 "Drivers/STM32F4xx_HAL_Driver/Inc/stm32f4xx_hal_uart.h"
 1335              		.file 11 "Drivers/STM32F4xx_HAL_Driver/Inc/stm32f4xx_hal.h"
 1336              		.file 12 "/usr/include/newlib/sys/lock.h"
 1337              		.file 13 "/usr/include/newlib/sys/_types.h"
 1338              		.file 14 "/usr/lib/gcc/arm-none-eabi/6.3.1/include/stddef.h"
 1339              		.file 15 "/usr/include/newlib/sys/reent.h"
 1340              		.file 16 "Inc/nRF24.h"
 1341              		.file 17 "/usr/include/newlib/stdio.h"
 1342              		.file 18 "/usr/include/newlib/string.h"
ARM GAS  /tmp/ccGoSq0J.s 			page 31

