ARM GAS  /tmp/cclOLKrQ.s 			page 1


   1              		.cpu cortex-m4
   2              		.eabi_attribute 27, 1
   3              		.eabi_attribute 28, 1
   4              		.eabi_attribute 20, 1
   5              		.eabi_attribute 21, 1
   6              		.eabi_attribute 23, 3
   7              		.eabi_attribute 24, 1
   8              		.eabi_attribute 25, 1
   9              		.eabi_attribute 26, 1
  10              		.eabi_attribute 30, 1
  11              		.eabi_attribute 34, 1
  12              		.eabi_attribute 18, 4
  13              		.file	"usbd_core.c"
  14              		.text
  15              	.Ltext0:
  16              		.cfi_sections	.debug_frame
  17              		.section	.text.USBD_Init,"ax",%progbits
  18              		.align	1
  19              		.global	USBD_Init
  20              		.syntax unified
  21              		.thumb
  22              		.thumb_func
  23              		.fpu fpv4-sp-d16
  25              	USBD_Init:
  26              	.LFB132:
  27              		.file 1 "Middlewares/ST/STM32_USB_Device_Library/Core/Src/usbd_core.c"
   1:Middlewares/ST/STM32_USB_Device_Library/Core/Src/usbd_core.c **** /**
   2:Middlewares/ST/STM32_USB_Device_Library/Core/Src/usbd_core.c ****   ******************************************************************************
   3:Middlewares/ST/STM32_USB_Device_Library/Core/Src/usbd_core.c ****   * @file    usbd_core.c
   4:Middlewares/ST/STM32_USB_Device_Library/Core/Src/usbd_core.c ****   * @author  MCD Application Team
   5:Middlewares/ST/STM32_USB_Device_Library/Core/Src/usbd_core.c ****   * @brief   This file provides all the USBD core functions.
   6:Middlewares/ST/STM32_USB_Device_Library/Core/Src/usbd_core.c ****   ******************************************************************************
   7:Middlewares/ST/STM32_USB_Device_Library/Core/Src/usbd_core.c ****   * @attention
   8:Middlewares/ST/STM32_USB_Device_Library/Core/Src/usbd_core.c ****   *
   9:Middlewares/ST/STM32_USB_Device_Library/Core/Src/usbd_core.c ****   * Copyright (c) 2015 STMicroelectronics.
  10:Middlewares/ST/STM32_USB_Device_Library/Core/Src/usbd_core.c ****   * All rights reserved.
  11:Middlewares/ST/STM32_USB_Device_Library/Core/Src/usbd_core.c ****   *
  12:Middlewares/ST/STM32_USB_Device_Library/Core/Src/usbd_core.c ****   * This software is licensed under terms that can be found in the LICENSE file
  13:Middlewares/ST/STM32_USB_Device_Library/Core/Src/usbd_core.c ****   * in the root directory of this software component.
  14:Middlewares/ST/STM32_USB_Device_Library/Core/Src/usbd_core.c ****   * If no LICENSE file comes with this software, it is provided AS-IS.
  15:Middlewares/ST/STM32_USB_Device_Library/Core/Src/usbd_core.c ****   *
  16:Middlewares/ST/STM32_USB_Device_Library/Core/Src/usbd_core.c ****   ******************************************************************************
  17:Middlewares/ST/STM32_USB_Device_Library/Core/Src/usbd_core.c ****   */
  18:Middlewares/ST/STM32_USB_Device_Library/Core/Src/usbd_core.c **** 
  19:Middlewares/ST/STM32_USB_Device_Library/Core/Src/usbd_core.c **** /* Includes ------------------------------------------------------------------*/
  20:Middlewares/ST/STM32_USB_Device_Library/Core/Src/usbd_core.c **** #include "usbd_core.h"
  21:Middlewares/ST/STM32_USB_Device_Library/Core/Src/usbd_core.c **** 
  22:Middlewares/ST/STM32_USB_Device_Library/Core/Src/usbd_core.c **** /**
  23:Middlewares/ST/STM32_USB_Device_Library/Core/Src/usbd_core.c ****   * @brief  USBD_Init
  24:Middlewares/ST/STM32_USB_Device_Library/Core/Src/usbd_core.c ****   *         Initializes the device stack and load the class driver
  25:Middlewares/ST/STM32_USB_Device_Library/Core/Src/usbd_core.c ****   * @param  pdev: device instance
  26:Middlewares/ST/STM32_USB_Device_Library/Core/Src/usbd_core.c ****   * @param  pdesc: Descriptor structure address
  27:Middlewares/ST/STM32_USB_Device_Library/Core/Src/usbd_core.c ****   * @param  id: Low level core index
  28:Middlewares/ST/STM32_USB_Device_Library/Core/Src/usbd_core.c ****   * @retval None
  29:Middlewares/ST/STM32_USB_Device_Library/Core/Src/usbd_core.c ****   */
  30:Middlewares/ST/STM32_USB_Device_Library/Core/Src/usbd_core.c **** USBD_StatusTypeDef USBD_Init(USBD_HandleTypeDef *pdev,
  31:Middlewares/ST/STM32_USB_Device_Library/Core/Src/usbd_core.c ****                              USBD_DescriptorsTypeDef *pdesc, uint8_t id)
ARM GAS  /tmp/cclOLKrQ.s 			page 2


  32:Middlewares/ST/STM32_USB_Device_Library/Core/Src/usbd_core.c **** {
  28              		.loc 1 32 0
  29              		.cfi_startproc
  30              		@ args = 0, pretend = 0, frame = 0
  31              		@ frame_needed = 0, uses_anonymous_args = 0
  32              	.LVL0:
  33:Middlewares/ST/STM32_USB_Device_Library/Core/Src/usbd_core.c ****   USBD_StatusTypeDef ret;
  34:Middlewares/ST/STM32_USB_Device_Library/Core/Src/usbd_core.c ****   /* Check whether the USB Host handle is valid */
  35:Middlewares/ST/STM32_USB_Device_Library/Core/Src/usbd_core.c ****   if (pdev == NULL)
  33              		.loc 1 35 0
  34 0000 98B1     		cbz	r0, .L4
  32:Middlewares/ST/STM32_USB_Device_Library/Core/Src/usbd_core.c ****   USBD_StatusTypeDef ret;
  35              		.loc 1 32 0
  36 0002 08B5     		push	{r3, lr}
  37              	.LCFI0:
  38              		.cfi_def_cfa_offset 8
  39              		.cfi_offset 3, -8
  40              		.cfi_offset 14, -4
  41 0004 0346     		mov	r3, r0
  36:Middlewares/ST/STM32_USB_Device_Library/Core/Src/usbd_core.c ****   {
  37:Middlewares/ST/STM32_USB_Device_Library/Core/Src/usbd_core.c ****     return USBD_FAIL;
  38:Middlewares/ST/STM32_USB_Device_Library/Core/Src/usbd_core.c ****   }
  39:Middlewares/ST/STM32_USB_Device_Library/Core/Src/usbd_core.c ****   /* Unlink previous class*/
  40:Middlewares/ST/STM32_USB_Device_Library/Core/Src/usbd_core.c ****   pdev->pClass[0] = NULL;
  42              		.loc 1 40 0
  43 0006 0020     		movs	r0, #0
  44              	.LVL1:
  45 0008 C3F8B802 		str	r0, [r3, #696]
  41:Middlewares/ST/STM32_USB_Device_Library/Core/Src/usbd_core.c ****   pdev->pUserData[0] = NULL;
  46              		.loc 1 41 0
  47 000c C3F8C402 		str	r0, [r3, #708]
  42:Middlewares/ST/STM32_USB_Device_Library/Core/Src/usbd_core.c ****   pdev->pConfDesc = NULL;
  48              		.loc 1 42 0
  49 0010 C3F8D002 		str	r0, [r3, #720]
  43:Middlewares/ST/STM32_USB_Device_Library/Core/Src/usbd_core.c **** 
  44:Middlewares/ST/STM32_USB_Device_Library/Core/Src/usbd_core.c ****   /* Assign USBD Descriptors */
  45:Middlewares/ST/STM32_USB_Device_Library/Core/Src/usbd_core.c ****   if (pdesc != NULL)
  50              		.loc 1 45 0
  51 0014 09B1     		cbz	r1, .L3
  46:Middlewares/ST/STM32_USB_Device_Library/Core/Src/usbd_core.c ****   {
  47:Middlewares/ST/STM32_USB_Device_Library/Core/Src/usbd_core.c ****     pdev->pDesc = pdesc;
  52              		.loc 1 47 0
  53 0016 C3F8B412 		str	r1, [r3, #692]
  54              	.L3:
  55 001a 1846     		mov	r0, r3
  48:Middlewares/ST/STM32_USB_Device_Library/Core/Src/usbd_core.c ****   }
  49:Middlewares/ST/STM32_USB_Device_Library/Core/Src/usbd_core.c ****   /* Set Device initial State */
  50:Middlewares/ST/STM32_USB_Device_Library/Core/Src/usbd_core.c ****   pdev->dev_state = USBD_STATE_DEFAULT;  // DEFAULT - ADDRESSED - CONFIGURED - SUSPEND
  56              		.loc 1 50 0
  57 001c 0123     		movs	r3, #1
  58              	.LVL2:
  59 001e 80F89C32 		strb	r3, [r0, #668]
  51:Middlewares/ST/STM32_USB_Device_Library/Core/Src/usbd_core.c ****   pdev->id = id; // DEVICE_FS (0)
  60              		.loc 1 51 0
  61 0022 0270     		strb	r2, [r0]
  52:Middlewares/ST/STM32_USB_Device_Library/Core/Src/usbd_core.c ****   /* Initialize low level driver */
  53:Middlewares/ST/STM32_USB_Device_Library/Core/Src/usbd_core.c ****   ret = USBD_LL_Init(pdev); // configure the TX or the RX FIFO of the new defined endport
ARM GAS  /tmp/cclOLKrQ.s 			page 3


  62              		.loc 1 53 0
  63 0024 FFF7FEFF 		bl	USBD_LL_Init
  64              	.LVL3:
  54:Middlewares/ST/STM32_USB_Device_Library/Core/Src/usbd_core.c **** 
  55:Middlewares/ST/STM32_USB_Device_Library/Core/Src/usbd_core.c ****   return ret;
  65              		.loc 1 55 0
  66 0028 08BD     		pop	{r3, pc}
  67              	.LVL4:
  68              	.L4:
  69              	.LCFI1:
  70              		.cfi_def_cfa_offset 0
  71              		.cfi_restore 3
  72              		.cfi_restore 14
  37:Middlewares/ST/STM32_USB_Device_Library/Core/Src/usbd_core.c ****   }
  73              		.loc 1 37 0
  74 002a 0320     		movs	r0, #3
  75              	.LVL5:
  76 002c 7047     		bx	lr
  77              		.cfi_endproc
  78              	.LFE132:
  80              		.section	.text.USBD_DeInit,"ax",%progbits
  81              		.align	1
  82              		.global	USBD_DeInit
  83              		.syntax unified
  84              		.thumb
  85              		.thumb_func
  86              		.fpu fpv4-sp-d16
  88              	USBD_DeInit:
  89              	.LFB133:
  56:Middlewares/ST/STM32_USB_Device_Library/Core/Src/usbd_core.c **** }
  57:Middlewares/ST/STM32_USB_Device_Library/Core/Src/usbd_core.c **** 
  58:Middlewares/ST/STM32_USB_Device_Library/Core/Src/usbd_core.c **** /**
  59:Middlewares/ST/STM32_USB_Device_Library/Core/Src/usbd_core.c ****   * @brief  USBD_DeInit
  60:Middlewares/ST/STM32_USB_Device_Library/Core/Src/usbd_core.c ****   *         Re-Initialize the device library
  61:Middlewares/ST/STM32_USB_Device_Library/Core/Src/usbd_core.c ****   * @param  pdev: device instance
  62:Middlewares/ST/STM32_USB_Device_Library/Core/Src/usbd_core.c ****   * @retval status: status
  63:Middlewares/ST/STM32_USB_Device_Library/Core/Src/usbd_core.c ****   */
  64:Middlewares/ST/STM32_USB_Device_Library/Core/Src/usbd_core.c **** USBD_StatusTypeDef USBD_DeInit(USBD_HandleTypeDef *pdev)
  65:Middlewares/ST/STM32_USB_Device_Library/Core/Src/usbd_core.c **** {
  90              		.loc 1 65 0
  91              		.cfi_startproc
  92              		@ args = 0, pretend = 0, frame = 0
  93              		@ frame_needed = 0, uses_anonymous_args = 0
  94              	.LVL6:
  95 0000 10B5     		push	{r4, lr}
  96              	.LCFI2:
  97              		.cfi_def_cfa_offset 8
  98              		.cfi_offset 4, -8
  99              		.cfi_offset 14, -4
 100 0002 0446     		mov	r4, r0
  66:Middlewares/ST/STM32_USB_Device_Library/Core/Src/usbd_core.c ****   USBD_StatusTypeDef ret;
  67:Middlewares/ST/STM32_USB_Device_Library/Core/Src/usbd_core.c **** 
  68:Middlewares/ST/STM32_USB_Device_Library/Core/Src/usbd_core.c ****   /* Disconnect the USB Device */
  69:Middlewares/ST/STM32_USB_Device_Library/Core/Src/usbd_core.c ****   (void)USBD_LL_Stop(pdev);
 101              		.loc 1 69 0
 102 0004 FFF7FEFF 		bl	USBD_LL_Stop
 103              	.LVL7:
ARM GAS  /tmp/cclOLKrQ.s 			page 4


  70:Middlewares/ST/STM32_USB_Device_Library/Core/Src/usbd_core.c **** 
  71:Middlewares/ST/STM32_USB_Device_Library/Core/Src/usbd_core.c ****   /* Set Default State */
  72:Middlewares/ST/STM32_USB_Device_Library/Core/Src/usbd_core.c ****   pdev->dev_state = USBD_STATE_DEFAULT;
 104              		.loc 1 72 0
 105 0008 0123     		movs	r3, #1
 106 000a 84F89C32 		strb	r3, [r4, #668]
  73:Middlewares/ST/STM32_USB_Device_Library/Core/Src/usbd_core.c **** 
  74:Middlewares/ST/STM32_USB_Device_Library/Core/Src/usbd_core.c ****   /* Free Class Resources */
  75:Middlewares/ST/STM32_USB_Device_Library/Core/Src/usbd_core.c ****   if (pdev->pClass[0] != NULL)
 107              		.loc 1 75 0
 108 000e D4F8B832 		ldr	r3, [r4, #696]
 109 0012 1BB1     		cbz	r3, .L10
  76:Middlewares/ST/STM32_USB_Device_Library/Core/Src/usbd_core.c ****   {
  77:Middlewares/ST/STM32_USB_Device_Library/Core/Src/usbd_core.c ****     pdev->pClass[0]->DeInit(pdev, (uint8_t)pdev->dev_config);
 110              		.loc 1 77 0
 111 0014 5B68     		ldr	r3, [r3, #4]
 112 0016 2179     		ldrb	r1, [r4, #4]	@ zero_extendqisi2
 113 0018 2046     		mov	r0, r4
 114 001a 9847     		blx	r3
 115              	.LVL8:
 116              	.L10:
  78:Middlewares/ST/STM32_USB_Device_Library/Core/Src/usbd_core.c ****   }
  79:Middlewares/ST/STM32_USB_Device_Library/Core/Src/usbd_core.c **** 
  80:Middlewares/ST/STM32_USB_Device_Library/Core/Src/usbd_core.c ****   pdev->pUserData[0] = NULL;
 117              		.loc 1 80 0
 118 001c 0023     		movs	r3, #0
 119 001e C4F8C432 		str	r3, [r4, #708]
  81:Middlewares/ST/STM32_USB_Device_Library/Core/Src/usbd_core.c **** 
  82:Middlewares/ST/STM32_USB_Device_Library/Core/Src/usbd_core.c ****   /* Free Device descriptors resources */
  83:Middlewares/ST/STM32_USB_Device_Library/Core/Src/usbd_core.c ****   pdev->pDesc = NULL;
 120              		.loc 1 83 0
 121 0022 C4F8B432 		str	r3, [r4, #692]
  84:Middlewares/ST/STM32_USB_Device_Library/Core/Src/usbd_core.c ****   pdev->pConfDesc = NULL;
 122              		.loc 1 84 0
 123 0026 C4F8D032 		str	r3, [r4, #720]
  85:Middlewares/ST/STM32_USB_Device_Library/Core/Src/usbd_core.c **** 
  86:Middlewares/ST/STM32_USB_Device_Library/Core/Src/usbd_core.c ****   /* DeInitialize low level driver */
  87:Middlewares/ST/STM32_USB_Device_Library/Core/Src/usbd_core.c ****   ret = USBD_LL_DeInit(pdev);
 124              		.loc 1 87 0
 125 002a 2046     		mov	r0, r4
 126 002c FFF7FEFF 		bl	USBD_LL_DeInit
 127              	.LVL9:
  88:Middlewares/ST/STM32_USB_Device_Library/Core/Src/usbd_core.c **** 
  89:Middlewares/ST/STM32_USB_Device_Library/Core/Src/usbd_core.c ****   return ret;
  90:Middlewares/ST/STM32_USB_Device_Library/Core/Src/usbd_core.c **** }
 128              		.loc 1 90 0
 129 0030 10BD     		pop	{r4, pc}
 130              		.cfi_endproc
 131              	.LFE133:
 133              		.section	.text.USBD_RegisterClass,"ax",%progbits
 134              		.align	1
 135              		.global	USBD_RegisterClass
 136              		.syntax unified
 137              		.thumb
 138              		.thumb_func
 139              		.fpu fpv4-sp-d16
 141              	USBD_RegisterClass:
ARM GAS  /tmp/cclOLKrQ.s 			page 5


 142              	.LFB134:
  91:Middlewares/ST/STM32_USB_Device_Library/Core/Src/usbd_core.c **** 
  92:Middlewares/ST/STM32_USB_Device_Library/Core/Src/usbd_core.c **** /**
  93:Middlewares/ST/STM32_USB_Device_Library/Core/Src/usbd_core.c ****   * @brief  USBD_RegisterClass
  94:Middlewares/ST/STM32_USB_Device_Library/Core/Src/usbd_core.c ****   *         Link class driver to Device Core.
  95:Middlewares/ST/STM32_USB_Device_Library/Core/Src/usbd_core.c ****   * @param  pDevice : Device Handle
  96:Middlewares/ST/STM32_USB_Device_Library/Core/Src/usbd_core.c ****   * @param  pclass: Class handle
  97:Middlewares/ST/STM32_USB_Device_Library/Core/Src/usbd_core.c ****   * @retval USBD Status
  98:Middlewares/ST/STM32_USB_Device_Library/Core/Src/usbd_core.c ****   */
  99:Middlewares/ST/STM32_USB_Device_Library/Core/Src/usbd_core.c **** USBD_StatusTypeDef USBD_RegisterClass(USBD_HandleTypeDef *pdev, USBD_ClassTypeDef *pclass)
 100:Middlewares/ST/STM32_USB_Device_Library/Core/Src/usbd_core.c **** {
 143              		.loc 1 100 0
 144              		.cfi_startproc
 145              		@ args = 0, pretend = 0, frame = 8
 146              		@ frame_needed = 0, uses_anonymous_args = 0
 147              	.LVL10:
 148 0000 10B5     		push	{r4, lr}
 149              	.LCFI3:
 150              		.cfi_def_cfa_offset 8
 151              		.cfi_offset 4, -8
 152              		.cfi_offset 14, -4
 153 0002 82B0     		sub	sp, sp, #8
 154              	.LCFI4:
 155              		.cfi_def_cfa_offset 16
 101:Middlewares/ST/STM32_USB_Device_Library/Core/Src/usbd_core.c ****   uint16_t len = 0U;
 156              		.loc 1 101 0
 157 0004 0023     		movs	r3, #0
 158 0006 ADF80630 		strh	r3, [sp, #6]	@ movhi
 102:Middlewares/ST/STM32_USB_Device_Library/Core/Src/usbd_core.c **** 
 103:Middlewares/ST/STM32_USB_Device_Library/Core/Src/usbd_core.c ****   if (pclass == NULL)
 159              		.loc 1 103 0
 160 000a B1B1     		cbz	r1, .L15
 161 000c 0446     		mov	r4, r0
 104:Middlewares/ST/STM32_USB_Device_Library/Core/Src/usbd_core.c ****   {
 105:Middlewares/ST/STM32_USB_Device_Library/Core/Src/usbd_core.c ****     return USBD_FAIL;
 106:Middlewares/ST/STM32_USB_Device_Library/Core/Src/usbd_core.c ****   }
 107:Middlewares/ST/STM32_USB_Device_Library/Core/Src/usbd_core.c ****   /* link the class to the USB Device handle */
 108:Middlewares/ST/STM32_USB_Device_Library/Core/Src/usbd_core.c ****   pdev->pClass[0] = pclass;
 162              		.loc 1 108 0
 163 000e C4F8B812 		str	r1, [r4, #696]
 109:Middlewares/ST/STM32_USB_Device_Library/Core/Src/usbd_core.c **** 
 110:Middlewares/ST/STM32_USB_Device_Library/Core/Src/usbd_core.c ****   /* Get Device Configuration Descriptor */
 111:Middlewares/ST/STM32_USB_Device_Library/Core/Src/usbd_core.c ****   if (pdev->pClass[pdev->classId]->GetFSConfigDescriptor != NULL)
 164              		.loc 1 111 0
 165 0012 D0F8D432 		ldr	r3, [r0, #724]
 166 0016 AE33     		adds	r3, r3, #174
 167 0018 50F82330 		ldr	r3, [r0, r3, lsl #2]
 168 001c DB6A     		ldr	r3, [r3, #44]
 169 001e 23B1     		cbz	r3, .L14
 112:Middlewares/ST/STM32_USB_Device_Library/Core/Src/usbd_core.c ****   {
 113:Middlewares/ST/STM32_USB_Device_Library/Core/Src/usbd_core.c ****     pdev->pConfDesc = (void *)pdev->pClass[pdev->classId]->GetFSConfigDescriptor(&len);
 170              		.loc 1 113 0
 171 0020 0DF10600 		add	r0, sp, #6
 172              	.LVL11:
 173 0024 9847     		blx	r3
 174              	.LVL12:
 175 0026 C4F8D002 		str	r0, [r4, #720]
ARM GAS  /tmp/cclOLKrQ.s 			page 6


 176              	.L14:
 114:Middlewares/ST/STM32_USB_Device_Library/Core/Src/usbd_core.c ****   }
 115:Middlewares/ST/STM32_USB_Device_Library/Core/Src/usbd_core.c ****   /* Increment the NumClasses */
 116:Middlewares/ST/STM32_USB_Device_Library/Core/Src/usbd_core.c ****   pdev->NumClasses ++;
 177              		.loc 1 116 0
 178 002a D4F8D832 		ldr	r3, [r4, #728]
 179 002e 0133     		adds	r3, r3, #1
 180 0030 C4F8D832 		str	r3, [r4, #728]
 117:Middlewares/ST/STM32_USB_Device_Library/Core/Src/usbd_core.c ****   return USBD_OK;
 181              		.loc 1 117 0
 182 0034 0020     		movs	r0, #0
 183              	.LVL13:
 184              	.L13:
 118:Middlewares/ST/STM32_USB_Device_Library/Core/Src/usbd_core.c **** }
 185              		.loc 1 118 0
 186 0036 02B0     		add	sp, sp, #8
 187              	.LCFI5:
 188              		.cfi_remember_state
 189              		.cfi_def_cfa_offset 8
 190              		@ sp needed
 191 0038 10BD     		pop	{r4, pc}
 192              	.LVL14:
 193              	.L15:
 194              	.LCFI6:
 195              		.cfi_restore_state
 105:Middlewares/ST/STM32_USB_Device_Library/Core/Src/usbd_core.c ****   }
 196              		.loc 1 105 0
 197 003a 0320     		movs	r0, #3
 198              	.LVL15:
 199 003c FBE7     		b	.L13
 200              		.cfi_endproc
 201              	.LFE134:
 203              		.section	.text.USBD_Start,"ax",%progbits
 204              		.align	1
 205              		.global	USBD_Start
 206              		.syntax unified
 207              		.thumb
 208              		.thumb_func
 209              		.fpu fpv4-sp-d16
 211              	USBD_Start:
 212              	.LFB135:
 119:Middlewares/ST/STM32_USB_Device_Library/Core/Src/usbd_core.c **** 
 120:Middlewares/ST/STM32_USB_Device_Library/Core/Src/usbd_core.c **** 
 121:Middlewares/ST/STM32_USB_Device_Library/Core/Src/usbd_core.c **** /**
 122:Middlewares/ST/STM32_USB_Device_Library/Core/Src/usbd_core.c ****   * @brief  USBD_Start
 123:Middlewares/ST/STM32_USB_Device_Library/Core/Src/usbd_core.c ****   *         Start the USB Device Core.
 124:Middlewares/ST/STM32_USB_Device_Library/Core/Src/usbd_core.c ****   * @param  pdev: Device Handle
 125:Middlewares/ST/STM32_USB_Device_Library/Core/Src/usbd_core.c ****   * @retval USBD Status
 126:Middlewares/ST/STM32_USB_Device_Library/Core/Src/usbd_core.c ****   */
 127:Middlewares/ST/STM32_USB_Device_Library/Core/Src/usbd_core.c **** USBD_StatusTypeDef USBD_Start(USBD_HandleTypeDef *pdev)
 128:Middlewares/ST/STM32_USB_Device_Library/Core/Src/usbd_core.c **** {
 213              		.loc 1 128 0
 214              		.cfi_startproc
 215              		@ args = 0, pretend = 0, frame = 0
 216              		@ frame_needed = 0, uses_anonymous_args = 0
 217              	.LVL16:
 218 0000 08B5     		push	{r3, lr}
ARM GAS  /tmp/cclOLKrQ.s 			page 7


 219              	.LCFI7:
 220              		.cfi_def_cfa_offset 8
 221              		.cfi_offset 3, -8
 222              		.cfi_offset 14, -4
 223              	.LVL17:
 129:Middlewares/ST/STM32_USB_Device_Library/Core/Src/usbd_core.c ****   /* Start the low level driver  */
 130:Middlewares/ST/STM32_USB_Device_Library/Core/Src/usbd_core.c ****   // return USBD_LL_Start(pdev);
 131:Middlewares/ST/STM32_USB_Device_Library/Core/Src/usbd_core.c **** 
 132:Middlewares/ST/STM32_USB_Device_Library/Core/Src/usbd_core.c ****   #include "usbd_def.h" /* defines USBD_StatusTypeDef */
 133:Middlewares/ST/STM32_USB_Device_Library/Core/Src/usbd_core.c ****   HAL_StatusTypeDef hal_status = HAL_OK;
 134:Middlewares/ST/STM32_USB_Device_Library/Core/Src/usbd_core.c ****   USBD_StatusTypeDef usb_status = USBD_OK;
 135:Middlewares/ST/STM32_USB_Device_Library/Core/Src/usbd_core.c **** 
 136:Middlewares/ST/STM32_USB_Device_Library/Core/Src/usbd_core.c ****   /* Enable USB Transciver */
 137:Middlewares/ST/STM32_USB_Device_Library/Core/Src/usbd_core.c ****   hal_status = HAL_PCD_Start(pdev->pData);
 224              		.loc 1 137 0
 225 0002 D0F8C802 		ldr	r0, [r0, #712]
 226              	.LVL18:
 227 0006 FFF7FEFF 		bl	HAL_PCD_Start
 228              	.LVL19:
 138:Middlewares/ST/STM32_USB_Device_Library/Core/Src/usbd_core.c **** 
 139:Middlewares/ST/STM32_USB_Device_Library/Core/Src/usbd_core.c ****   // usb_status =  USBD_Get_USB_Status(hal_status); /* defined in usbd_conf.c */
 140:Middlewares/ST/STM32_USB_Device_Library/Core/Src/usbd_core.c ****   switch (hal_status)
 229              		.loc 1 140 0
 230 000a 18B1     		cbz	r0, .L19
 231 000c 0228     		cmp	r0, #2
 232 000e 03D0     		beq	.L20
 141:Middlewares/ST/STM32_USB_Device_Library/Core/Src/usbd_core.c ****   {
 142:Middlewares/ST/STM32_USB_Device_Library/Core/Src/usbd_core.c ****     case HAL_OK :
 143:Middlewares/ST/STM32_USB_Device_Library/Core/Src/usbd_core.c ****       usb_status = USBD_OK;
 144:Middlewares/ST/STM32_USB_Device_Library/Core/Src/usbd_core.c ****     break;
 145:Middlewares/ST/STM32_USB_Device_Library/Core/Src/usbd_core.c ****     case HAL_ERROR :
 146:Middlewares/ST/STM32_USB_Device_Library/Core/Src/usbd_core.c ****       usb_status = USBD_FAIL;
 233              		.loc 1 146 0
 234 0010 0320     		movs	r0, #3
 235              	.LVL20:
 147:Middlewares/ST/STM32_USB_Device_Library/Core/Src/usbd_core.c ****     break;
 148:Middlewares/ST/STM32_USB_Device_Library/Core/Src/usbd_core.c ****     case HAL_BUSY :
 149:Middlewares/ST/STM32_USB_Device_Library/Core/Src/usbd_core.c ****       usb_status = USBD_BUSY;
 150:Middlewares/ST/STM32_USB_Device_Library/Core/Src/usbd_core.c ****     break;
 151:Middlewares/ST/STM32_USB_Device_Library/Core/Src/usbd_core.c ****     case HAL_TIMEOUT :
 152:Middlewares/ST/STM32_USB_Device_Library/Core/Src/usbd_core.c ****       usb_status = USBD_FAIL;
 153:Middlewares/ST/STM32_USB_Device_Library/Core/Src/usbd_core.c ****     break;
 154:Middlewares/ST/STM32_USB_Device_Library/Core/Src/usbd_core.c ****     default :
 155:Middlewares/ST/STM32_USB_Device_Library/Core/Src/usbd_core.c ****       usb_status = USBD_FAIL;
 156:Middlewares/ST/STM32_USB_Device_Library/Core/Src/usbd_core.c ****     break;
 157:Middlewares/ST/STM32_USB_Device_Library/Core/Src/usbd_core.c ****   }
 158:Middlewares/ST/STM32_USB_Device_Library/Core/Src/usbd_core.c **** 
 159:Middlewares/ST/STM32_USB_Device_Library/Core/Src/usbd_core.c ****   return usb_status;
 160:Middlewares/ST/STM32_USB_Device_Library/Core/Src/usbd_core.c **** }
 236              		.loc 1 160 0
 237 0012 08BD     		pop	{r3, pc}
 238              	.LVL21:
 239              	.L19:
 143:Middlewares/ST/STM32_USB_Device_Library/Core/Src/usbd_core.c ****     break;
 240              		.loc 1 143 0
 241 0014 0020     		movs	r0, #0
 242              	.LVL22:
ARM GAS  /tmp/cclOLKrQ.s 			page 8


 243 0016 08BD     		pop	{r3, pc}
 244              	.LVL23:
 245              	.L20:
 149:Middlewares/ST/STM32_USB_Device_Library/Core/Src/usbd_core.c ****     break;
 246              		.loc 1 149 0
 247 0018 0120     		movs	r0, #1
 248              	.LVL24:
 150:Middlewares/ST/STM32_USB_Device_Library/Core/Src/usbd_core.c ****     case HAL_TIMEOUT :
 249              		.loc 1 150 0
 250 001a 08BD     		pop	{r3, pc}
 251              		.cfi_endproc
 252              	.LFE135:
 254              		.section	.text.USBD_Stop,"ax",%progbits
 255              		.align	1
 256              		.global	USBD_Stop
 257              		.syntax unified
 258              		.thumb
 259              		.thumb_func
 260              		.fpu fpv4-sp-d16
 262              	USBD_Stop:
 263              	.LFB136:
 161:Middlewares/ST/STM32_USB_Device_Library/Core/Src/usbd_core.c **** 
 162:Middlewares/ST/STM32_USB_Device_Library/Core/Src/usbd_core.c **** 
 163:Middlewares/ST/STM32_USB_Device_Library/Core/Src/usbd_core.c **** /**
 164:Middlewares/ST/STM32_USB_Device_Library/Core/Src/usbd_core.c ****   * @brief  USBD_Stop
 165:Middlewares/ST/STM32_USB_Device_Library/Core/Src/usbd_core.c ****   *         Stop the USB Device Core.
 166:Middlewares/ST/STM32_USB_Device_Library/Core/Src/usbd_core.c ****   * @param  pdev: Device Handle
 167:Middlewares/ST/STM32_USB_Device_Library/Core/Src/usbd_core.c ****   * @retval USBD Status
 168:Middlewares/ST/STM32_USB_Device_Library/Core/Src/usbd_core.c ****   */
 169:Middlewares/ST/STM32_USB_Device_Library/Core/Src/usbd_core.c **** USBD_StatusTypeDef USBD_Stop(USBD_HandleTypeDef *pdev)
 170:Middlewares/ST/STM32_USB_Device_Library/Core/Src/usbd_core.c **** {
 264              		.loc 1 170 0
 265              		.cfi_startproc
 266              		@ args = 0, pretend = 0, frame = 0
 267              		@ frame_needed = 0, uses_anonymous_args = 0
 268              	.LVL25:
 269 0000 10B5     		push	{r4, lr}
 270              	.LCFI8:
 271              		.cfi_def_cfa_offset 8
 272              		.cfi_offset 4, -8
 273              		.cfi_offset 14, -4
 274 0002 0446     		mov	r4, r0
 171:Middlewares/ST/STM32_USB_Device_Library/Core/Src/usbd_core.c ****   /* Disconnect USB Device */
 172:Middlewares/ST/STM32_USB_Device_Library/Core/Src/usbd_core.c ****   (void)USBD_LL_Stop(pdev);
 275              		.loc 1 172 0
 276 0004 FFF7FEFF 		bl	USBD_LL_Stop
 277              	.LVL26:
 173:Middlewares/ST/STM32_USB_Device_Library/Core/Src/usbd_core.c **** 
 174:Middlewares/ST/STM32_USB_Device_Library/Core/Src/usbd_core.c ****   /* Free Class Resources */
 175:Middlewares/ST/STM32_USB_Device_Library/Core/Src/usbd_core.c ****   if (pdev->pClass[0] != NULL)
 278              		.loc 1 175 0
 279 0008 D4F8B832 		ldr	r3, [r4, #696]
 280 000c 1BB1     		cbz	r3, .L25
 176:Middlewares/ST/STM32_USB_Device_Library/Core/Src/usbd_core.c ****   {
 177:Middlewares/ST/STM32_USB_Device_Library/Core/Src/usbd_core.c ****     (void)pdev->pClass[0]->DeInit(pdev, (uint8_t)pdev->dev_config);
 281              		.loc 1 177 0
 282 000e 5B68     		ldr	r3, [r3, #4]
ARM GAS  /tmp/cclOLKrQ.s 			page 9


 283 0010 2179     		ldrb	r1, [r4, #4]	@ zero_extendqisi2
 284 0012 2046     		mov	r0, r4
 285 0014 9847     		blx	r3
 286              	.LVL27:
 287              	.L25:
 178:Middlewares/ST/STM32_USB_Device_Library/Core/Src/usbd_core.c ****   }
 179:Middlewares/ST/STM32_USB_Device_Library/Core/Src/usbd_core.c **** 
 180:Middlewares/ST/STM32_USB_Device_Library/Core/Src/usbd_core.c ****   return USBD_OK;
 181:Middlewares/ST/STM32_USB_Device_Library/Core/Src/usbd_core.c **** }
 288              		.loc 1 181 0
 289 0016 0020     		movs	r0, #0
 290 0018 10BD     		pop	{r4, pc}
 291              		.cfi_endproc
 292              	.LFE136:
 294              		.section	.text.USBD_RunTestMode,"ax",%progbits
 295              		.align	1
 296              		.global	USBD_RunTestMode
 297              		.syntax unified
 298              		.thumb
 299              		.thumb_func
 300              		.fpu fpv4-sp-d16
 302              	USBD_RunTestMode:
 303              	.LFB137:
 182:Middlewares/ST/STM32_USB_Device_Library/Core/Src/usbd_core.c **** 
 183:Middlewares/ST/STM32_USB_Device_Library/Core/Src/usbd_core.c **** /**
 184:Middlewares/ST/STM32_USB_Device_Library/Core/Src/usbd_core.c ****   * @brief  USBD_RunTestMode
 185:Middlewares/ST/STM32_USB_Device_Library/Core/Src/usbd_core.c ****   *         Launch test mode process
 186:Middlewares/ST/STM32_USB_Device_Library/Core/Src/usbd_core.c ****   * @param  pdev: device instance
 187:Middlewares/ST/STM32_USB_Device_Library/Core/Src/usbd_core.c ****   * @retval status
 188:Middlewares/ST/STM32_USB_Device_Library/Core/Src/usbd_core.c ****   */
 189:Middlewares/ST/STM32_USB_Device_Library/Core/Src/usbd_core.c **** USBD_StatusTypeDef USBD_RunTestMode(USBD_HandleTypeDef *pdev)
 190:Middlewares/ST/STM32_USB_Device_Library/Core/Src/usbd_core.c **** {
 304              		.loc 1 190 0
 305              		.cfi_startproc
 306              		@ args = 0, pretend = 0, frame = 0
 307              		@ frame_needed = 0, uses_anonymous_args = 0
 308              		@ link register save eliminated.
 309              	.LVL28:
 191:Middlewares/ST/STM32_USB_Device_Library/Core/Src/usbd_core.c ****   /* Prevent unused argument compilation warning */
 192:Middlewares/ST/STM32_USB_Device_Library/Core/Src/usbd_core.c ****   UNUSED(pdev);
 193:Middlewares/ST/STM32_USB_Device_Library/Core/Src/usbd_core.c **** 
 194:Middlewares/ST/STM32_USB_Device_Library/Core/Src/usbd_core.c ****   return USBD_OK;
 195:Middlewares/ST/STM32_USB_Device_Library/Core/Src/usbd_core.c **** }
 310              		.loc 1 195 0
 311 0000 0020     		movs	r0, #0
 312              	.LVL29:
 313 0002 7047     		bx	lr
 314              		.cfi_endproc
 315              	.LFE137:
 317              		.section	.text.USBD_SetClassConfig,"ax",%progbits
 318              		.align	1
 319              		.global	USBD_SetClassConfig
 320              		.syntax unified
 321              		.thumb
 322              		.thumb_func
 323              		.fpu fpv4-sp-d16
 325              	USBD_SetClassConfig:
ARM GAS  /tmp/cclOLKrQ.s 			page 10


 326              	.LFB138:
 196:Middlewares/ST/STM32_USB_Device_Library/Core/Src/usbd_core.c **** 
 197:Middlewares/ST/STM32_USB_Device_Library/Core/Src/usbd_core.c **** /**
 198:Middlewares/ST/STM32_USB_Device_Library/Core/Src/usbd_core.c ****   * @brief  USBD_SetClassConfig
 199:Middlewares/ST/STM32_USB_Device_Library/Core/Src/usbd_core.c ****   *        Configure device and start the interface
 200:Middlewares/ST/STM32_USB_Device_Library/Core/Src/usbd_core.c ****   * @param  pdev: device instance
 201:Middlewares/ST/STM32_USB_Device_Library/Core/Src/usbd_core.c ****   * @param  cfgidx: configuration index
 202:Middlewares/ST/STM32_USB_Device_Library/Core/Src/usbd_core.c ****   * @retval status
 203:Middlewares/ST/STM32_USB_Device_Library/Core/Src/usbd_core.c ****   */
 204:Middlewares/ST/STM32_USB_Device_Library/Core/Src/usbd_core.c **** 
 205:Middlewares/ST/STM32_USB_Device_Library/Core/Src/usbd_core.c **** USBD_StatusTypeDef USBD_SetClassConfig(USBD_HandleTypeDef *pdev, uint8_t cfgidx)
 206:Middlewares/ST/STM32_USB_Device_Library/Core/Src/usbd_core.c **** {
 327              		.loc 1 206 0
 328              		.cfi_startproc
 329              		@ args = 0, pretend = 0, frame = 0
 330              		@ frame_needed = 0, uses_anonymous_args = 0
 331              	.LVL30:
 332 0000 08B5     		push	{r3, lr}
 333              	.LCFI9:
 334              		.cfi_def_cfa_offset 8
 335              		.cfi_offset 3, -8
 336              		.cfi_offset 14, -4
 337              	.LVL31:
 207:Middlewares/ST/STM32_USB_Device_Library/Core/Src/usbd_core.c ****   USBD_StatusTypeDef ret = USBD_OK;
 208:Middlewares/ST/STM32_USB_Device_Library/Core/Src/usbd_core.c **** 
 209:Middlewares/ST/STM32_USB_Device_Library/Core/Src/usbd_core.c ****   if (pdev->pClass[0] != NULL)
 338              		.loc 1 209 0
 339 0002 D0F8B832 		ldr	r3, [r0, #696]
 340 0006 13B1     		cbz	r3, .L30
 210:Middlewares/ST/STM32_USB_Device_Library/Core/Src/usbd_core.c ****   {
 211:Middlewares/ST/STM32_USB_Device_Library/Core/Src/usbd_core.c ****     /* Set configuration and Start the Class */
 212:Middlewares/ST/STM32_USB_Device_Library/Core/Src/usbd_core.c ****     ret = (USBD_StatusTypeDef)pdev->pClass[0]->Init(pdev, cfgidx);
 341              		.loc 1 212 0
 342 0008 1B68     		ldr	r3, [r3]
 343 000a 9847     		blx	r3
 344              	.LVL32:
 345 000c 08BD     		pop	{r3, pc}
 346              	.LVL33:
 347              	.L30:
 207:Middlewares/ST/STM32_USB_Device_Library/Core/Src/usbd_core.c ****   USBD_StatusTypeDef ret = USBD_OK;
 348              		.loc 1 207 0
 349 000e 0020     		movs	r0, #0
 350              	.LVL34:
 213:Middlewares/ST/STM32_USB_Device_Library/Core/Src/usbd_core.c ****   }
 214:Middlewares/ST/STM32_USB_Device_Library/Core/Src/usbd_core.c **** 
 215:Middlewares/ST/STM32_USB_Device_Library/Core/Src/usbd_core.c ****   return ret;
 216:Middlewares/ST/STM32_USB_Device_Library/Core/Src/usbd_core.c **** }
 351              		.loc 1 216 0
 352 0010 08BD     		pop	{r3, pc}
 353              		.cfi_endproc
 354              	.LFE138:
 356              		.section	.text.USBD_ClrClassConfig,"ax",%progbits
 357              		.align	1
 358              		.global	USBD_ClrClassConfig
 359              		.syntax unified
 360              		.thumb
 361              		.thumb_func
ARM GAS  /tmp/cclOLKrQ.s 			page 11


 362              		.fpu fpv4-sp-d16
 364              	USBD_ClrClassConfig:
 365              	.LFB139:
 217:Middlewares/ST/STM32_USB_Device_Library/Core/Src/usbd_core.c **** 
 218:Middlewares/ST/STM32_USB_Device_Library/Core/Src/usbd_core.c **** /**
 219:Middlewares/ST/STM32_USB_Device_Library/Core/Src/usbd_core.c ****   * @brief  USBD_ClrClassConfig
 220:Middlewares/ST/STM32_USB_Device_Library/Core/Src/usbd_core.c ****   *         Clear current configuration
 221:Middlewares/ST/STM32_USB_Device_Library/Core/Src/usbd_core.c ****   * @param  pdev: device instance
 222:Middlewares/ST/STM32_USB_Device_Library/Core/Src/usbd_core.c ****   * @param  cfgidx: configuration index
 223:Middlewares/ST/STM32_USB_Device_Library/Core/Src/usbd_core.c ****   * @retval status: USBD_StatusTypeDef
 224:Middlewares/ST/STM32_USB_Device_Library/Core/Src/usbd_core.c ****   */
 225:Middlewares/ST/STM32_USB_Device_Library/Core/Src/usbd_core.c **** USBD_StatusTypeDef USBD_ClrClassConfig(USBD_HandleTypeDef *pdev, uint8_t cfgidx)
 226:Middlewares/ST/STM32_USB_Device_Library/Core/Src/usbd_core.c **** {
 366              		.loc 1 226 0
 367              		.cfi_startproc
 368              		@ args = 0, pretend = 0, frame = 0
 369              		@ frame_needed = 0, uses_anonymous_args = 0
 370              	.LVL35:
 371 0000 08B5     		push	{r3, lr}
 372              	.LCFI10:
 373              		.cfi_def_cfa_offset 8
 374              		.cfi_offset 3, -8
 375              		.cfi_offset 14, -4
 376              	.LVL36:
 227:Middlewares/ST/STM32_USB_Device_Library/Core/Src/usbd_core.c ****   USBD_StatusTypeDef ret = USBD_OK;
 228:Middlewares/ST/STM32_USB_Device_Library/Core/Src/usbd_core.c **** 
 229:Middlewares/ST/STM32_USB_Device_Library/Core/Src/usbd_core.c ****   /* Clear configuration  and De-initialize the Class process */
 230:Middlewares/ST/STM32_USB_Device_Library/Core/Src/usbd_core.c ****   if (pdev->pClass[0]->DeInit(pdev, cfgidx) != 0U)
 377              		.loc 1 230 0
 378 0002 D0F8B832 		ldr	r3, [r0, #696]
 379 0006 5B68     		ldr	r3, [r3, #4]
 380 0008 9847     		blx	r3
 381              	.LVL37:
 382 000a 00B1     		cbz	r0, .L33
 231:Middlewares/ST/STM32_USB_Device_Library/Core/Src/usbd_core.c ****   {
 232:Middlewares/ST/STM32_USB_Device_Library/Core/Src/usbd_core.c ****     ret = USBD_FAIL;
 383              		.loc 1 232 0
 384 000c 0320     		movs	r0, #3
 385              	.L33:
 386              	.LVL38:
 233:Middlewares/ST/STM32_USB_Device_Library/Core/Src/usbd_core.c ****   }
 234:Middlewares/ST/STM32_USB_Device_Library/Core/Src/usbd_core.c **** 
 235:Middlewares/ST/STM32_USB_Device_Library/Core/Src/usbd_core.c ****   return ret;
 236:Middlewares/ST/STM32_USB_Device_Library/Core/Src/usbd_core.c **** }
 387              		.loc 1 236 0
 388 000e 08BD     		pop	{r3, pc}
 389              		.cfi_endproc
 390              	.LFE139:
 392              		.section	.text.USBD_LL_SetupStage,"ax",%progbits
 393              		.align	1
 394              		.global	USBD_LL_SetupStage
 395              		.syntax unified
 396              		.thumb
 397              		.thumb_func
 398              		.fpu fpv4-sp-d16
 400              	USBD_LL_SetupStage:
 401              	.LFB140:
ARM GAS  /tmp/cclOLKrQ.s 			page 12


 237:Middlewares/ST/STM32_USB_Device_Library/Core/Src/usbd_core.c **** 
 238:Middlewares/ST/STM32_USB_Device_Library/Core/Src/usbd_core.c **** 
 239:Middlewares/ST/STM32_USB_Device_Library/Core/Src/usbd_core.c **** /**
 240:Middlewares/ST/STM32_USB_Device_Library/Core/Src/usbd_core.c ****   * @brief  USBD_LL_SetupStage
 241:Middlewares/ST/STM32_USB_Device_Library/Core/Src/usbd_core.c ****   *         Handle the setup stage
 242:Middlewares/ST/STM32_USB_Device_Library/Core/Src/usbd_core.c ****   * @param  pdev: device instance
 243:Middlewares/ST/STM32_USB_Device_Library/Core/Src/usbd_core.c ****   * @retval status
 244:Middlewares/ST/STM32_USB_Device_Library/Core/Src/usbd_core.c ****   */
 245:Middlewares/ST/STM32_USB_Device_Library/Core/Src/usbd_core.c **** USBD_StatusTypeDef USBD_LL_SetupStage(USBD_HandleTypeDef *pdev, uint8_t *psetup)
 246:Middlewares/ST/STM32_USB_Device_Library/Core/Src/usbd_core.c **** {
 402              		.loc 1 246 0
 403              		.cfi_startproc
 404              		@ args = 0, pretend = 0, frame = 0
 405              		@ frame_needed = 0, uses_anonymous_args = 0
 406              	.LVL39:
 407 0000 38B5     		push	{r3, r4, r5, lr}
 408              	.LCFI11:
 409              		.cfi_def_cfa_offset 16
 410              		.cfi_offset 3, -16
 411              		.cfi_offset 4, -12
 412              		.cfi_offset 5, -8
 413              		.cfi_offset 14, -4
 414 0002 0446     		mov	r4, r0
 247:Middlewares/ST/STM32_USB_Device_Library/Core/Src/usbd_core.c ****   USBD_StatusTypeDef ret;
 248:Middlewares/ST/STM32_USB_Device_Library/Core/Src/usbd_core.c **** 
 249:Middlewares/ST/STM32_USB_Device_Library/Core/Src/usbd_core.c ****   USBD_ParseSetupRequest(&pdev->request, psetup);
 415              		.loc 1 249 0
 416 0004 00F2AA25 		addw	r5, r0, #682
 417 0008 2846     		mov	r0, r5
 418              	.LVL40:
 419 000a FFF7FEFF 		bl	USBD_ParseSetupRequest
 420              	.LVL41:
 250:Middlewares/ST/STM32_USB_Device_Library/Core/Src/usbd_core.c **** 
 251:Middlewares/ST/STM32_USB_Device_Library/Core/Src/usbd_core.c ****   pdev->ep0_state = USBD_EP0_SETUP;
 421              		.loc 1 251 0
 422 000e 0123     		movs	r3, #1
 423 0010 C4F89432 		str	r3, [r4, #660]
 252:Middlewares/ST/STM32_USB_Device_Library/Core/Src/usbd_core.c **** 
 253:Middlewares/ST/STM32_USB_Device_Library/Core/Src/usbd_core.c ****   pdev->ep0_data_len = pdev->request.wLength;
 424              		.loc 1 253 0
 425 0014 B4F8B032 		ldrh	r3, [r4, #688]
 426 0018 C4F89832 		str	r3, [r4, #664]
 254:Middlewares/ST/STM32_USB_Device_Library/Core/Src/usbd_core.c **** 
 255:Middlewares/ST/STM32_USB_Device_Library/Core/Src/usbd_core.c ****   switch (pdev->request.bmRequest & 0x1FU)
 427              		.loc 1 255 0
 428 001c 94F8AA12 		ldrb	r1, [r4, #682]	@ zero_extendqisi2
 429 0020 01F01F03 		and	r3, r1, #31
 430 0024 012B     		cmp	r3, #1
 431 0026 0DD0     		beq	.L38
 432 0028 3BB1     		cbz	r3, .L39
 433 002a 022B     		cmp	r3, #2
 434 002c 0FD0     		beq	.L40
 256:Middlewares/ST/STM32_USB_Device_Library/Core/Src/usbd_core.c ****   {
 257:Middlewares/ST/STM32_USB_Device_Library/Core/Src/usbd_core.c ****     case USB_REQ_RECIPIENT_DEVICE:
 258:Middlewares/ST/STM32_USB_Device_Library/Core/Src/usbd_core.c ****       ret = USBD_StdDevReq(pdev, &pdev->request);
 259:Middlewares/ST/STM32_USB_Device_Library/Core/Src/usbd_core.c ****       break;
 260:Middlewares/ST/STM32_USB_Device_Library/Core/Src/usbd_core.c **** 
ARM GAS  /tmp/cclOLKrQ.s 			page 13


 261:Middlewares/ST/STM32_USB_Device_Library/Core/Src/usbd_core.c ****     case USB_REQ_RECIPIENT_INTERFACE:
 262:Middlewares/ST/STM32_USB_Device_Library/Core/Src/usbd_core.c ****       ret = USBD_StdItfReq(pdev, &pdev->request);
 263:Middlewares/ST/STM32_USB_Device_Library/Core/Src/usbd_core.c ****       break;
 264:Middlewares/ST/STM32_USB_Device_Library/Core/Src/usbd_core.c **** 
 265:Middlewares/ST/STM32_USB_Device_Library/Core/Src/usbd_core.c ****     case USB_REQ_RECIPIENT_ENDPOINT:
 266:Middlewares/ST/STM32_USB_Device_Library/Core/Src/usbd_core.c ****       ret = USBD_StdEPReq(pdev, &pdev->request);
 267:Middlewares/ST/STM32_USB_Device_Library/Core/Src/usbd_core.c ****       break;
 268:Middlewares/ST/STM32_USB_Device_Library/Core/Src/usbd_core.c **** 
 269:Middlewares/ST/STM32_USB_Device_Library/Core/Src/usbd_core.c ****     default:
 270:Middlewares/ST/STM32_USB_Device_Library/Core/Src/usbd_core.c ****       ret = USBD_LL_StallEP(pdev, (pdev->request.bmRequest & 0x80U));
 435              		.loc 1 270 0
 436 002e 01F08001 		and	r1, r1, #128
 437 0032 2046     		mov	r0, r4
 438 0034 FFF7FEFF 		bl	USBD_LL_StallEP
 439              	.LVL42:
 271:Middlewares/ST/STM32_USB_Device_Library/Core/Src/usbd_core.c ****       break;
 272:Middlewares/ST/STM32_USB_Device_Library/Core/Src/usbd_core.c ****   }
 273:Middlewares/ST/STM32_USB_Device_Library/Core/Src/usbd_core.c **** 
 274:Middlewares/ST/STM32_USB_Device_Library/Core/Src/usbd_core.c ****   return ret;
 275:Middlewares/ST/STM32_USB_Device_Library/Core/Src/usbd_core.c **** }
 440              		.loc 1 275 0
 441 0038 38BD     		pop	{r3, r4, r5, pc}
 442              	.LVL43:
 443              	.L39:
 258:Middlewares/ST/STM32_USB_Device_Library/Core/Src/usbd_core.c ****       break;
 444              		.loc 1 258 0
 445 003a 2946     		mov	r1, r5
 446 003c 2046     		mov	r0, r4
 447 003e FFF7FEFF 		bl	USBD_StdDevReq
 448              	.LVL44:
 259:Middlewares/ST/STM32_USB_Device_Library/Core/Src/usbd_core.c **** 
 449              		.loc 1 259 0
 450 0042 38BD     		pop	{r3, r4, r5, pc}
 451              	.LVL45:
 452              	.L38:
 262:Middlewares/ST/STM32_USB_Device_Library/Core/Src/usbd_core.c ****       break;
 453              		.loc 1 262 0
 454 0044 2946     		mov	r1, r5
 455 0046 2046     		mov	r0, r4
 456 0048 FFF7FEFF 		bl	USBD_StdItfReq
 457              	.LVL46:
 263:Middlewares/ST/STM32_USB_Device_Library/Core/Src/usbd_core.c **** 
 458              		.loc 1 263 0
 459 004c 38BD     		pop	{r3, r4, r5, pc}
 460              	.LVL47:
 461              	.L40:
 266:Middlewares/ST/STM32_USB_Device_Library/Core/Src/usbd_core.c ****       break;
 462              		.loc 1 266 0
 463 004e 2946     		mov	r1, r5
 464 0050 2046     		mov	r0, r4
 465 0052 FFF7FEFF 		bl	USBD_StdEPReq
 466              	.LVL48:
 267:Middlewares/ST/STM32_USB_Device_Library/Core/Src/usbd_core.c **** 
 467              		.loc 1 267 0
 468 0056 38BD     		pop	{r3, r4, r5, pc}
 469              		.cfi_endproc
 470              	.LFE140:
ARM GAS  /tmp/cclOLKrQ.s 			page 14


 472              		.section	.text.USBD_LL_Reset,"ax",%progbits
 473              		.align	1
 474              		.global	USBD_LL_Reset
 475              		.syntax unified
 476              		.thumb
 477              		.thumb_func
 478              		.fpu fpv4-sp-d16
 480              	USBD_LL_Reset:
 481              	.LFB143:
 276:Middlewares/ST/STM32_USB_Device_Library/Core/Src/usbd_core.c **** 
 277:Middlewares/ST/STM32_USB_Device_Library/Core/Src/usbd_core.c **** /**
 278:Middlewares/ST/STM32_USB_Device_Library/Core/Src/usbd_core.c ****   * @brief  USBD_LL_DataOutStage
 279:Middlewares/ST/STM32_USB_Device_Library/Core/Src/usbd_core.c ****   *         Handle data OUT stage
 280:Middlewares/ST/STM32_USB_Device_Library/Core/Src/usbd_core.c ****   * @param  pdev: device instance
 281:Middlewares/ST/STM32_USB_Device_Library/Core/Src/usbd_core.c ****   * @param  epnum: endpoint index
 282:Middlewares/ST/STM32_USB_Device_Library/Core/Src/usbd_core.c ****   * @param  pdata: data pointer
 283:Middlewares/ST/STM32_USB_Device_Library/Core/Src/usbd_core.c ****   * @retval status
 284:Middlewares/ST/STM32_USB_Device_Library/Core/Src/usbd_core.c ****   */
 285:Middlewares/ST/STM32_USB_Device_Library/Core/Src/usbd_core.c **** USBD_StatusTypeDef USBD_LL_DataOutStage(USBD_HandleTypeDef *pdev,
 286:Middlewares/ST/STM32_USB_Device_Library/Core/Src/usbd_core.c ****                                         uint8_t epnum, uint8_t *pdata)
 287:Middlewares/ST/STM32_USB_Device_Library/Core/Src/usbd_core.c **** {
 288:Middlewares/ST/STM32_USB_Device_Library/Core/Src/usbd_core.c ****   USBD_EndpointTypeDef *pep;
 289:Middlewares/ST/STM32_USB_Device_Library/Core/Src/usbd_core.c ****   USBD_StatusTypeDef ret = USBD_OK;
 290:Middlewares/ST/STM32_USB_Device_Library/Core/Src/usbd_core.c ****   uint8_t idx;
 291:Middlewares/ST/STM32_USB_Device_Library/Core/Src/usbd_core.c **** 
 292:Middlewares/ST/STM32_USB_Device_Library/Core/Src/usbd_core.c ****   if (epnum == 0U)
 293:Middlewares/ST/STM32_USB_Device_Library/Core/Src/usbd_core.c ****   {
 294:Middlewares/ST/STM32_USB_Device_Library/Core/Src/usbd_core.c ****     pep = &pdev->ep_out[0];
 295:Middlewares/ST/STM32_USB_Device_Library/Core/Src/usbd_core.c **** 
 296:Middlewares/ST/STM32_USB_Device_Library/Core/Src/usbd_core.c ****     if (pdev->ep0_state == USBD_EP0_DATA_OUT)
 297:Middlewares/ST/STM32_USB_Device_Library/Core/Src/usbd_core.c ****     {
 298:Middlewares/ST/STM32_USB_Device_Library/Core/Src/usbd_core.c ****       if (pep->rem_length > pep->maxpacket)
 299:Middlewares/ST/STM32_USB_Device_Library/Core/Src/usbd_core.c ****       {
 300:Middlewares/ST/STM32_USB_Device_Library/Core/Src/usbd_core.c ****         pep->rem_length -= pep->maxpacket;
 301:Middlewares/ST/STM32_USB_Device_Library/Core/Src/usbd_core.c **** 
 302:Middlewares/ST/STM32_USB_Device_Library/Core/Src/usbd_core.c ****         (void)USBD_CtlContinueRx(pdev, pdata, MIN(pep->rem_length, pep->maxpacket));
 303:Middlewares/ST/STM32_USB_Device_Library/Core/Src/usbd_core.c ****       }
 304:Middlewares/ST/STM32_USB_Device_Library/Core/Src/usbd_core.c ****       else
 305:Middlewares/ST/STM32_USB_Device_Library/Core/Src/usbd_core.c ****       {
 306:Middlewares/ST/STM32_USB_Device_Library/Core/Src/usbd_core.c ****         /* Find the class ID relative to the current request */
 307:Middlewares/ST/STM32_USB_Device_Library/Core/Src/usbd_core.c ****         switch (pdev->request.bmRequest & 0x1FU)
 308:Middlewares/ST/STM32_USB_Device_Library/Core/Src/usbd_core.c ****         {
 309:Middlewares/ST/STM32_USB_Device_Library/Core/Src/usbd_core.c ****           case USB_REQ_RECIPIENT_DEVICE:
 310:Middlewares/ST/STM32_USB_Device_Library/Core/Src/usbd_core.c ****             /* Device requests must be managed by the first instantiated class
 311:Middlewares/ST/STM32_USB_Device_Library/Core/Src/usbd_core.c ****                (or duplicated by all classes for simplicity) */
 312:Middlewares/ST/STM32_USB_Device_Library/Core/Src/usbd_core.c ****             idx = 0U;
 313:Middlewares/ST/STM32_USB_Device_Library/Core/Src/usbd_core.c ****             break;
 314:Middlewares/ST/STM32_USB_Device_Library/Core/Src/usbd_core.c **** 
 315:Middlewares/ST/STM32_USB_Device_Library/Core/Src/usbd_core.c ****           case USB_REQ_RECIPIENT_INTERFACE:
 316:Middlewares/ST/STM32_USB_Device_Library/Core/Src/usbd_core.c ****             idx = USBD_CoreFindIF(pdev, LOBYTE(pdev->request.wIndex));
 317:Middlewares/ST/STM32_USB_Device_Library/Core/Src/usbd_core.c ****             break;
 318:Middlewares/ST/STM32_USB_Device_Library/Core/Src/usbd_core.c **** 
 319:Middlewares/ST/STM32_USB_Device_Library/Core/Src/usbd_core.c ****           case USB_REQ_RECIPIENT_ENDPOINT:
 320:Middlewares/ST/STM32_USB_Device_Library/Core/Src/usbd_core.c ****             idx = USBD_CoreFindEP(pdev, LOBYTE(pdev->request.wIndex));
 321:Middlewares/ST/STM32_USB_Device_Library/Core/Src/usbd_core.c ****             break;
 322:Middlewares/ST/STM32_USB_Device_Library/Core/Src/usbd_core.c **** 
 323:Middlewares/ST/STM32_USB_Device_Library/Core/Src/usbd_core.c ****           default:
ARM GAS  /tmp/cclOLKrQ.s 			page 15


 324:Middlewares/ST/STM32_USB_Device_Library/Core/Src/usbd_core.c ****             /* Back to the first class in case of doubt */
 325:Middlewares/ST/STM32_USB_Device_Library/Core/Src/usbd_core.c ****             idx = 0U;
 326:Middlewares/ST/STM32_USB_Device_Library/Core/Src/usbd_core.c ****             break;
 327:Middlewares/ST/STM32_USB_Device_Library/Core/Src/usbd_core.c ****         }
 328:Middlewares/ST/STM32_USB_Device_Library/Core/Src/usbd_core.c **** 
 329:Middlewares/ST/STM32_USB_Device_Library/Core/Src/usbd_core.c ****         if (idx < USBD_MAX_SUPPORTED_CLASS)
 330:Middlewares/ST/STM32_USB_Device_Library/Core/Src/usbd_core.c ****         {
 331:Middlewares/ST/STM32_USB_Device_Library/Core/Src/usbd_core.c ****           /* Setup the class ID and route the request to the relative class function */
 332:Middlewares/ST/STM32_USB_Device_Library/Core/Src/usbd_core.c ****           if (pdev->dev_state == USBD_STATE_CONFIGURED)
 333:Middlewares/ST/STM32_USB_Device_Library/Core/Src/usbd_core.c ****           {
 334:Middlewares/ST/STM32_USB_Device_Library/Core/Src/usbd_core.c ****             if (pdev->pClass[idx]->EP0_RxReady != NULL)
 335:Middlewares/ST/STM32_USB_Device_Library/Core/Src/usbd_core.c ****             {
 336:Middlewares/ST/STM32_USB_Device_Library/Core/Src/usbd_core.c ****               pdev->classId = idx;
 337:Middlewares/ST/STM32_USB_Device_Library/Core/Src/usbd_core.c ****               pdev->pClass[idx]->EP0_RxReady(pdev);
 338:Middlewares/ST/STM32_USB_Device_Library/Core/Src/usbd_core.c ****             }
 339:Middlewares/ST/STM32_USB_Device_Library/Core/Src/usbd_core.c ****           }
 340:Middlewares/ST/STM32_USB_Device_Library/Core/Src/usbd_core.c ****         }
 341:Middlewares/ST/STM32_USB_Device_Library/Core/Src/usbd_core.c **** 
 342:Middlewares/ST/STM32_USB_Device_Library/Core/Src/usbd_core.c ****         (void)USBD_CtlSendStatus(pdev);
 343:Middlewares/ST/STM32_USB_Device_Library/Core/Src/usbd_core.c ****       }
 344:Middlewares/ST/STM32_USB_Device_Library/Core/Src/usbd_core.c ****     }
 345:Middlewares/ST/STM32_USB_Device_Library/Core/Src/usbd_core.c ****     else
 346:Middlewares/ST/STM32_USB_Device_Library/Core/Src/usbd_core.c ****     {
 347:Middlewares/ST/STM32_USB_Device_Library/Core/Src/usbd_core.c ****     }
 348:Middlewares/ST/STM32_USB_Device_Library/Core/Src/usbd_core.c ****   }
 349:Middlewares/ST/STM32_USB_Device_Library/Core/Src/usbd_core.c ****   else
 350:Middlewares/ST/STM32_USB_Device_Library/Core/Src/usbd_core.c ****   {
 351:Middlewares/ST/STM32_USB_Device_Library/Core/Src/usbd_core.c ****     /* Get the class index relative to this interface */
 352:Middlewares/ST/STM32_USB_Device_Library/Core/Src/usbd_core.c ****     idx = USBD_CoreFindEP(pdev, (epnum & 0x7FU));
 353:Middlewares/ST/STM32_USB_Device_Library/Core/Src/usbd_core.c **** 
 354:Middlewares/ST/STM32_USB_Device_Library/Core/Src/usbd_core.c ****     if (((uint16_t)idx != 0xFFU) && (idx < USBD_MAX_SUPPORTED_CLASS))
 355:Middlewares/ST/STM32_USB_Device_Library/Core/Src/usbd_core.c ****     {
 356:Middlewares/ST/STM32_USB_Device_Library/Core/Src/usbd_core.c ****       /* Call the class data out function to manage the request */
 357:Middlewares/ST/STM32_USB_Device_Library/Core/Src/usbd_core.c ****       if (pdev->dev_state == USBD_STATE_CONFIGURED)
 358:Middlewares/ST/STM32_USB_Device_Library/Core/Src/usbd_core.c ****       {
 359:Middlewares/ST/STM32_USB_Device_Library/Core/Src/usbd_core.c ****         if (pdev->pClass[idx]->DataOut != NULL)
 360:Middlewares/ST/STM32_USB_Device_Library/Core/Src/usbd_core.c ****         {
 361:Middlewares/ST/STM32_USB_Device_Library/Core/Src/usbd_core.c ****           pdev->classId = idx;
 362:Middlewares/ST/STM32_USB_Device_Library/Core/Src/usbd_core.c ****           ret = (USBD_StatusTypeDef)pdev->pClass[idx]->DataOut(pdev, epnum);
 363:Middlewares/ST/STM32_USB_Device_Library/Core/Src/usbd_core.c ****         }
 364:Middlewares/ST/STM32_USB_Device_Library/Core/Src/usbd_core.c ****       }
 365:Middlewares/ST/STM32_USB_Device_Library/Core/Src/usbd_core.c ****       if (ret != USBD_OK)
 366:Middlewares/ST/STM32_USB_Device_Library/Core/Src/usbd_core.c ****       {
 367:Middlewares/ST/STM32_USB_Device_Library/Core/Src/usbd_core.c ****         return ret;
 368:Middlewares/ST/STM32_USB_Device_Library/Core/Src/usbd_core.c ****       }
 369:Middlewares/ST/STM32_USB_Device_Library/Core/Src/usbd_core.c ****     }
 370:Middlewares/ST/STM32_USB_Device_Library/Core/Src/usbd_core.c ****   }
 371:Middlewares/ST/STM32_USB_Device_Library/Core/Src/usbd_core.c **** 
 372:Middlewares/ST/STM32_USB_Device_Library/Core/Src/usbd_core.c ****   return USBD_OK;
 373:Middlewares/ST/STM32_USB_Device_Library/Core/Src/usbd_core.c **** }
 374:Middlewares/ST/STM32_USB_Device_Library/Core/Src/usbd_core.c **** 
 375:Middlewares/ST/STM32_USB_Device_Library/Core/Src/usbd_core.c **** /**
 376:Middlewares/ST/STM32_USB_Device_Library/Core/Src/usbd_core.c ****   * @brief  USBD_LL_DataInStage
 377:Middlewares/ST/STM32_USB_Device_Library/Core/Src/usbd_core.c ****   *         Handle data in stage
 378:Middlewares/ST/STM32_USB_Device_Library/Core/Src/usbd_core.c ****   * @param  pdev: device instance
 379:Middlewares/ST/STM32_USB_Device_Library/Core/Src/usbd_core.c ****   * @param  epnum: endpoint index
 380:Middlewares/ST/STM32_USB_Device_Library/Core/Src/usbd_core.c ****   * @retval status
ARM GAS  /tmp/cclOLKrQ.s 			page 16


 381:Middlewares/ST/STM32_USB_Device_Library/Core/Src/usbd_core.c ****   */
 382:Middlewares/ST/STM32_USB_Device_Library/Core/Src/usbd_core.c **** USBD_StatusTypeDef USBD_LL_DataInStage(USBD_HandleTypeDef *pdev,
 383:Middlewares/ST/STM32_USB_Device_Library/Core/Src/usbd_core.c ****                                        uint8_t epnum, uint8_t *pdata)
 384:Middlewares/ST/STM32_USB_Device_Library/Core/Src/usbd_core.c **** {
 385:Middlewares/ST/STM32_USB_Device_Library/Core/Src/usbd_core.c ****   USBD_EndpointTypeDef *pep;
 386:Middlewares/ST/STM32_USB_Device_Library/Core/Src/usbd_core.c ****   USBD_StatusTypeDef ret;
 387:Middlewares/ST/STM32_USB_Device_Library/Core/Src/usbd_core.c ****   uint8_t idx;
 388:Middlewares/ST/STM32_USB_Device_Library/Core/Src/usbd_core.c **** 
 389:Middlewares/ST/STM32_USB_Device_Library/Core/Src/usbd_core.c ****   if (epnum == 0U)
 390:Middlewares/ST/STM32_USB_Device_Library/Core/Src/usbd_core.c ****   {
 391:Middlewares/ST/STM32_USB_Device_Library/Core/Src/usbd_core.c ****     pep = &pdev->ep_in[0];
 392:Middlewares/ST/STM32_USB_Device_Library/Core/Src/usbd_core.c **** 
 393:Middlewares/ST/STM32_USB_Device_Library/Core/Src/usbd_core.c ****     if (pdev->ep0_state == USBD_EP0_DATA_IN)
 394:Middlewares/ST/STM32_USB_Device_Library/Core/Src/usbd_core.c ****     {
 395:Middlewares/ST/STM32_USB_Device_Library/Core/Src/usbd_core.c ****       if (pep->rem_length > pep->maxpacket)
 396:Middlewares/ST/STM32_USB_Device_Library/Core/Src/usbd_core.c ****       {
 397:Middlewares/ST/STM32_USB_Device_Library/Core/Src/usbd_core.c ****         pep->rem_length -= pep->maxpacket;
 398:Middlewares/ST/STM32_USB_Device_Library/Core/Src/usbd_core.c **** 
 399:Middlewares/ST/STM32_USB_Device_Library/Core/Src/usbd_core.c ****         (void)USBD_CtlContinueSendData(pdev, pdata, pep->rem_length);
 400:Middlewares/ST/STM32_USB_Device_Library/Core/Src/usbd_core.c **** 
 401:Middlewares/ST/STM32_USB_Device_Library/Core/Src/usbd_core.c ****         /* Prepare endpoint for premature end of transfer */
 402:Middlewares/ST/STM32_USB_Device_Library/Core/Src/usbd_core.c ****         (void)USBD_LL_PrepareReceive(pdev, 0U, NULL, 0U);
 403:Middlewares/ST/STM32_USB_Device_Library/Core/Src/usbd_core.c ****       }
 404:Middlewares/ST/STM32_USB_Device_Library/Core/Src/usbd_core.c ****       else
 405:Middlewares/ST/STM32_USB_Device_Library/Core/Src/usbd_core.c ****       {
 406:Middlewares/ST/STM32_USB_Device_Library/Core/Src/usbd_core.c ****         /* last packet is MPS multiple, so send ZLP packet */
 407:Middlewares/ST/STM32_USB_Device_Library/Core/Src/usbd_core.c ****         if ((pep->maxpacket == pep->rem_length) &&
 408:Middlewares/ST/STM32_USB_Device_Library/Core/Src/usbd_core.c ****             (pep->total_length >= pep->maxpacket) &&
 409:Middlewares/ST/STM32_USB_Device_Library/Core/Src/usbd_core.c ****             (pep->total_length < pdev->ep0_data_len))
 410:Middlewares/ST/STM32_USB_Device_Library/Core/Src/usbd_core.c ****         {
 411:Middlewares/ST/STM32_USB_Device_Library/Core/Src/usbd_core.c ****           (void)USBD_CtlContinueSendData(pdev, NULL, 0U);
 412:Middlewares/ST/STM32_USB_Device_Library/Core/Src/usbd_core.c ****           pdev->ep0_data_len = 0U;
 413:Middlewares/ST/STM32_USB_Device_Library/Core/Src/usbd_core.c **** 
 414:Middlewares/ST/STM32_USB_Device_Library/Core/Src/usbd_core.c ****           /* Prepare endpoint for premature end of transfer */
 415:Middlewares/ST/STM32_USB_Device_Library/Core/Src/usbd_core.c ****           (void)USBD_LL_PrepareReceive(pdev, 0U, NULL, 0U);
 416:Middlewares/ST/STM32_USB_Device_Library/Core/Src/usbd_core.c ****         }
 417:Middlewares/ST/STM32_USB_Device_Library/Core/Src/usbd_core.c ****         else
 418:Middlewares/ST/STM32_USB_Device_Library/Core/Src/usbd_core.c ****         {
 419:Middlewares/ST/STM32_USB_Device_Library/Core/Src/usbd_core.c ****           if (pdev->dev_state == USBD_STATE_CONFIGURED)
 420:Middlewares/ST/STM32_USB_Device_Library/Core/Src/usbd_core.c ****           {
 421:Middlewares/ST/STM32_USB_Device_Library/Core/Src/usbd_core.c ****             if (pdev->pClass[0]->EP0_TxSent != NULL)
 422:Middlewares/ST/STM32_USB_Device_Library/Core/Src/usbd_core.c ****             {
 423:Middlewares/ST/STM32_USB_Device_Library/Core/Src/usbd_core.c ****               pdev->classId = 0U;
 424:Middlewares/ST/STM32_USB_Device_Library/Core/Src/usbd_core.c ****               pdev->pClass[0]->EP0_TxSent(pdev);
 425:Middlewares/ST/STM32_USB_Device_Library/Core/Src/usbd_core.c ****             }
 426:Middlewares/ST/STM32_USB_Device_Library/Core/Src/usbd_core.c ****           }
 427:Middlewares/ST/STM32_USB_Device_Library/Core/Src/usbd_core.c ****           (void)USBD_LL_StallEP(pdev, 0x80U);
 428:Middlewares/ST/STM32_USB_Device_Library/Core/Src/usbd_core.c ****           (void)USBD_CtlReceiveStatus(pdev);
 429:Middlewares/ST/STM32_USB_Device_Library/Core/Src/usbd_core.c ****         }
 430:Middlewares/ST/STM32_USB_Device_Library/Core/Src/usbd_core.c ****       }
 431:Middlewares/ST/STM32_USB_Device_Library/Core/Src/usbd_core.c ****     }
 432:Middlewares/ST/STM32_USB_Device_Library/Core/Src/usbd_core.c **** 
 433:Middlewares/ST/STM32_USB_Device_Library/Core/Src/usbd_core.c ****     if (pdev->dev_test_mode != 0U)
 434:Middlewares/ST/STM32_USB_Device_Library/Core/Src/usbd_core.c ****     {
 435:Middlewares/ST/STM32_USB_Device_Library/Core/Src/usbd_core.c ****       (void)USBD_RunTestMode(pdev);
 436:Middlewares/ST/STM32_USB_Device_Library/Core/Src/usbd_core.c ****       pdev->dev_test_mode = 0U;
 437:Middlewares/ST/STM32_USB_Device_Library/Core/Src/usbd_core.c ****     }
ARM GAS  /tmp/cclOLKrQ.s 			page 17


 438:Middlewares/ST/STM32_USB_Device_Library/Core/Src/usbd_core.c ****   }
 439:Middlewares/ST/STM32_USB_Device_Library/Core/Src/usbd_core.c ****   else
 440:Middlewares/ST/STM32_USB_Device_Library/Core/Src/usbd_core.c ****   {
 441:Middlewares/ST/STM32_USB_Device_Library/Core/Src/usbd_core.c ****     /* Get the class index relative to this interface */
 442:Middlewares/ST/STM32_USB_Device_Library/Core/Src/usbd_core.c ****     idx = USBD_CoreFindEP(pdev, ((uint8_t)epnum | 0x80U));
 443:Middlewares/ST/STM32_USB_Device_Library/Core/Src/usbd_core.c **** 
 444:Middlewares/ST/STM32_USB_Device_Library/Core/Src/usbd_core.c ****     if (((uint16_t)idx != 0xFFU) && (idx < USBD_MAX_SUPPORTED_CLASS))
 445:Middlewares/ST/STM32_USB_Device_Library/Core/Src/usbd_core.c ****     {
 446:Middlewares/ST/STM32_USB_Device_Library/Core/Src/usbd_core.c ****       /* Call the class data out function to manage the request */
 447:Middlewares/ST/STM32_USB_Device_Library/Core/Src/usbd_core.c ****       if (pdev->dev_state == USBD_STATE_CONFIGURED)
 448:Middlewares/ST/STM32_USB_Device_Library/Core/Src/usbd_core.c ****       {
 449:Middlewares/ST/STM32_USB_Device_Library/Core/Src/usbd_core.c ****         if (pdev->pClass[idx]->DataIn != NULL)
 450:Middlewares/ST/STM32_USB_Device_Library/Core/Src/usbd_core.c ****         {
 451:Middlewares/ST/STM32_USB_Device_Library/Core/Src/usbd_core.c ****           pdev->classId = idx;
 452:Middlewares/ST/STM32_USB_Device_Library/Core/Src/usbd_core.c ****           ret = (USBD_StatusTypeDef)pdev->pClass[idx]->DataIn(pdev, epnum);
 453:Middlewares/ST/STM32_USB_Device_Library/Core/Src/usbd_core.c **** 
 454:Middlewares/ST/STM32_USB_Device_Library/Core/Src/usbd_core.c ****           if (ret != USBD_OK)
 455:Middlewares/ST/STM32_USB_Device_Library/Core/Src/usbd_core.c ****           {
 456:Middlewares/ST/STM32_USB_Device_Library/Core/Src/usbd_core.c ****             return ret;
 457:Middlewares/ST/STM32_USB_Device_Library/Core/Src/usbd_core.c ****           }
 458:Middlewares/ST/STM32_USB_Device_Library/Core/Src/usbd_core.c ****         }
 459:Middlewares/ST/STM32_USB_Device_Library/Core/Src/usbd_core.c ****       }
 460:Middlewares/ST/STM32_USB_Device_Library/Core/Src/usbd_core.c ****     }
 461:Middlewares/ST/STM32_USB_Device_Library/Core/Src/usbd_core.c ****   }
 462:Middlewares/ST/STM32_USB_Device_Library/Core/Src/usbd_core.c **** 
 463:Middlewares/ST/STM32_USB_Device_Library/Core/Src/usbd_core.c ****   return USBD_OK;
 464:Middlewares/ST/STM32_USB_Device_Library/Core/Src/usbd_core.c **** }
 465:Middlewares/ST/STM32_USB_Device_Library/Core/Src/usbd_core.c **** 
 466:Middlewares/ST/STM32_USB_Device_Library/Core/Src/usbd_core.c **** /**
 467:Middlewares/ST/STM32_USB_Device_Library/Core/Src/usbd_core.c ****   * @brief  USBD_LL_Reset
 468:Middlewares/ST/STM32_USB_Device_Library/Core/Src/usbd_core.c ****   *         Handle Reset event
 469:Middlewares/ST/STM32_USB_Device_Library/Core/Src/usbd_core.c ****   * @param  pdev: device instance
 470:Middlewares/ST/STM32_USB_Device_Library/Core/Src/usbd_core.c ****   * @retval status
 471:Middlewares/ST/STM32_USB_Device_Library/Core/Src/usbd_core.c ****   */
 472:Middlewares/ST/STM32_USB_Device_Library/Core/Src/usbd_core.c **** 
 473:Middlewares/ST/STM32_USB_Device_Library/Core/Src/usbd_core.c **** USBD_StatusTypeDef USBD_LL_Reset(USBD_HandleTypeDef *pdev)
 474:Middlewares/ST/STM32_USB_Device_Library/Core/Src/usbd_core.c **** {
 482              		.loc 1 474 0
 483              		.cfi_startproc
 484              		@ args = 0, pretend = 0, frame = 0
 485              		@ frame_needed = 0, uses_anonymous_args = 0
 486              	.LVL49:
 487 0000 F8B5     		push	{r3, r4, r5, r6, r7, lr}
 488              	.LCFI12:
 489              		.cfi_def_cfa_offset 24
 490              		.cfi_offset 3, -24
 491              		.cfi_offset 4, -20
 492              		.cfi_offset 5, -16
 493              		.cfi_offset 6, -12
 494              		.cfi_offset 7, -8
 495              		.cfi_offset 14, -4
 496 0002 0446     		mov	r4, r0
 497              	.LVL50:
 475:Middlewares/ST/STM32_USB_Device_Library/Core/Src/usbd_core.c ****   USBD_StatusTypeDef ret = USBD_OK;
 476:Middlewares/ST/STM32_USB_Device_Library/Core/Src/usbd_core.c **** 
 477:Middlewares/ST/STM32_USB_Device_Library/Core/Src/usbd_core.c ****   /* Upon Reset call user call back */
 478:Middlewares/ST/STM32_USB_Device_Library/Core/Src/usbd_core.c ****   pdev->dev_state = USBD_STATE_DEFAULT;
ARM GAS  /tmp/cclOLKrQ.s 			page 18


 498              		.loc 1 478 0
 499 0004 0123     		movs	r3, #1
 500 0006 80F89C32 		strb	r3, [r0, #668]
 479:Middlewares/ST/STM32_USB_Device_Library/Core/Src/usbd_core.c ****   pdev->ep0_state = USBD_EP0_IDLE;
 501              		.loc 1 479 0
 502 000a 0023     		movs	r3, #0
 503 000c C0F89432 		str	r3, [r0, #660]
 480:Middlewares/ST/STM32_USB_Device_Library/Core/Src/usbd_core.c ****   pdev->dev_config = 0U;
 504              		.loc 1 480 0
 505 0010 4360     		str	r3, [r0, #4]
 481:Middlewares/ST/STM32_USB_Device_Library/Core/Src/usbd_core.c ****   pdev->dev_remote_wakeup = 0U;
 506              		.loc 1 481 0
 507 0012 C0F8A432 		str	r3, [r0, #676]
 482:Middlewares/ST/STM32_USB_Device_Library/Core/Src/usbd_core.c ****   pdev->dev_test_mode = 0U;
 508              		.loc 1 482 0
 509 0016 80F8A032 		strb	r3, [r0, #672]
 483:Middlewares/ST/STM32_USB_Device_Library/Core/Src/usbd_core.c **** 
 484:Middlewares/ST/STM32_USB_Device_Library/Core/Src/usbd_core.c **** 
 485:Middlewares/ST/STM32_USB_Device_Library/Core/Src/usbd_core.c ****   if (pdev->pClass[0] != NULL)
 510              		.loc 1 485 0
 511 001a D0F8B832 		ldr	r3, [r0, #696]
 512 001e EBB1     		cbz	r3, .L46
 486:Middlewares/ST/STM32_USB_Device_Library/Core/Src/usbd_core.c ****   {
 487:Middlewares/ST/STM32_USB_Device_Library/Core/Src/usbd_core.c ****     if (pdev->pClass[0]->DeInit != NULL)
 513              		.loc 1 487 0
 514 0020 5B68     		ldr	r3, [r3, #4]
 515 0022 EBB1     		cbz	r3, .L47
 488:Middlewares/ST/STM32_USB_Device_Library/Core/Src/usbd_core.c ****     {
 489:Middlewares/ST/STM32_USB_Device_Library/Core/Src/usbd_core.c ****       if (pdev->pClass[0]->DeInit(pdev, (uint8_t)pdev->dev_config) != USBD_OK)
 516              		.loc 1 489 0
 517 0024 0021     		movs	r1, #0
 518 0026 9847     		blx	r3
 519              	.LVL51:
 520 0028 B0B1     		cbz	r0, .L50
 490:Middlewares/ST/STM32_USB_Device_Library/Core/Src/usbd_core.c ****       {
 491:Middlewares/ST/STM32_USB_Device_Library/Core/Src/usbd_core.c ****         ret = USBD_FAIL;
 521              		.loc 1 491 0
 522 002a 0327     		movs	r7, #3
 523              	.L45:
 524              	.LVL52:
 492:Middlewares/ST/STM32_USB_Device_Library/Core/Src/usbd_core.c ****       }
 493:Middlewares/ST/STM32_USB_Device_Library/Core/Src/usbd_core.c ****     }
 494:Middlewares/ST/STM32_USB_Device_Library/Core/Src/usbd_core.c ****   }
 495:Middlewares/ST/STM32_USB_Device_Library/Core/Src/usbd_core.c **** 
 496:Middlewares/ST/STM32_USB_Device_Library/Core/Src/usbd_core.c ****   /* Open EP0 OUT */
 497:Middlewares/ST/STM32_USB_Device_Library/Core/Src/usbd_core.c ****   (void)USBD_LL_OpenEP(pdev, 0x00U, USBD_EP_TYPE_CTRL, USB_MAX_EP0_SIZE);
 525              		.loc 1 497 0
 526 002c 4023     		movs	r3, #64
 527 002e 0022     		movs	r2, #0
 528 0030 1146     		mov	r1, r2
 529 0032 2046     		mov	r0, r4
 530 0034 FFF7FEFF 		bl	USBD_LL_OpenEP
 531              	.LVL53:
 498:Middlewares/ST/STM32_USB_Device_Library/Core/Src/usbd_core.c ****   pdev->ep_out[0x00U & 0xFU].is_used = 1U;
 532              		.loc 1 498 0
 533 0038 0126     		movs	r6, #1
 534 003a A4F86461 		strh	r6, [r4, #356]	@ movhi
ARM GAS  /tmp/cclOLKrQ.s 			page 19


 499:Middlewares/ST/STM32_USB_Device_Library/Core/Src/usbd_core.c **** 
 500:Middlewares/ST/STM32_USB_Device_Library/Core/Src/usbd_core.c ****   pdev->ep_out[0].maxpacket = USB_MAX_EP0_SIZE;
 535              		.loc 1 500 0
 536 003e 4025     		movs	r5, #64
 537 0040 C4F86051 		str	r5, [r4, #352]
 501:Middlewares/ST/STM32_USB_Device_Library/Core/Src/usbd_core.c **** 
 502:Middlewares/ST/STM32_USB_Device_Library/Core/Src/usbd_core.c ****   /* Open EP0 IN */
 503:Middlewares/ST/STM32_USB_Device_Library/Core/Src/usbd_core.c ****   (void)USBD_LL_OpenEP(pdev, 0x80U, USBD_EP_TYPE_CTRL, USB_MAX_EP0_SIZE);
 538              		.loc 1 503 0
 539 0044 2B46     		mov	r3, r5
 540 0046 0022     		movs	r2, #0
 541 0048 8021     		movs	r1, #128
 542 004a 2046     		mov	r0, r4
 543 004c FFF7FEFF 		bl	USBD_LL_OpenEP
 544              	.LVL54:
 504:Middlewares/ST/STM32_USB_Device_Library/Core/Src/usbd_core.c ****   pdev->ep_in[0x80U & 0xFU].is_used = 1U;
 545              		.loc 1 504 0
 546 0050 A684     		strh	r6, [r4, #36]	@ movhi
 505:Middlewares/ST/STM32_USB_Device_Library/Core/Src/usbd_core.c **** 
 506:Middlewares/ST/STM32_USB_Device_Library/Core/Src/usbd_core.c ****   pdev->ep_in[0].maxpacket = USB_MAX_EP0_SIZE;
 547              		.loc 1 506 0
 548 0052 2562     		str	r5, [r4, #32]
 507:Middlewares/ST/STM32_USB_Device_Library/Core/Src/usbd_core.c **** 
 508:Middlewares/ST/STM32_USB_Device_Library/Core/Src/usbd_core.c ****   return ret;
 509:Middlewares/ST/STM32_USB_Device_Library/Core/Src/usbd_core.c **** }
 549              		.loc 1 509 0
 550 0054 3846     		mov	r0, r7
 551 0056 F8BD     		pop	{r3, r4, r5, r6, r7, pc}
 552              	.LVL55:
 553              	.L50:
 475:Middlewares/ST/STM32_USB_Device_Library/Core/Src/usbd_core.c **** 
 554              		.loc 1 475 0
 555 0058 0027     		movs	r7, #0
 556 005a E7E7     		b	.L45
 557              	.LVL56:
 558              	.L46:
 559 005c 0027     		movs	r7, #0
 560 005e E5E7     		b	.L45
 561              	.L47:
 562 0060 0027     		movs	r7, #0
 563 0062 E3E7     		b	.L45
 564              		.cfi_endproc
 565              	.LFE143:
 567              		.section	.text.USBD_LL_SetSpeed,"ax",%progbits
 568              		.align	1
 569              		.global	USBD_LL_SetSpeed
 570              		.syntax unified
 571              		.thumb
 572              		.thumb_func
 573              		.fpu fpv4-sp-d16
 575              	USBD_LL_SetSpeed:
 576              	.LFB144:
 510:Middlewares/ST/STM32_USB_Device_Library/Core/Src/usbd_core.c **** 
 511:Middlewares/ST/STM32_USB_Device_Library/Core/Src/usbd_core.c **** /**
 512:Middlewares/ST/STM32_USB_Device_Library/Core/Src/usbd_core.c ****   * @brief  USBD_LL_SetSpeed
 513:Middlewares/ST/STM32_USB_Device_Library/Core/Src/usbd_core.c ****   *         Handle Reset event
 514:Middlewares/ST/STM32_USB_Device_Library/Core/Src/usbd_core.c ****   * @param  pdev: device instance
ARM GAS  /tmp/cclOLKrQ.s 			page 20


 515:Middlewares/ST/STM32_USB_Device_Library/Core/Src/usbd_core.c ****   * @retval status
 516:Middlewares/ST/STM32_USB_Device_Library/Core/Src/usbd_core.c ****   */
 517:Middlewares/ST/STM32_USB_Device_Library/Core/Src/usbd_core.c **** USBD_StatusTypeDef USBD_LL_SetSpeed(USBD_HandleTypeDef *pdev,
 518:Middlewares/ST/STM32_USB_Device_Library/Core/Src/usbd_core.c ****                                     USBD_SpeedTypeDef speed)
 519:Middlewares/ST/STM32_USB_Device_Library/Core/Src/usbd_core.c **** {
 577              		.loc 1 519 0
 578              		.cfi_startproc
 579              		@ args = 0, pretend = 0, frame = 0
 580              		@ frame_needed = 0, uses_anonymous_args = 0
 581              		@ link register save eliminated.
 582              	.LVL57:
 520:Middlewares/ST/STM32_USB_Device_Library/Core/Src/usbd_core.c ****   pdev->dev_speed = speed;
 583              		.loc 1 520 0
 584 0000 0174     		strb	r1, [r0, #16]
 521:Middlewares/ST/STM32_USB_Device_Library/Core/Src/usbd_core.c **** 
 522:Middlewares/ST/STM32_USB_Device_Library/Core/Src/usbd_core.c ****   return USBD_OK;
 523:Middlewares/ST/STM32_USB_Device_Library/Core/Src/usbd_core.c **** }
 585              		.loc 1 523 0
 586 0002 0020     		movs	r0, #0
 587              	.LVL58:
 588 0004 7047     		bx	lr
 589              		.cfi_endproc
 590              	.LFE144:
 592              		.section	.text.USBD_LL_Suspend,"ax",%progbits
 593              		.align	1
 594              		.global	USBD_LL_Suspend
 595              		.syntax unified
 596              		.thumb
 597              		.thumb_func
 598              		.fpu fpv4-sp-d16
 600              	USBD_LL_Suspend:
 601              	.LFB145:
 524:Middlewares/ST/STM32_USB_Device_Library/Core/Src/usbd_core.c **** 
 525:Middlewares/ST/STM32_USB_Device_Library/Core/Src/usbd_core.c **** /**
 526:Middlewares/ST/STM32_USB_Device_Library/Core/Src/usbd_core.c ****   * @brief  USBD_LL_Suspend
 527:Middlewares/ST/STM32_USB_Device_Library/Core/Src/usbd_core.c ****   *         Handle Suspend event
 528:Middlewares/ST/STM32_USB_Device_Library/Core/Src/usbd_core.c ****   * @param  pdev: device instance
 529:Middlewares/ST/STM32_USB_Device_Library/Core/Src/usbd_core.c ****   * @retval status
 530:Middlewares/ST/STM32_USB_Device_Library/Core/Src/usbd_core.c ****   */
 531:Middlewares/ST/STM32_USB_Device_Library/Core/Src/usbd_core.c **** 
 532:Middlewares/ST/STM32_USB_Device_Library/Core/Src/usbd_core.c **** USBD_StatusTypeDef USBD_LL_Suspend(USBD_HandleTypeDef *pdev)
 533:Middlewares/ST/STM32_USB_Device_Library/Core/Src/usbd_core.c **** {
 602              		.loc 1 533 0
 603              		.cfi_startproc
 604              		@ args = 0, pretend = 0, frame = 0
 605              		@ frame_needed = 0, uses_anonymous_args = 0
 606              		@ link register save eliminated.
 607              	.LVL59:
 534:Middlewares/ST/STM32_USB_Device_Library/Core/Src/usbd_core.c ****   pdev->dev_old_state = pdev->dev_state;
 608              		.loc 1 534 0
 609 0000 90F89C32 		ldrb	r3, [r0, #668]	@ zero_extendqisi2
 610 0004 DBB2     		uxtb	r3, r3
 611 0006 80F89D32 		strb	r3, [r0, #669]
 535:Middlewares/ST/STM32_USB_Device_Library/Core/Src/usbd_core.c ****   pdev->dev_state = USBD_STATE_SUSPENDED;
 612              		.loc 1 535 0
 613 000a 0423     		movs	r3, #4
 614 000c 80F89C32 		strb	r3, [r0, #668]
ARM GAS  /tmp/cclOLKrQ.s 			page 21


 536:Middlewares/ST/STM32_USB_Device_Library/Core/Src/usbd_core.c **** 
 537:Middlewares/ST/STM32_USB_Device_Library/Core/Src/usbd_core.c ****   return USBD_OK;
 538:Middlewares/ST/STM32_USB_Device_Library/Core/Src/usbd_core.c **** }
 615              		.loc 1 538 0
 616 0010 0020     		movs	r0, #0
 617              	.LVL60:
 618 0012 7047     		bx	lr
 619              		.cfi_endproc
 620              	.LFE145:
 622              		.section	.text.USBD_LL_Resume,"ax",%progbits
 623              		.align	1
 624              		.global	USBD_LL_Resume
 625              		.syntax unified
 626              		.thumb
 627              		.thumb_func
 628              		.fpu fpv4-sp-d16
 630              	USBD_LL_Resume:
 631              	.LFB146:
 539:Middlewares/ST/STM32_USB_Device_Library/Core/Src/usbd_core.c **** 
 540:Middlewares/ST/STM32_USB_Device_Library/Core/Src/usbd_core.c **** /**
 541:Middlewares/ST/STM32_USB_Device_Library/Core/Src/usbd_core.c ****   * @brief  USBD_LL_Resume
 542:Middlewares/ST/STM32_USB_Device_Library/Core/Src/usbd_core.c ****   *         Handle Resume event
 543:Middlewares/ST/STM32_USB_Device_Library/Core/Src/usbd_core.c ****   * @param  pdev: device instance
 544:Middlewares/ST/STM32_USB_Device_Library/Core/Src/usbd_core.c ****   * @retval status
 545:Middlewares/ST/STM32_USB_Device_Library/Core/Src/usbd_core.c ****   */
 546:Middlewares/ST/STM32_USB_Device_Library/Core/Src/usbd_core.c **** 
 547:Middlewares/ST/STM32_USB_Device_Library/Core/Src/usbd_core.c **** USBD_StatusTypeDef USBD_LL_Resume(USBD_HandleTypeDef *pdev)
 548:Middlewares/ST/STM32_USB_Device_Library/Core/Src/usbd_core.c **** {
 632              		.loc 1 548 0
 633              		.cfi_startproc
 634              		@ args = 0, pretend = 0, frame = 0
 635              		@ frame_needed = 0, uses_anonymous_args = 0
 636              		@ link register save eliminated.
 637              	.LVL61:
 549:Middlewares/ST/STM32_USB_Device_Library/Core/Src/usbd_core.c ****   if (pdev->dev_state == USBD_STATE_SUSPENDED)
 638              		.loc 1 549 0
 639 0000 90F89C32 		ldrb	r3, [r0, #668]	@ zero_extendqisi2
 640 0004 DBB2     		uxtb	r3, r3
 641 0006 042B     		cmp	r3, #4
 642 0008 01D0     		beq	.L55
 643              	.L54:
 550:Middlewares/ST/STM32_USB_Device_Library/Core/Src/usbd_core.c ****   {
 551:Middlewares/ST/STM32_USB_Device_Library/Core/Src/usbd_core.c ****     pdev->dev_state = pdev->dev_old_state;
 552:Middlewares/ST/STM32_USB_Device_Library/Core/Src/usbd_core.c ****   }
 553:Middlewares/ST/STM32_USB_Device_Library/Core/Src/usbd_core.c **** 
 554:Middlewares/ST/STM32_USB_Device_Library/Core/Src/usbd_core.c ****   return USBD_OK;
 555:Middlewares/ST/STM32_USB_Device_Library/Core/Src/usbd_core.c **** }
 644              		.loc 1 555 0
 645 000a 0020     		movs	r0, #0
 646              	.LVL62:
 647 000c 7047     		bx	lr
 648              	.LVL63:
 649              	.L55:
 551:Middlewares/ST/STM32_USB_Device_Library/Core/Src/usbd_core.c ****   }
 650              		.loc 1 551 0
 651 000e 90F89D32 		ldrb	r3, [r0, #669]	@ zero_extendqisi2
 652 0012 DBB2     		uxtb	r3, r3
ARM GAS  /tmp/cclOLKrQ.s 			page 22


 653 0014 80F89C32 		strb	r3, [r0, #668]
 654 0018 F7E7     		b	.L54
 655              		.cfi_endproc
 656              	.LFE146:
 658              		.section	.text.USBD_LL_SOF,"ax",%progbits
 659              		.align	1
 660              		.global	USBD_LL_SOF
 661              		.syntax unified
 662              		.thumb
 663              		.thumb_func
 664              		.fpu fpv4-sp-d16
 666              	USBD_LL_SOF:
 667              	.LFB147:
 556:Middlewares/ST/STM32_USB_Device_Library/Core/Src/usbd_core.c **** 
 557:Middlewares/ST/STM32_USB_Device_Library/Core/Src/usbd_core.c **** /**
 558:Middlewares/ST/STM32_USB_Device_Library/Core/Src/usbd_core.c ****   * @brief  USBD_LL_SOF
 559:Middlewares/ST/STM32_USB_Device_Library/Core/Src/usbd_core.c ****   *         Handle SOF event
 560:Middlewares/ST/STM32_USB_Device_Library/Core/Src/usbd_core.c ****   * @param  pdev: device instance
 561:Middlewares/ST/STM32_USB_Device_Library/Core/Src/usbd_core.c ****   * @retval status
 562:Middlewares/ST/STM32_USB_Device_Library/Core/Src/usbd_core.c ****   */
 563:Middlewares/ST/STM32_USB_Device_Library/Core/Src/usbd_core.c **** 
 564:Middlewares/ST/STM32_USB_Device_Library/Core/Src/usbd_core.c **** USBD_StatusTypeDef USBD_LL_SOF(USBD_HandleTypeDef *pdev)
 565:Middlewares/ST/STM32_USB_Device_Library/Core/Src/usbd_core.c **** {
 668              		.loc 1 565 0
 669              		.cfi_startproc
 670              		@ args = 0, pretend = 0, frame = 0
 671              		@ frame_needed = 0, uses_anonymous_args = 0
 672              	.LVL64:
 673 0000 08B5     		push	{r3, lr}
 674              	.LCFI13:
 675              		.cfi_def_cfa_offset 8
 676              		.cfi_offset 3, -8
 677              		.cfi_offset 14, -4
 566:Middlewares/ST/STM32_USB_Device_Library/Core/Src/usbd_core.c ****   /* The SOF event can be distributed for all classes that support it */
 567:Middlewares/ST/STM32_USB_Device_Library/Core/Src/usbd_core.c ****   if (pdev->dev_state == USBD_STATE_CONFIGURED)
 678              		.loc 1 567 0
 679 0002 90F89C32 		ldrb	r3, [r0, #668]	@ zero_extendqisi2
 680 0006 DBB2     		uxtb	r3, r3
 681 0008 032B     		cmp	r3, #3
 682 000a 01D0     		beq	.L59
 683              	.LVL65:
 684              	.L57:
 568:Middlewares/ST/STM32_USB_Device_Library/Core/Src/usbd_core.c ****   {
 569:Middlewares/ST/STM32_USB_Device_Library/Core/Src/usbd_core.c ****     if (pdev->pClass[0] != NULL)
 570:Middlewares/ST/STM32_USB_Device_Library/Core/Src/usbd_core.c ****     {
 571:Middlewares/ST/STM32_USB_Device_Library/Core/Src/usbd_core.c ****       if (pdev->pClass[0]->SOF != NULL)
 572:Middlewares/ST/STM32_USB_Device_Library/Core/Src/usbd_core.c ****       {
 573:Middlewares/ST/STM32_USB_Device_Library/Core/Src/usbd_core.c ****         (void)pdev->pClass[0]->SOF(pdev);
 574:Middlewares/ST/STM32_USB_Device_Library/Core/Src/usbd_core.c ****       }
 575:Middlewares/ST/STM32_USB_Device_Library/Core/Src/usbd_core.c ****     }
 576:Middlewares/ST/STM32_USB_Device_Library/Core/Src/usbd_core.c ****   }
 577:Middlewares/ST/STM32_USB_Device_Library/Core/Src/usbd_core.c **** 
 578:Middlewares/ST/STM32_USB_Device_Library/Core/Src/usbd_core.c ****   return USBD_OK;
 579:Middlewares/ST/STM32_USB_Device_Library/Core/Src/usbd_core.c **** }
 685              		.loc 1 579 0
 686 000c 0020     		movs	r0, #0
 687 000e 08BD     		pop	{r3, pc}
ARM GAS  /tmp/cclOLKrQ.s 			page 23


 688              	.LVL66:
 689              	.L59:
 569:Middlewares/ST/STM32_USB_Device_Library/Core/Src/usbd_core.c ****     {
 690              		.loc 1 569 0
 691 0010 D0F8B832 		ldr	r3, [r0, #696]
 692 0014 002B     		cmp	r3, #0
 693 0016 F9D0     		beq	.L57
 571:Middlewares/ST/STM32_USB_Device_Library/Core/Src/usbd_core.c ****       {
 694              		.loc 1 571 0
 695 0018 DB69     		ldr	r3, [r3, #28]
 696 001a 002B     		cmp	r3, #0
 697 001c F6D0     		beq	.L57
 573:Middlewares/ST/STM32_USB_Device_Library/Core/Src/usbd_core.c ****       }
 698              		.loc 1 573 0
 699 001e 9847     		blx	r3
 700              	.LVL67:
 701 0020 F4E7     		b	.L57
 702              		.cfi_endproc
 703              	.LFE147:
 705              		.section	.text.USBD_LL_IsoINIncomplete,"ax",%progbits
 706              		.align	1
 707              		.global	USBD_LL_IsoINIncomplete
 708              		.syntax unified
 709              		.thumb
 710              		.thumb_func
 711              		.fpu fpv4-sp-d16
 713              	USBD_LL_IsoINIncomplete:
 714              	.LFB148:
 580:Middlewares/ST/STM32_USB_Device_Library/Core/Src/usbd_core.c **** 
 581:Middlewares/ST/STM32_USB_Device_Library/Core/Src/usbd_core.c **** /**
 582:Middlewares/ST/STM32_USB_Device_Library/Core/Src/usbd_core.c ****   * @brief  USBD_LL_IsoINIncomplete
 583:Middlewares/ST/STM32_USB_Device_Library/Core/Src/usbd_core.c ****   *         Handle iso in incomplete event
 584:Middlewares/ST/STM32_USB_Device_Library/Core/Src/usbd_core.c ****   * @param  pdev: device instance
 585:Middlewares/ST/STM32_USB_Device_Library/Core/Src/usbd_core.c ****   * @retval status
 586:Middlewares/ST/STM32_USB_Device_Library/Core/Src/usbd_core.c ****   */
 587:Middlewares/ST/STM32_USB_Device_Library/Core/Src/usbd_core.c **** USBD_StatusTypeDef USBD_LL_IsoINIncomplete(USBD_HandleTypeDef *pdev,
 588:Middlewares/ST/STM32_USB_Device_Library/Core/Src/usbd_core.c ****                                            uint8_t epnum)
 589:Middlewares/ST/STM32_USB_Device_Library/Core/Src/usbd_core.c **** {
 715              		.loc 1 589 0
 716              		.cfi_startproc
 717              		@ args = 0, pretend = 0, frame = 0
 718              		@ frame_needed = 0, uses_anonymous_args = 0
 719              	.LVL68:
 720 0000 08B5     		push	{r3, lr}
 721              	.LCFI14:
 722              		.cfi_def_cfa_offset 8
 723              		.cfi_offset 3, -8
 724              		.cfi_offset 14, -4
 590:Middlewares/ST/STM32_USB_Device_Library/Core/Src/usbd_core.c ****   if (pdev->pClass[pdev->classId] == NULL)
 725              		.loc 1 590 0
 726 0002 D0F8D432 		ldr	r3, [r0, #724]
 727 0006 AE33     		adds	r3, r3, #174
 728 0008 50F82320 		ldr	r2, [r0, r3, lsl #2]
 729 000c 5AB1     		cbz	r2, .L62
 591:Middlewares/ST/STM32_USB_Device_Library/Core/Src/usbd_core.c ****   {
 592:Middlewares/ST/STM32_USB_Device_Library/Core/Src/usbd_core.c ****     return USBD_FAIL;
 593:Middlewares/ST/STM32_USB_Device_Library/Core/Src/usbd_core.c ****   }
ARM GAS  /tmp/cclOLKrQ.s 			page 24


 594:Middlewares/ST/STM32_USB_Device_Library/Core/Src/usbd_core.c **** 
 595:Middlewares/ST/STM32_USB_Device_Library/Core/Src/usbd_core.c ****   if (pdev->dev_state == USBD_STATE_CONFIGURED)
 730              		.loc 1 595 0
 731 000e 90F89C32 		ldrb	r3, [r0, #668]	@ zero_extendqisi2
 732 0012 DBB2     		uxtb	r3, r3
 733 0014 032B     		cmp	r3, #3
 734 0016 01D0     		beq	.L66
 596:Middlewares/ST/STM32_USB_Device_Library/Core/Src/usbd_core.c ****   {
 597:Middlewares/ST/STM32_USB_Device_Library/Core/Src/usbd_core.c ****     if (pdev->pClass[pdev->classId]->IsoINIncomplete != NULL)
 598:Middlewares/ST/STM32_USB_Device_Library/Core/Src/usbd_core.c ****     {
 599:Middlewares/ST/STM32_USB_Device_Library/Core/Src/usbd_core.c ****       (void)pdev->pClass[pdev->classId]->IsoINIncomplete(pdev, epnum);
 600:Middlewares/ST/STM32_USB_Device_Library/Core/Src/usbd_core.c ****     }
 601:Middlewares/ST/STM32_USB_Device_Library/Core/Src/usbd_core.c ****   }
 602:Middlewares/ST/STM32_USB_Device_Library/Core/Src/usbd_core.c **** 
 603:Middlewares/ST/STM32_USB_Device_Library/Core/Src/usbd_core.c ****   return USBD_OK;
 735              		.loc 1 603 0
 736 0018 0020     		movs	r0, #0
 737              	.LVL69:
 738 001a 08BD     		pop	{r3, pc}
 739              	.LVL70:
 740              	.L66:
 597:Middlewares/ST/STM32_USB_Device_Library/Core/Src/usbd_core.c ****     {
 741              		.loc 1 597 0
 742 001c 136A     		ldr	r3, [r2, #32]
 743 001e 23B1     		cbz	r3, .L64
 599:Middlewares/ST/STM32_USB_Device_Library/Core/Src/usbd_core.c ****     }
 744              		.loc 1 599 0
 745 0020 9847     		blx	r3
 746              	.LVL71:
 747              		.loc 1 603 0
 748 0022 0020     		movs	r0, #0
 749 0024 08BD     		pop	{r3, pc}
 750              	.LVL72:
 751              	.L62:
 592:Middlewares/ST/STM32_USB_Device_Library/Core/Src/usbd_core.c ****   }
 752              		.loc 1 592 0
 753 0026 0320     		movs	r0, #3
 754              	.LVL73:
 755 0028 08BD     		pop	{r3, pc}
 756              	.LVL74:
 757              	.L64:
 758              		.loc 1 603 0
 759 002a 0020     		movs	r0, #0
 760              	.LVL75:
 604:Middlewares/ST/STM32_USB_Device_Library/Core/Src/usbd_core.c **** }
 761              		.loc 1 604 0
 762 002c 08BD     		pop	{r3, pc}
 763              		.cfi_endproc
 764              	.LFE148:
 766              		.section	.text.USBD_LL_IsoOUTIncomplete,"ax",%progbits
 767              		.align	1
 768              		.global	USBD_LL_IsoOUTIncomplete
 769              		.syntax unified
 770              		.thumb
 771              		.thumb_func
 772              		.fpu fpv4-sp-d16
 774              	USBD_LL_IsoOUTIncomplete:
ARM GAS  /tmp/cclOLKrQ.s 			page 25


 775              	.LFB149:
 605:Middlewares/ST/STM32_USB_Device_Library/Core/Src/usbd_core.c **** 
 606:Middlewares/ST/STM32_USB_Device_Library/Core/Src/usbd_core.c **** /**
 607:Middlewares/ST/STM32_USB_Device_Library/Core/Src/usbd_core.c ****   * @brief  USBD_LL_IsoOUTIncomplete
 608:Middlewares/ST/STM32_USB_Device_Library/Core/Src/usbd_core.c ****   *         Handle iso out incomplete event
 609:Middlewares/ST/STM32_USB_Device_Library/Core/Src/usbd_core.c ****   * @param  pdev: device instance
 610:Middlewares/ST/STM32_USB_Device_Library/Core/Src/usbd_core.c ****   * @retval status
 611:Middlewares/ST/STM32_USB_Device_Library/Core/Src/usbd_core.c ****   */
 612:Middlewares/ST/STM32_USB_Device_Library/Core/Src/usbd_core.c **** USBD_StatusTypeDef USBD_LL_IsoOUTIncomplete(USBD_HandleTypeDef *pdev,
 613:Middlewares/ST/STM32_USB_Device_Library/Core/Src/usbd_core.c ****                                             uint8_t epnum)
 614:Middlewares/ST/STM32_USB_Device_Library/Core/Src/usbd_core.c **** {
 776              		.loc 1 614 0
 777              		.cfi_startproc
 778              		@ args = 0, pretend = 0, frame = 0
 779              		@ frame_needed = 0, uses_anonymous_args = 0
 780              	.LVL76:
 781 0000 08B5     		push	{r3, lr}
 782              	.LCFI15:
 783              		.cfi_def_cfa_offset 8
 784              		.cfi_offset 3, -8
 785              		.cfi_offset 14, -4
 615:Middlewares/ST/STM32_USB_Device_Library/Core/Src/usbd_core.c ****   if (pdev->pClass[pdev->classId] == NULL)
 786              		.loc 1 615 0
 787 0002 D0F8D432 		ldr	r3, [r0, #724]
 788 0006 AE33     		adds	r3, r3, #174
 789 0008 50F82320 		ldr	r2, [r0, r3, lsl #2]
 790 000c 5AB1     		cbz	r2, .L69
 616:Middlewares/ST/STM32_USB_Device_Library/Core/Src/usbd_core.c ****   {
 617:Middlewares/ST/STM32_USB_Device_Library/Core/Src/usbd_core.c ****     return USBD_FAIL;
 618:Middlewares/ST/STM32_USB_Device_Library/Core/Src/usbd_core.c ****   }
 619:Middlewares/ST/STM32_USB_Device_Library/Core/Src/usbd_core.c **** 
 620:Middlewares/ST/STM32_USB_Device_Library/Core/Src/usbd_core.c ****   if (pdev->dev_state == USBD_STATE_CONFIGURED)
 791              		.loc 1 620 0
 792 000e 90F89C32 		ldrb	r3, [r0, #668]	@ zero_extendqisi2
 793 0012 DBB2     		uxtb	r3, r3
 794 0014 032B     		cmp	r3, #3
 795 0016 01D0     		beq	.L73
 621:Middlewares/ST/STM32_USB_Device_Library/Core/Src/usbd_core.c ****   {
 622:Middlewares/ST/STM32_USB_Device_Library/Core/Src/usbd_core.c ****     if (pdev->pClass[pdev->classId]->IsoOUTIncomplete != NULL)
 623:Middlewares/ST/STM32_USB_Device_Library/Core/Src/usbd_core.c ****     {
 624:Middlewares/ST/STM32_USB_Device_Library/Core/Src/usbd_core.c ****       (void)pdev->pClass[pdev->classId]->IsoOUTIncomplete(pdev, epnum);
 625:Middlewares/ST/STM32_USB_Device_Library/Core/Src/usbd_core.c ****     }
 626:Middlewares/ST/STM32_USB_Device_Library/Core/Src/usbd_core.c ****   }
 627:Middlewares/ST/STM32_USB_Device_Library/Core/Src/usbd_core.c **** 
 628:Middlewares/ST/STM32_USB_Device_Library/Core/Src/usbd_core.c ****   return USBD_OK;
 796              		.loc 1 628 0
 797 0018 0020     		movs	r0, #0
 798              	.LVL77:
 799 001a 08BD     		pop	{r3, pc}
 800              	.LVL78:
 801              	.L73:
 622:Middlewares/ST/STM32_USB_Device_Library/Core/Src/usbd_core.c ****     {
 802              		.loc 1 622 0
 803 001c 536A     		ldr	r3, [r2, #36]
 804 001e 23B1     		cbz	r3, .L71
 624:Middlewares/ST/STM32_USB_Device_Library/Core/Src/usbd_core.c ****     }
 805              		.loc 1 624 0
ARM GAS  /tmp/cclOLKrQ.s 			page 26


 806 0020 9847     		blx	r3
 807              	.LVL79:
 808              		.loc 1 628 0
 809 0022 0020     		movs	r0, #0
 810 0024 08BD     		pop	{r3, pc}
 811              	.LVL80:
 812              	.L69:
 617:Middlewares/ST/STM32_USB_Device_Library/Core/Src/usbd_core.c ****   }
 813              		.loc 1 617 0
 814 0026 0320     		movs	r0, #3
 815              	.LVL81:
 816 0028 08BD     		pop	{r3, pc}
 817              	.LVL82:
 818              	.L71:
 819              		.loc 1 628 0
 820 002a 0020     		movs	r0, #0
 821              	.LVL83:
 629:Middlewares/ST/STM32_USB_Device_Library/Core/Src/usbd_core.c **** }
 822              		.loc 1 629 0
 823 002c 08BD     		pop	{r3, pc}
 824              		.cfi_endproc
 825              	.LFE149:
 827              		.section	.text.USBD_LL_DevConnected,"ax",%progbits
 828              		.align	1
 829              		.global	USBD_LL_DevConnected
 830              		.syntax unified
 831              		.thumb
 832              		.thumb_func
 833              		.fpu fpv4-sp-d16
 835              	USBD_LL_DevConnected:
 836              	.LFB150:
 630:Middlewares/ST/STM32_USB_Device_Library/Core/Src/usbd_core.c **** 
 631:Middlewares/ST/STM32_USB_Device_Library/Core/Src/usbd_core.c **** /**
 632:Middlewares/ST/STM32_USB_Device_Library/Core/Src/usbd_core.c ****   * @brief  USBD_LL_DevConnected
 633:Middlewares/ST/STM32_USB_Device_Library/Core/Src/usbd_core.c ****   *         Handle device connection event
 634:Middlewares/ST/STM32_USB_Device_Library/Core/Src/usbd_core.c ****   * @param  pdev: device instance
 635:Middlewares/ST/STM32_USB_Device_Library/Core/Src/usbd_core.c ****   * @retval status
 636:Middlewares/ST/STM32_USB_Device_Library/Core/Src/usbd_core.c ****   */
 637:Middlewares/ST/STM32_USB_Device_Library/Core/Src/usbd_core.c **** USBD_StatusTypeDef USBD_LL_DevConnected(USBD_HandleTypeDef *pdev)
 638:Middlewares/ST/STM32_USB_Device_Library/Core/Src/usbd_core.c **** {
 837              		.loc 1 638 0
 838              		.cfi_startproc
 839              		@ args = 0, pretend = 0, frame = 0
 840              		@ frame_needed = 0, uses_anonymous_args = 0
 841              		@ link register save eliminated.
 842              	.LVL84:
 639:Middlewares/ST/STM32_USB_Device_Library/Core/Src/usbd_core.c ****   /* Prevent unused argument compilation warning */
 640:Middlewares/ST/STM32_USB_Device_Library/Core/Src/usbd_core.c ****   UNUSED(pdev);
 641:Middlewares/ST/STM32_USB_Device_Library/Core/Src/usbd_core.c **** 
 642:Middlewares/ST/STM32_USB_Device_Library/Core/Src/usbd_core.c ****   return USBD_OK;
 643:Middlewares/ST/STM32_USB_Device_Library/Core/Src/usbd_core.c **** }
 843              		.loc 1 643 0
 844 0000 0020     		movs	r0, #0
 845              	.LVL85:
 846 0002 7047     		bx	lr
 847              		.cfi_endproc
 848              	.LFE150:
ARM GAS  /tmp/cclOLKrQ.s 			page 27


 850              		.section	.text.USBD_LL_DevDisconnected,"ax",%progbits
 851              		.align	1
 852              		.global	USBD_LL_DevDisconnected
 853              		.syntax unified
 854              		.thumb
 855              		.thumb_func
 856              		.fpu fpv4-sp-d16
 858              	USBD_LL_DevDisconnected:
 859              	.LFB151:
 644:Middlewares/ST/STM32_USB_Device_Library/Core/Src/usbd_core.c **** 
 645:Middlewares/ST/STM32_USB_Device_Library/Core/Src/usbd_core.c **** /**
 646:Middlewares/ST/STM32_USB_Device_Library/Core/Src/usbd_core.c ****   * @brief  USBD_LL_DevDisconnected
 647:Middlewares/ST/STM32_USB_Device_Library/Core/Src/usbd_core.c ****   *         Handle device disconnection event
 648:Middlewares/ST/STM32_USB_Device_Library/Core/Src/usbd_core.c ****   * @param  pdev: device instance
 649:Middlewares/ST/STM32_USB_Device_Library/Core/Src/usbd_core.c ****   * @retval status
 650:Middlewares/ST/STM32_USB_Device_Library/Core/Src/usbd_core.c ****   */
 651:Middlewares/ST/STM32_USB_Device_Library/Core/Src/usbd_core.c **** USBD_StatusTypeDef USBD_LL_DevDisconnected(USBD_HandleTypeDef *pdev)
 652:Middlewares/ST/STM32_USB_Device_Library/Core/Src/usbd_core.c **** {
 860              		.loc 1 652 0
 861              		.cfi_startproc
 862              		@ args = 0, pretend = 0, frame = 0
 863              		@ frame_needed = 0, uses_anonymous_args = 0
 864              	.LVL86:
 865 0000 08B5     		push	{r3, lr}
 866              	.LCFI16:
 867              		.cfi_def_cfa_offset 8
 868              		.cfi_offset 3, -8
 869              		.cfi_offset 14, -4
 870              	.LVL87:
 653:Middlewares/ST/STM32_USB_Device_Library/Core/Src/usbd_core.c ****   USBD_StatusTypeDef   ret = USBD_OK;
 654:Middlewares/ST/STM32_USB_Device_Library/Core/Src/usbd_core.c **** 
 655:Middlewares/ST/STM32_USB_Device_Library/Core/Src/usbd_core.c ****   /* Free Class Resources */
 656:Middlewares/ST/STM32_USB_Device_Library/Core/Src/usbd_core.c ****   pdev->dev_state = USBD_STATE_DEFAULT;
 871              		.loc 1 656 0
 872 0002 0123     		movs	r3, #1
 873 0004 80F89C32 		strb	r3, [r0, #668]
 657:Middlewares/ST/STM32_USB_Device_Library/Core/Src/usbd_core.c **** 
 658:Middlewares/ST/STM32_USB_Device_Library/Core/Src/usbd_core.c ****   if (pdev->pClass[0] != NULL)
 874              		.loc 1 658 0
 875 0008 D0F8B832 		ldr	r3, [r0, #696]
 876 000c 33B1     		cbz	r3, .L77
 659:Middlewares/ST/STM32_USB_Device_Library/Core/Src/usbd_core.c ****   {
 660:Middlewares/ST/STM32_USB_Device_Library/Core/Src/usbd_core.c ****     if (pdev->pClass[0]->DeInit(pdev, (uint8_t)pdev->dev_config) != 0U)
 877              		.loc 1 660 0
 878 000e 5B68     		ldr	r3, [r3, #4]
 879 0010 0179     		ldrb	r1, [r0, #4]	@ zero_extendqisi2
 880 0012 9847     		blx	r3
 881              	.LVL88:
 882 0014 08B1     		cbz	r0, .L80
 661:Middlewares/ST/STM32_USB_Device_Library/Core/Src/usbd_core.c ****     {
 662:Middlewares/ST/STM32_USB_Device_Library/Core/Src/usbd_core.c ****       ret = USBD_FAIL;
 883              		.loc 1 662 0
 884 0016 0320     		movs	r0, #3
 885              	.LVL89:
 663:Middlewares/ST/STM32_USB_Device_Library/Core/Src/usbd_core.c ****     }
 664:Middlewares/ST/STM32_USB_Device_Library/Core/Src/usbd_core.c ****   }
 665:Middlewares/ST/STM32_USB_Device_Library/Core/Src/usbd_core.c **** 
ARM GAS  /tmp/cclOLKrQ.s 			page 28


 666:Middlewares/ST/STM32_USB_Device_Library/Core/Src/usbd_core.c ****   return ret;
 667:Middlewares/ST/STM32_USB_Device_Library/Core/Src/usbd_core.c **** }
 886              		.loc 1 667 0
 887 0018 08BD     		pop	{r3, pc}
 888              	.LVL90:
 889              	.L80:
 890 001a 08BD     		pop	{r3, pc}
 891              	.LVL91:
 892              	.L77:
 653:Middlewares/ST/STM32_USB_Device_Library/Core/Src/usbd_core.c **** 
 893              		.loc 1 653 0
 894 001c 0020     		movs	r0, #0
 895              	.LVL92:
 896 001e 08BD     		pop	{r3, pc}
 897              		.cfi_endproc
 898              	.LFE151:
 900              		.section	.text.USBD_CoreFindIF,"ax",%progbits
 901              		.align	1
 902              		.global	USBD_CoreFindIF
 903              		.syntax unified
 904              		.thumb
 905              		.thumb_func
 906              		.fpu fpv4-sp-d16
 908              	USBD_CoreFindIF:
 909              	.LFB152:
 668:Middlewares/ST/STM32_USB_Device_Library/Core/Src/usbd_core.c **** 
 669:Middlewares/ST/STM32_USB_Device_Library/Core/Src/usbd_core.c **** /**
 670:Middlewares/ST/STM32_USB_Device_Library/Core/Src/usbd_core.c ****   * @brief  USBD_CoreFindIF
 671:Middlewares/ST/STM32_USB_Device_Library/Core/Src/usbd_core.c ****   *         return the class index relative to the selected interface
 672:Middlewares/ST/STM32_USB_Device_Library/Core/Src/usbd_core.c ****   * @param  pdev: device instance
 673:Middlewares/ST/STM32_USB_Device_Library/Core/Src/usbd_core.c ****   * @param  index : selected interface number
 674:Middlewares/ST/STM32_USB_Device_Library/Core/Src/usbd_core.c ****   * @retval index of the class using the selected interface number. OxFF if no class found.
 675:Middlewares/ST/STM32_USB_Device_Library/Core/Src/usbd_core.c ****   */
 676:Middlewares/ST/STM32_USB_Device_Library/Core/Src/usbd_core.c **** uint8_t USBD_CoreFindIF(USBD_HandleTypeDef *pdev, uint8_t index)
 677:Middlewares/ST/STM32_USB_Device_Library/Core/Src/usbd_core.c **** {
 910              		.loc 1 677 0
 911              		.cfi_startproc
 912              		@ args = 0, pretend = 0, frame = 0
 913              		@ frame_needed = 0, uses_anonymous_args = 0
 914              		@ link register save eliminated.
 915              	.LVL93:
 678:Middlewares/ST/STM32_USB_Device_Library/Core/Src/usbd_core.c ****   UNUSED(pdev);
 679:Middlewares/ST/STM32_USB_Device_Library/Core/Src/usbd_core.c ****   UNUSED(index);
 680:Middlewares/ST/STM32_USB_Device_Library/Core/Src/usbd_core.c **** 
 681:Middlewares/ST/STM32_USB_Device_Library/Core/Src/usbd_core.c ****   return 0x00U;
 682:Middlewares/ST/STM32_USB_Device_Library/Core/Src/usbd_core.c **** }
 916              		.loc 1 682 0
 917 0000 0020     		movs	r0, #0
 918              	.LVL94:
 919 0002 7047     		bx	lr
 920              		.cfi_endproc
 921              	.LFE152:
 923              		.section	.text.USBD_CoreFindEP,"ax",%progbits
 924              		.align	1
 925              		.global	USBD_CoreFindEP
 926              		.syntax unified
 927              		.thumb
ARM GAS  /tmp/cclOLKrQ.s 			page 29


 928              		.thumb_func
 929              		.fpu fpv4-sp-d16
 931              	USBD_CoreFindEP:
 932              	.LFB153:
 683:Middlewares/ST/STM32_USB_Device_Library/Core/Src/usbd_core.c **** 
 684:Middlewares/ST/STM32_USB_Device_Library/Core/Src/usbd_core.c **** /**
 685:Middlewares/ST/STM32_USB_Device_Library/Core/Src/usbd_core.c ****   * @brief  USBD_CoreFindEP
 686:Middlewares/ST/STM32_USB_Device_Library/Core/Src/usbd_core.c ****   *         return the class index relative to the selected endpoint
 687:Middlewares/ST/STM32_USB_Device_Library/Core/Src/usbd_core.c ****   * @param  pdev: device instance
 688:Middlewares/ST/STM32_USB_Device_Library/Core/Src/usbd_core.c ****   * @param  index : selected endpoint number
 689:Middlewares/ST/STM32_USB_Device_Library/Core/Src/usbd_core.c ****   * @retval index of the class using the selected endpoint number. 0xFF if no class found.
 690:Middlewares/ST/STM32_USB_Device_Library/Core/Src/usbd_core.c ****   */
 691:Middlewares/ST/STM32_USB_Device_Library/Core/Src/usbd_core.c **** uint8_t USBD_CoreFindEP(USBD_HandleTypeDef *pdev, uint8_t index)
 692:Middlewares/ST/STM32_USB_Device_Library/Core/Src/usbd_core.c **** {
 933              		.loc 1 692 0
 934              		.cfi_startproc
 935              		@ args = 0, pretend = 0, frame = 0
 936              		@ frame_needed = 0, uses_anonymous_args = 0
 937              		@ link register save eliminated.
 938              	.LVL95:
 693:Middlewares/ST/STM32_USB_Device_Library/Core/Src/usbd_core.c ****   UNUSED(pdev);
 694:Middlewares/ST/STM32_USB_Device_Library/Core/Src/usbd_core.c ****   UNUSED(index);
 695:Middlewares/ST/STM32_USB_Device_Library/Core/Src/usbd_core.c **** 
 696:Middlewares/ST/STM32_USB_Device_Library/Core/Src/usbd_core.c ****   return 0x00U;
 697:Middlewares/ST/STM32_USB_Device_Library/Core/Src/usbd_core.c **** }
 939              		.loc 1 697 0
 940 0000 0020     		movs	r0, #0
 941              	.LVL96:
 942 0002 7047     		bx	lr
 943              		.cfi_endproc
 944              	.LFE153:
 946              		.section	.text.USBD_LL_DataOutStage,"ax",%progbits
 947              		.align	1
 948              		.global	USBD_LL_DataOutStage
 949              		.syntax unified
 950              		.thumb
 951              		.thumb_func
 952              		.fpu fpv4-sp-d16
 954              	USBD_LL_DataOutStage:
 955              	.LFB141:
 287:Middlewares/ST/STM32_USB_Device_Library/Core/Src/usbd_core.c ****   USBD_EndpointTypeDef *pep;
 956              		.loc 1 287 0
 957              		.cfi_startproc
 958              		@ args = 0, pretend = 0, frame = 0
 959              		@ frame_needed = 0, uses_anonymous_args = 0
 960              	.LVL97:
 961 0000 38B5     		push	{r3, r4, r5, lr}
 962              	.LCFI17:
 963              		.cfi_def_cfa_offset 16
 964              		.cfi_offset 3, -16
 965              		.cfi_offset 4, -12
 966              		.cfi_offset 5, -8
 967              		.cfi_offset 14, -4
 968 0002 0446     		mov	r4, r0
 969              	.LVL98:
 292:Middlewares/ST/STM32_USB_Device_Library/Core/Src/usbd_core.c ****   {
 970              		.loc 1 292 0
ARM GAS  /tmp/cclOLKrQ.s 			page 30


 971 0004 0D46     		mov	r5, r1
 972 0006 0029     		cmp	r1, #0
 973 0008 46D1     		bne	.L84
 974 000a 1346     		mov	r3, r2
 975              	.LVL99:
 296:Middlewares/ST/STM32_USB_Device_Library/Core/Src/usbd_core.c ****     {
 976              		.loc 1 296 0
 977 000c D0F89422 		ldr	r2, [r0, #660]
 978              	.LVL100:
 979 0010 032A     		cmp	r2, #3
 980 0012 01D0     		beq	.L97
 372:Middlewares/ST/STM32_USB_Device_Library/Core/Src/usbd_core.c **** }
 981              		.loc 1 372 0
 982 0014 0020     		movs	r0, #0
 983              	.LVL101:
 984 0016 38BD     		pop	{r3, r4, r5, pc}
 985              	.LVL102:
 986              	.L97:
 298:Middlewares/ST/STM32_USB_Device_Library/Core/Src/usbd_core.c ****       {
 987              		.loc 1 298 0
 988 0018 D0F85C11 		ldr	r1, [r0, #348]
 989              	.LVL103:
 990 001c D0F86021 		ldr	r2, [r0, #352]
 991 0020 9142     		cmp	r1, r2
 992 0022 12D8     		bhi	.L98
 307:Middlewares/ST/STM32_USB_Device_Library/Core/Src/usbd_core.c ****         {
 993              		.loc 1 307 0
 994 0024 90F8AA32 		ldrb	r3, [r0, #682]	@ zero_extendqisi2
 995              	.LVL104:
 996 0028 03F01F03 		and	r3, r3, #31
 997 002c 012B     		cmp	r3, #1
 998 002e 17D0     		beq	.L88
 999 0030 022B     		cmp	r3, #2
 1000 0032 1BD0     		beq	.L89
 1001              	.LVL105:
 1002              	.L87:
 329:Middlewares/ST/STM32_USB_Device_Library/Core/Src/usbd_core.c ****         {
 1003              		.loc 1 329 0
 1004 0034 25B9     		cbnz	r5, .L90
 332:Middlewares/ST/STM32_USB_Device_Library/Core/Src/usbd_core.c ****           {
 1005              		.loc 1 332 0
 1006 0036 94F89C32 		ldrb	r3, [r4, #668]	@ zero_extendqisi2
 1007 003a DBB2     		uxtb	r3, r3
 1008 003c 032B     		cmp	r3, #3
 1009 003e 1BD0     		beq	.L99
 1010              	.LVL106:
 1011              	.L90:
 342:Middlewares/ST/STM32_USB_Device_Library/Core/Src/usbd_core.c ****       }
 1012              		.loc 1 342 0
 1013 0040 2046     		mov	r0, r4
 1014 0042 FFF7FEFF 		bl	USBD_CtlSendStatus
 1015              	.LVL107:
 372:Middlewares/ST/STM32_USB_Device_Library/Core/Src/usbd_core.c **** }
 1016              		.loc 1 372 0
 1017 0046 0020     		movs	r0, #0
 1018 0048 38BD     		pop	{r3, r4, r5, pc}
 1019              	.LVL108:
ARM GAS  /tmp/cclOLKrQ.s 			page 31


 1020              	.L98:
 300:Middlewares/ST/STM32_USB_Device_Library/Core/Src/usbd_core.c **** 
 1021              		.loc 1 300 0
 1022 004a 891A     		subs	r1, r1, r2
 1023 004c C0F85C11 		str	r1, [r0, #348]
 302:Middlewares/ST/STM32_USB_Device_Library/Core/Src/usbd_core.c ****       }
 1024              		.loc 1 302 0
 1025 0050 8A42     		cmp	r2, r1
 1026 0052 28BF     		it	cs
 1027 0054 0A46     		movcs	r2, r1
 1028 0056 1946     		mov	r1, r3
 1029 0058 FFF7FEFF 		bl	USBD_CtlContinueRx
 1030              	.LVL109:
 372:Middlewares/ST/STM32_USB_Device_Library/Core/Src/usbd_core.c **** }
 1031              		.loc 1 372 0
 1032 005c 0020     		movs	r0, #0
 1033 005e 38BD     		pop	{r3, r4, r5, pc}
 1034              	.LVL110:
 1035              	.L88:
 316:Middlewares/ST/STM32_USB_Device_Library/Core/Src/usbd_core.c ****             break;
 1036              		.loc 1 316 0
 1037 0060 90F8AE12 		ldrb	r1, [r0, #686]	@ zero_extendqisi2
 1038 0064 FFF7FEFF 		bl	USBD_CoreFindIF
 1039              	.LVL111:
 1040 0068 0546     		mov	r5, r0
 1041              	.LVL112:
 317:Middlewares/ST/STM32_USB_Device_Library/Core/Src/usbd_core.c **** 
 1042              		.loc 1 317 0
 1043 006a E3E7     		b	.L87
 1044              	.LVL113:
 1045              	.L89:
 320:Middlewares/ST/STM32_USB_Device_Library/Core/Src/usbd_core.c ****             break;
 1046              		.loc 1 320 0
 1047 006c 90F8AE12 		ldrb	r1, [r0, #686]	@ zero_extendqisi2
 1048 0070 FFF7FEFF 		bl	USBD_CoreFindEP
 1049              	.LVL114:
 1050 0074 0546     		mov	r5, r0
 1051              	.LVL115:
 321:Middlewares/ST/STM32_USB_Device_Library/Core/Src/usbd_core.c **** 
 1052              		.loc 1 321 0
 1053 0076 DDE7     		b	.L87
 1054              	.L99:
 334:Middlewares/ST/STM32_USB_Device_Library/Core/Src/usbd_core.c ****             {
 1055              		.loc 1 334 0
 1056 0078 05F1AE03 		add	r3, r5, #174
 1057 007c 54F82330 		ldr	r3, [r4, r3, lsl #2]
 1058 0080 1B69     		ldr	r3, [r3, #16]
 1059 0082 002B     		cmp	r3, #0
 1060 0084 DCD0     		beq	.L90
 336:Middlewares/ST/STM32_USB_Device_Library/Core/Src/usbd_core.c ****               pdev->pClass[idx]->EP0_RxReady(pdev);
 1061              		.loc 1 336 0
 1062 0086 C4F8D452 		str	r5, [r4, #724]
 337:Middlewares/ST/STM32_USB_Device_Library/Core/Src/usbd_core.c ****             }
 1063              		.loc 1 337 0
 1064 008a AE35     		adds	r5, r5, #174
 1065              	.LVL116:
 1066 008c 54F82530 		ldr	r3, [r4, r5, lsl #2]
ARM GAS  /tmp/cclOLKrQ.s 			page 32


 1067 0090 1B69     		ldr	r3, [r3, #16]
 1068 0092 2046     		mov	r0, r4
 1069 0094 9847     		blx	r3
 1070              	.LVL117:
 1071 0096 D3E7     		b	.L90
 1072              	.LVL118:
 1073              	.L84:
 352:Middlewares/ST/STM32_USB_Device_Library/Core/Src/usbd_core.c **** 
 1074              		.loc 1 352 0
 1075 0098 01F07F01 		and	r1, r1, #127
 1076              	.LVL119:
 1077 009c FFF7FEFF 		bl	USBD_CoreFindEP
 1078              	.LVL120:
 354:Middlewares/ST/STM32_USB_Device_Library/Core/Src/usbd_core.c ****     {
 1079              		.loc 1 354 0
 1080 00a0 0246     		mov	r2, r0
 1081 00a2 C0B9     		cbnz	r0, .L93
 357:Middlewares/ST/STM32_USB_Device_Library/Core/Src/usbd_core.c ****       {
 1082              		.loc 1 357 0
 1083 00a4 94F89C32 		ldrb	r3, [r4, #668]	@ zero_extendqisi2
 1084 00a8 DBB2     		uxtb	r3, r3
 1085 00aa 032B     		cmp	r3, #3
 1086 00ac 01D0     		beq	.L100
 289:Middlewares/ST/STM32_USB_Device_Library/Core/Src/usbd_core.c ****   uint8_t idx;
 1087              		.loc 1 289 0
 1088 00ae 0020     		movs	r0, #0
 1089              	.LVL121:
 1090 00b0 38BD     		pop	{r3, r4, r5, pc}
 1091              	.LVL122:
 1092              	.L100:
 359:Middlewares/ST/STM32_USB_Device_Library/Core/Src/usbd_core.c ****         {
 1093              		.loc 1 359 0
 1094 00b2 00F1AE03 		add	r3, r0, #174
 1095 00b6 54F82330 		ldr	r3, [r4, r3, lsl #2]
 1096 00ba 9B69     		ldr	r3, [r3, #24]
 1097 00bc 4BB1     		cbz	r3, .L95
 361:Middlewares/ST/STM32_USB_Device_Library/Core/Src/usbd_core.c ****           ret = (USBD_StatusTypeDef)pdev->pClass[idx]->DataOut(pdev, epnum);
 1098              		.loc 1 361 0
 1099 00be C4F8D402 		str	r0, [r4, #724]
 362:Middlewares/ST/STM32_USB_Device_Library/Core/Src/usbd_core.c ****         }
 1100              		.loc 1 362 0
 1101 00c2 AE32     		adds	r2, r2, #174
 1102 00c4 54F82230 		ldr	r3, [r4, r2, lsl #2]
 1103 00c8 9B69     		ldr	r3, [r3, #24]
 1104 00ca 2946     		mov	r1, r5
 1105 00cc 2046     		mov	r0, r4
 1106              	.LVL123:
 1107 00ce 9847     		blx	r3
 1108              	.LVL124:
 1109 00d0 38BD     		pop	{r3, r4, r5, pc}
 1110              	.LVL125:
 1111              	.L95:
 289:Middlewares/ST/STM32_USB_Device_Library/Core/Src/usbd_core.c ****   uint8_t idx;
 1112              		.loc 1 289 0
 1113 00d2 0020     		movs	r0, #0
 1114              	.LVL126:
 1115 00d4 38BD     		pop	{r3, r4, r5, pc}
ARM GAS  /tmp/cclOLKrQ.s 			page 33


 1116              	.LVL127:
 1117              	.L93:
 372:Middlewares/ST/STM32_USB_Device_Library/Core/Src/usbd_core.c **** }
 1118              		.loc 1 372 0
 1119 00d6 0020     		movs	r0, #0
 1120              	.LVL128:
 373:Middlewares/ST/STM32_USB_Device_Library/Core/Src/usbd_core.c **** 
 1121              		.loc 1 373 0
 1122 00d8 38BD     		pop	{r3, r4, r5, pc}
 1123              		.cfi_endproc
 1124              	.LFE141:
 1126              		.section	.text.USBD_LL_DataInStage,"ax",%progbits
 1127              		.align	1
 1128              		.global	USBD_LL_DataInStage
 1129              		.syntax unified
 1130              		.thumb
 1131              		.thumb_func
 1132              		.fpu fpv4-sp-d16
 1134              	USBD_LL_DataInStage:
 1135              	.LFB142:
 384:Middlewares/ST/STM32_USB_Device_Library/Core/Src/usbd_core.c ****   USBD_EndpointTypeDef *pep;
 1136              		.loc 1 384 0
 1137              		.cfi_startproc
 1138              		@ args = 0, pretend = 0, frame = 0
 1139              		@ frame_needed = 0, uses_anonymous_args = 0
 1140              	.LVL129:
 1141 0000 38B5     		push	{r3, r4, r5, lr}
 1142              	.LCFI18:
 1143              		.cfi_def_cfa_offset 16
 1144              		.cfi_offset 3, -16
 1145              		.cfi_offset 4, -12
 1146              		.cfi_offset 5, -8
 1147              		.cfi_offset 14, -4
 1148 0002 0446     		mov	r4, r0
 389:Middlewares/ST/STM32_USB_Device_Library/Core/Src/usbd_core.c ****   {
 1149              		.loc 1 389 0
 1150 0004 0029     		cmp	r1, #0
 1151 0006 4BD1     		bne	.L102
 1152 0008 1346     		mov	r3, r2
 1153              	.LVL130:
 393:Middlewares/ST/STM32_USB_Device_Library/Core/Src/usbd_core.c ****     {
 1154              		.loc 1 393 0
 1155 000a D0F89422 		ldr	r2, [r0, #660]
 1156              	.LVL131:
 1157 000e 022A     		cmp	r2, #2
 1158 0010 07D0     		beq	.L113
 1159              	.LVL132:
 1160              	.L103:
 433:Middlewares/ST/STM32_USB_Device_Library/Core/Src/usbd_core.c ****     {
 1161              		.loc 1 433 0
 1162 0012 94F8A032 		ldrb	r3, [r4, #672]	@ zero_extendqisi2
 1163 0016 002B     		cmp	r3, #0
 1164 0018 60D0     		beq	.L108
 436:Middlewares/ST/STM32_USB_Device_Library/Core/Src/usbd_core.c ****     }
 1165              		.loc 1 436 0
 1166 001a 0020     		movs	r0, #0
 1167 001c 84F8A002 		strb	r0, [r4, #672]
ARM GAS  /tmp/cclOLKrQ.s 			page 34


 1168 0020 38BD     		pop	{r3, r4, r5, pc}
 1169              	.LVL133:
 1170              	.L113:
 395:Middlewares/ST/STM32_USB_Device_Library/Core/Src/usbd_core.c ****       {
 1171              		.loc 1 395 0
 1172 0022 C269     		ldr	r2, [r0, #28]
 1173 0024 016A     		ldr	r1, [r0, #32]
 1174              	.LVL134:
 1175 0026 8A42     		cmp	r2, r1
 1176 0028 0ED8     		bhi	.L114
 407:Middlewares/ST/STM32_USB_Device_Library/Core/Src/usbd_core.c ****             (pep->total_length >= pep->maxpacket) &&
 1177              		.loc 1 407 0
 1178 002a 8A42     		cmp	r2, r1
 1179 002c 18D0     		beq	.L115
 1180              	.LVL135:
 1181              	.L105:
 419:Middlewares/ST/STM32_USB_Device_Library/Core/Src/usbd_core.c ****           {
 1182              		.loc 1 419 0
 1183 002e 94F89C32 		ldrb	r3, [r4, #668]	@ zero_extendqisi2
 1184 0032 DBB2     		uxtb	r3, r3
 1185 0034 032B     		cmp	r3, #3
 1186 0036 27D0     		beq	.L116
 1187              	.LVL136:
 1188              	.L106:
 427:Middlewares/ST/STM32_USB_Device_Library/Core/Src/usbd_core.c ****           (void)USBD_CtlReceiveStatus(pdev);
 1189              		.loc 1 427 0
 1190 0038 8021     		movs	r1, #128
 1191 003a 2046     		mov	r0, r4
 1192 003c FFF7FEFF 		bl	USBD_LL_StallEP
 1193              	.LVL137:
 428:Middlewares/ST/STM32_USB_Device_Library/Core/Src/usbd_core.c ****         }
 1194              		.loc 1 428 0
 1195 0040 2046     		mov	r0, r4
 1196 0042 FFF7FEFF 		bl	USBD_CtlReceiveStatus
 1197              	.LVL138:
 1198 0046 E4E7     		b	.L103
 1199              	.LVL139:
 1200              	.L114:
 397:Middlewares/ST/STM32_USB_Device_Library/Core/Src/usbd_core.c **** 
 1201              		.loc 1 397 0
 1202 0048 521A     		subs	r2, r2, r1
 1203 004a C261     		str	r2, [r0, #28]
 399:Middlewares/ST/STM32_USB_Device_Library/Core/Src/usbd_core.c **** 
 1204              		.loc 1 399 0
 1205 004c 1946     		mov	r1, r3
 1206 004e FFF7FEFF 		bl	USBD_CtlContinueSendData
 1207              	.LVL140:
 402:Middlewares/ST/STM32_USB_Device_Library/Core/Src/usbd_core.c ****       }
 1208              		.loc 1 402 0
 1209 0052 0023     		movs	r3, #0
 1210 0054 1A46     		mov	r2, r3
 1211 0056 1946     		mov	r1, r3
 1212 0058 2046     		mov	r0, r4
 1213 005a FFF7FEFF 		bl	USBD_LL_PrepareReceive
 1214              	.LVL141:
 1215 005e D8E7     		b	.L103
 1216              	.LVL142:
ARM GAS  /tmp/cclOLKrQ.s 			page 35


 1217              	.L115:
 408:Middlewares/ST/STM32_USB_Device_Library/Core/Src/usbd_core.c ****             (pep->total_length < pdev->ep0_data_len))
 1218              		.loc 1 408 0 discriminator 1
 1219 0060 8369     		ldr	r3, [r0, #24]
 1220              	.LVL143:
 407:Middlewares/ST/STM32_USB_Device_Library/Core/Src/usbd_core.c ****             (pep->total_length >= pep->maxpacket) &&
 1221              		.loc 1 407 0 discriminator 1
 1222 0062 9942     		cmp	r1, r3
 1223 0064 E3D8     		bhi	.L105
 409:Middlewares/ST/STM32_USB_Device_Library/Core/Src/usbd_core.c ****         {
 1224              		.loc 1 409 0
 1225 0066 D0F89822 		ldr	r2, [r0, #664]
 408:Middlewares/ST/STM32_USB_Device_Library/Core/Src/usbd_core.c ****             (pep->total_length < pdev->ep0_data_len))
 1226              		.loc 1 408 0
 1227 006a 9342     		cmp	r3, r2
 1228 006c DFD2     		bcs	.L105
 411:Middlewares/ST/STM32_USB_Device_Library/Core/Src/usbd_core.c ****           pdev->ep0_data_len = 0U;
 1229              		.loc 1 411 0
 1230 006e 0022     		movs	r2, #0
 1231 0070 1146     		mov	r1, r2
 1232 0072 FFF7FEFF 		bl	USBD_CtlContinueSendData
 1233              	.LVL144:
 412:Middlewares/ST/STM32_USB_Device_Library/Core/Src/usbd_core.c **** 
 1234              		.loc 1 412 0
 1235 0076 0021     		movs	r1, #0
 1236 0078 C4F89812 		str	r1, [r4, #664]
 415:Middlewares/ST/STM32_USB_Device_Library/Core/Src/usbd_core.c ****         }
 1237              		.loc 1 415 0
 1238 007c 0B46     		mov	r3, r1
 1239 007e 0A46     		mov	r2, r1
 1240 0080 2046     		mov	r0, r4
 1241 0082 FFF7FEFF 		bl	USBD_LL_PrepareReceive
 1242              	.LVL145:
 1243 0086 C4E7     		b	.L103
 1244              	.LVL146:
 1245              	.L116:
 421:Middlewares/ST/STM32_USB_Device_Library/Core/Src/usbd_core.c ****             {
 1246              		.loc 1 421 0
 1247 0088 D4F8B832 		ldr	r3, [r4, #696]
 1248 008c DA68     		ldr	r2, [r3, #12]
 1249 008e 002A     		cmp	r2, #0
 1250 0090 D2D0     		beq	.L106
 423:Middlewares/ST/STM32_USB_Device_Library/Core/Src/usbd_core.c ****               pdev->pClass[0]->EP0_TxSent(pdev);
 1251              		.loc 1 423 0
 1252 0092 0022     		movs	r2, #0
 1253 0094 C4F8D422 		str	r2, [r4, #724]
 424:Middlewares/ST/STM32_USB_Device_Library/Core/Src/usbd_core.c ****             }
 1254              		.loc 1 424 0
 1255 0098 DB68     		ldr	r3, [r3, #12]
 1256 009a 2046     		mov	r0, r4
 1257              	.LVL147:
 1258 009c 9847     		blx	r3
 1259              	.LVL148:
 1260 009e CBE7     		b	.L106
 1261              	.LVL149:
 1262              	.L102:
 1263 00a0 0D46     		mov	r5, r1
ARM GAS  /tmp/cclOLKrQ.s 			page 36


 442:Middlewares/ST/STM32_USB_Device_Library/Core/Src/usbd_core.c **** 
 1264              		.loc 1 442 0
 1265 00a2 41F08001 		orr	r1, r1, #128
 1266              	.LVL150:
 1267 00a6 FFF7FEFF 		bl	USBD_CoreFindEP
 1268              	.LVL151:
 444:Middlewares/ST/STM32_USB_Device_Library/Core/Src/usbd_core.c ****     {
 1269              		.loc 1 444 0
 1270 00aa 0246     		mov	r2, r0
 1271 00ac C0B9     		cbnz	r0, .L109
 447:Middlewares/ST/STM32_USB_Device_Library/Core/Src/usbd_core.c ****       {
 1272              		.loc 1 447 0
 1273 00ae 94F89C32 		ldrb	r3, [r4, #668]	@ zero_extendqisi2
 1274 00b2 DBB2     		uxtb	r3, r3
 1275 00b4 032B     		cmp	r3, #3
 1276 00b6 01D0     		beq	.L117
 463:Middlewares/ST/STM32_USB_Device_Library/Core/Src/usbd_core.c **** }
 1277              		.loc 1 463 0
 1278 00b8 0020     		movs	r0, #0
 1279              	.LVL152:
 1280 00ba 38BD     		pop	{r3, r4, r5, pc}
 1281              	.LVL153:
 1282              	.L117:
 449:Middlewares/ST/STM32_USB_Device_Library/Core/Src/usbd_core.c ****         {
 1283              		.loc 1 449 0
 1284 00bc 00F1AE03 		add	r3, r0, #174
 1285 00c0 54F82330 		ldr	r3, [r4, r3, lsl #2]
 1286 00c4 5B69     		ldr	r3, [r3, #20]
 1287 00c6 6BB1     		cbz	r3, .L111
 451:Middlewares/ST/STM32_USB_Device_Library/Core/Src/usbd_core.c ****           ret = (USBD_StatusTypeDef)pdev->pClass[idx]->DataIn(pdev, epnum);
 1288              		.loc 1 451 0
 1289 00c8 C4F8D402 		str	r0, [r4, #724]
 452:Middlewares/ST/STM32_USB_Device_Library/Core/Src/usbd_core.c **** 
 1290              		.loc 1 452 0
 1291 00cc AE32     		adds	r2, r2, #174
 1292 00ce 54F82230 		ldr	r3, [r4, r2, lsl #2]
 1293 00d2 5B69     		ldr	r3, [r3, #20]
 1294 00d4 2946     		mov	r1, r5
 1295 00d6 2046     		mov	r0, r4
 1296              	.LVL154:
 1297 00d8 9847     		blx	r3
 1298              	.LVL155:
 1299 00da 38BD     		pop	{r3, r4, r5, pc}
 1300              	.LVL156:
 1301              	.L108:
 463:Middlewares/ST/STM32_USB_Device_Library/Core/Src/usbd_core.c **** }
 1302              		.loc 1 463 0
 1303 00dc 0020     		movs	r0, #0
 1304 00de 38BD     		pop	{r3, r4, r5, pc}
 1305              	.LVL157:
 1306              	.L109:
 1307 00e0 0020     		movs	r0, #0
 1308              	.LVL158:
 1309 00e2 38BD     		pop	{r3, r4, r5, pc}
 1310              	.LVL159:
 1311              	.L111:
 1312 00e4 0020     		movs	r0, #0
ARM GAS  /tmp/cclOLKrQ.s 			page 37


 1313              	.LVL160:
 464:Middlewares/ST/STM32_USB_Device_Library/Core/Src/usbd_core.c **** 
 1314              		.loc 1 464 0
 1315 00e6 38BD     		pop	{r3, r4, r5, pc}
 1316              		.cfi_endproc
 1317              	.LFE142:
 1319              		.section	.text.USBD_GetNextDesc,"ax",%progbits
 1320              		.align	1
 1321              		.global	USBD_GetNextDesc
 1322              		.syntax unified
 1323              		.thumb
 1324              		.thumb_func
 1325              		.fpu fpv4-sp-d16
 1327              	USBD_GetNextDesc:
 1328              	.LFB155:
 698:Middlewares/ST/STM32_USB_Device_Library/Core/Src/usbd_core.c **** 
 699:Middlewares/ST/STM32_USB_Device_Library/Core/Src/usbd_core.c **** /**
 700:Middlewares/ST/STM32_USB_Device_Library/Core/Src/usbd_core.c ****   * @brief  USBD_GetEpDesc
 701:Middlewares/ST/STM32_USB_Device_Library/Core/Src/usbd_core.c ****   *         This function return the Endpoint descriptor
 702:Middlewares/ST/STM32_USB_Device_Library/Core/Src/usbd_core.c ****   * @param  pdev: device instance
 703:Middlewares/ST/STM32_USB_Device_Library/Core/Src/usbd_core.c ****   * @param  pConfDesc:  pointer to Bos descriptor
 704:Middlewares/ST/STM32_USB_Device_Library/Core/Src/usbd_core.c ****   * @param  EpAddr:  endpoint address
 705:Middlewares/ST/STM32_USB_Device_Library/Core/Src/usbd_core.c ****   * @retval pointer to video endpoint descriptor
 706:Middlewares/ST/STM32_USB_Device_Library/Core/Src/usbd_core.c ****   */
 707:Middlewares/ST/STM32_USB_Device_Library/Core/Src/usbd_core.c **** void *USBD_GetEpDesc(uint8_t *pConfDesc, uint8_t EpAddr)
 708:Middlewares/ST/STM32_USB_Device_Library/Core/Src/usbd_core.c **** {
 709:Middlewares/ST/STM32_USB_Device_Library/Core/Src/usbd_core.c ****   USBD_DescHeaderTypeDef *pdesc = (USBD_DescHeaderTypeDef *)(void *)pConfDesc;
 710:Middlewares/ST/STM32_USB_Device_Library/Core/Src/usbd_core.c ****   USBD_ConfigDescTypeDef *desc = (USBD_ConfigDescTypeDef *)(void *)pConfDesc;
 711:Middlewares/ST/STM32_USB_Device_Library/Core/Src/usbd_core.c ****   USBD_EpDescTypeDef *pEpDesc = NULL;
 712:Middlewares/ST/STM32_USB_Device_Library/Core/Src/usbd_core.c ****   uint16_t ptr;
 713:Middlewares/ST/STM32_USB_Device_Library/Core/Src/usbd_core.c **** 
 714:Middlewares/ST/STM32_USB_Device_Library/Core/Src/usbd_core.c ****   if (desc->wTotalLength > desc->bLength)
 715:Middlewares/ST/STM32_USB_Device_Library/Core/Src/usbd_core.c ****   {
 716:Middlewares/ST/STM32_USB_Device_Library/Core/Src/usbd_core.c ****     ptr = desc->bLength;
 717:Middlewares/ST/STM32_USB_Device_Library/Core/Src/usbd_core.c **** 
 718:Middlewares/ST/STM32_USB_Device_Library/Core/Src/usbd_core.c ****     while (ptr < desc->wTotalLength)
 719:Middlewares/ST/STM32_USB_Device_Library/Core/Src/usbd_core.c ****     {
 720:Middlewares/ST/STM32_USB_Device_Library/Core/Src/usbd_core.c ****       pdesc = USBD_GetNextDesc((uint8_t *)pdesc, &ptr);
 721:Middlewares/ST/STM32_USB_Device_Library/Core/Src/usbd_core.c **** 
 722:Middlewares/ST/STM32_USB_Device_Library/Core/Src/usbd_core.c ****       if (pdesc->bDescriptorType == USB_DESC_TYPE_ENDPOINT)
 723:Middlewares/ST/STM32_USB_Device_Library/Core/Src/usbd_core.c ****       {
 724:Middlewares/ST/STM32_USB_Device_Library/Core/Src/usbd_core.c ****         pEpDesc = (USBD_EpDescTypeDef *)(void *)pdesc;
 725:Middlewares/ST/STM32_USB_Device_Library/Core/Src/usbd_core.c **** 
 726:Middlewares/ST/STM32_USB_Device_Library/Core/Src/usbd_core.c ****         if (pEpDesc->bEndpointAddress == EpAddr)
 727:Middlewares/ST/STM32_USB_Device_Library/Core/Src/usbd_core.c ****         {
 728:Middlewares/ST/STM32_USB_Device_Library/Core/Src/usbd_core.c ****           break;
 729:Middlewares/ST/STM32_USB_Device_Library/Core/Src/usbd_core.c ****         }
 730:Middlewares/ST/STM32_USB_Device_Library/Core/Src/usbd_core.c ****         else
 731:Middlewares/ST/STM32_USB_Device_Library/Core/Src/usbd_core.c ****         {
 732:Middlewares/ST/STM32_USB_Device_Library/Core/Src/usbd_core.c ****           pEpDesc = NULL;
 733:Middlewares/ST/STM32_USB_Device_Library/Core/Src/usbd_core.c ****         }
 734:Middlewares/ST/STM32_USB_Device_Library/Core/Src/usbd_core.c ****       }
 735:Middlewares/ST/STM32_USB_Device_Library/Core/Src/usbd_core.c ****     }
 736:Middlewares/ST/STM32_USB_Device_Library/Core/Src/usbd_core.c ****   }
 737:Middlewares/ST/STM32_USB_Device_Library/Core/Src/usbd_core.c **** 
 738:Middlewares/ST/STM32_USB_Device_Library/Core/Src/usbd_core.c ****   return (void *)pEpDesc;
 739:Middlewares/ST/STM32_USB_Device_Library/Core/Src/usbd_core.c **** }
ARM GAS  /tmp/cclOLKrQ.s 			page 38


 740:Middlewares/ST/STM32_USB_Device_Library/Core/Src/usbd_core.c **** 
 741:Middlewares/ST/STM32_USB_Device_Library/Core/Src/usbd_core.c **** /**
 742:Middlewares/ST/STM32_USB_Device_Library/Core/Src/usbd_core.c ****   * @brief  USBD_GetNextDesc
 743:Middlewares/ST/STM32_USB_Device_Library/Core/Src/usbd_core.c ****   *         This function return the next descriptor header
 744:Middlewares/ST/STM32_USB_Device_Library/Core/Src/usbd_core.c ****   * @param  buf: Buffer where the descriptor is available
 745:Middlewares/ST/STM32_USB_Device_Library/Core/Src/usbd_core.c ****   * @param  ptr: data pointer inside the descriptor
 746:Middlewares/ST/STM32_USB_Device_Library/Core/Src/usbd_core.c ****   * @retval next header
 747:Middlewares/ST/STM32_USB_Device_Library/Core/Src/usbd_core.c ****   */
 748:Middlewares/ST/STM32_USB_Device_Library/Core/Src/usbd_core.c **** USBD_DescHeaderTypeDef *USBD_GetNextDesc(uint8_t *pbuf, uint16_t *ptr)
 749:Middlewares/ST/STM32_USB_Device_Library/Core/Src/usbd_core.c **** {
 1329              		.loc 1 749 0
 1330              		.cfi_startproc
 1331              		@ args = 0, pretend = 0, frame = 0
 1332              		@ frame_needed = 0, uses_anonymous_args = 0
 1333              		@ link register save eliminated.
 1334              	.LVL161:
 750:Middlewares/ST/STM32_USB_Device_Library/Core/Src/usbd_core.c ****   USBD_DescHeaderTypeDef *pnext = (USBD_DescHeaderTypeDef *)(void *)pbuf;
 751:Middlewares/ST/STM32_USB_Device_Library/Core/Src/usbd_core.c **** 
 752:Middlewares/ST/STM32_USB_Device_Library/Core/Src/usbd_core.c ****   *ptr += pnext->bLength;
 1335              		.loc 1 752 0
 1336 0000 0378     		ldrb	r3, [r0]	@ zero_extendqisi2
 1337 0002 0A88     		ldrh	r2, [r1]
 1338 0004 1344     		add	r3, r3, r2
 1339 0006 0B80     		strh	r3, [r1]	@ movhi
 753:Middlewares/ST/STM32_USB_Device_Library/Core/Src/usbd_core.c ****   pnext = (USBD_DescHeaderTypeDef *)(void *)(pbuf + pnext->bLength);
 1340              		.loc 1 753 0
 1341 0008 0378     		ldrb	r3, [r0]	@ zero_extendqisi2
 1342              	.LVL162:
 754:Middlewares/ST/STM32_USB_Device_Library/Core/Src/usbd_core.c **** 
 755:Middlewares/ST/STM32_USB_Device_Library/Core/Src/usbd_core.c ****   return (pnext);
 756:Middlewares/ST/STM32_USB_Device_Library/Core/Src/usbd_core.c **** }
 1343              		.loc 1 756 0
 1344 000a 1844     		add	r0, r0, r3
 1345              	.LVL163:
 1346 000c 7047     		bx	lr
 1347              		.cfi_endproc
 1348              	.LFE155:
 1350              		.section	.text.USBD_GetEpDesc,"ax",%progbits
 1351              		.align	1
 1352              		.global	USBD_GetEpDesc
 1353              		.syntax unified
 1354              		.thumb
 1355              		.thumb_func
 1356              		.fpu fpv4-sp-d16
 1358              	USBD_GetEpDesc:
 1359              	.LFB154:
 708:Middlewares/ST/STM32_USB_Device_Library/Core/Src/usbd_core.c ****   USBD_DescHeaderTypeDef *pdesc = (USBD_DescHeaderTypeDef *)(void *)pConfDesc;
 1360              		.loc 1 708 0
 1361              		.cfi_startproc
 1362              		@ args = 0, pretend = 0, frame = 8
 1363              		@ frame_needed = 0, uses_anonymous_args = 0
 1364              	.LVL164:
 714:Middlewares/ST/STM32_USB_Device_Library/Core/Src/usbd_core.c ****   {
 1365              		.loc 1 714 0
 1366 0000 4288     		ldrh	r2, [r0, #2]	@ unaligned
 1367 0002 0378     		ldrb	r3, [r0]	@ zero_extendqisi2
 1368 0004 9A42     		cmp	r2, r3
ARM GAS  /tmp/cclOLKrQ.s 			page 39


 1369 0006 18D9     		bls	.L123
 708:Middlewares/ST/STM32_USB_Device_Library/Core/Src/usbd_core.c ****   USBD_DescHeaderTypeDef *pdesc = (USBD_DescHeaderTypeDef *)(void *)pConfDesc;
 1370              		.loc 1 708 0
 1371 0008 30B5     		push	{r4, r5, lr}
 1372              	.LCFI19:
 1373              		.cfi_def_cfa_offset 12
 1374              		.cfi_offset 4, -12
 1375              		.cfi_offset 5, -8
 1376              		.cfi_offset 14, -4
 1377 000a 83B0     		sub	sp, sp, #12
 1378              	.LCFI20:
 1379              		.cfi_def_cfa_offset 24
 1380 000c 0D46     		mov	r5, r1
 1381 000e 0446     		mov	r4, r0
 716:Middlewares/ST/STM32_USB_Device_Library/Core/Src/usbd_core.c **** 
 1382              		.loc 1 716 0
 1383 0010 ADF80630 		strh	r3, [sp, #6]	@ movhi
 1384              	.LVL165:
 1385              	.L121:
 718:Middlewares/ST/STM32_USB_Device_Library/Core/Src/usbd_core.c ****     {
 1386              		.loc 1 718 0
 1387 0014 6288     		ldrh	r2, [r4, #2]	@ unaligned
 1388 0016 BDF80630 		ldrh	r3, [sp, #6]
 1389 001a 9A42     		cmp	r2, r3
 1390 001c 0AD9     		bls	.L129
 720:Middlewares/ST/STM32_USB_Device_Library/Core/Src/usbd_core.c **** 
 1391              		.loc 1 720 0
 1392 001e 0DF10601 		add	r1, sp, #6
 1393 0022 FFF7FEFF 		bl	USBD_GetNextDesc
 1394              	.LVL166:
 722:Middlewares/ST/STM32_USB_Device_Library/Core/Src/usbd_core.c ****       {
 1395              		.loc 1 722 0
 1396 0026 4378     		ldrb	r3, [r0, #1]	@ zero_extendqisi2
 1397 0028 052B     		cmp	r3, #5
 1398 002a F3D1     		bne	.L121
 1399              	.LVL167:
 726:Middlewares/ST/STM32_USB_Device_Library/Core/Src/usbd_core.c ****         {
 1400              		.loc 1 726 0
 1401 002c 8378     		ldrb	r3, [r0, #2]	@ zero_extendqisi2
 1402 002e AB42     		cmp	r3, r5
 1403 0030 F0D1     		bne	.L121
 1404 0032 00E0     		b	.L120
 1405              	.LVL168:
 1406              	.L129:
 1407 0034 0020     		movs	r0, #0
 1408              	.LVL169:
 1409              	.L120:
 739:Middlewares/ST/STM32_USB_Device_Library/Core/Src/usbd_core.c **** 
 1410              		.loc 1 739 0
 1411 0036 03B0     		add	sp, sp, #12
 1412              	.LCFI21:
 1413              		.cfi_def_cfa_offset 12
 1414              		@ sp needed
 1415 0038 30BD     		pop	{r4, r5, pc}
 1416              	.LVL170:
 1417              	.L123:
 1418              	.LCFI22:
ARM GAS  /tmp/cclOLKrQ.s 			page 40


 1419              		.cfi_def_cfa_offset 0
 1420              		.cfi_restore 4
 1421              		.cfi_restore 5
 1422              		.cfi_restore 14
 711:Middlewares/ST/STM32_USB_Device_Library/Core/Src/usbd_core.c ****   uint16_t ptr;
 1423              		.loc 1 711 0
 1424 003a 0020     		movs	r0, #0
 1425              	.LVL171:
 1426 003c 7047     		bx	lr
 1427              		.cfi_endproc
 1428              	.LFE154:
 1430              		.text
 1431              	.Letext0:
 1432              		.file 2 "/usr/include/newlib/machine/_default_types.h"
 1433              		.file 3 "/usr/include/newlib/sys/lock.h"
 1434              		.file 4 "/usr/include/newlib/sys/_types.h"
 1435              		.file 5 "/usr/lib/gcc/arm-none-eabi/6.3.1/include/stddef.h"
 1436              		.file 6 "/usr/include/newlib/sys/reent.h"
 1437              		.file 7 "/usr/include/newlib/sys/_stdint.h"
 1438              		.file 8 "/usr/include/newlib/stdlib.h"
 1439              		.file 9 "Drivers/CMSIS/Include/core_cm4.h"
 1440              		.file 10 "Drivers/CMSIS/Device/ST/STM32F4xx/Include/system_stm32f4xx.h"
 1441              		.file 11 "Drivers/STM32F4xx_HAL_Driver/Inc/stm32f4xx_hal_def.h"
 1442              		.file 12 "Drivers/STM32F4xx_HAL_Driver/Inc/stm32f4xx_hal.h"
 1443              		.file 13 "Middlewares/ST/STM32_USB_Device_Library/Core/Inc/usbd_def.h"
 1444              		.file 14 "Middlewares/ST/STM32_USB_Device_Library/Core/Inc/usbd_core.h"
 1445              		.file 15 "Middlewares/ST/STM32_USB_Device_Library/Core/Inc/usbd_ioreq.h"
 1446              		.file 16 "Middlewares/ST/STM32_USB_Device_Library/Core/Inc/usbd_ctlreq.h"
 1447              		.file 17 "Drivers/STM32F4xx_HAL_Driver/Inc/stm32f4xx_hal_pcd.h"
ARM GAS  /tmp/cclOLKrQ.s 			page 41

