ARM GAS  /tmp/ccoF0xqH.s 			page 1


   1              		.cpu cortex-m4
   2              		.eabi_attribute 27, 1
   3              		.eabi_attribute 28, 1
   4              		.eabi_attribute 20, 1
   5              		.eabi_attribute 21, 1
   6              		.eabi_attribute 23, 3
   7              		.eabi_attribute 24, 1
   8              		.eabi_attribute 25, 1
   9              		.eabi_attribute 26, 1
  10              		.eabi_attribute 30, 1
  11              		.eabi_attribute 34, 1
  12              		.eabi_attribute 18, 4
  13              		.file	"usbd_conf.c"
  14              		.text
  15              	.Ltext0:
  16              		.cfi_sections	.debug_frame
  17              		.section	.text.HAL_PCD_MspInit,"ax",%progbits
  18              		.align	1
  19              		.global	HAL_PCD_MspInit
  20              		.syntax unified
  21              		.thumb
  22              		.thumb_func
  23              		.fpu fpv4-sp-d16
  25              	HAL_PCD_MspInit:
  26              	.LFB132:
  27              		.file 1 "USB_DEVICE/Target/usbd_conf.c"
   1:USB_DEVICE/Target/usbd_conf.c **** /* USER CODE BEGIN Header */
   2:USB_DEVICE/Target/usbd_conf.c **** /**
   3:USB_DEVICE/Target/usbd_conf.c ****   ******************************************************************************
   4:USB_DEVICE/Target/usbd_conf.c ****   * @file           : Target/usbd_conf.c
   5:USB_DEVICE/Target/usbd_conf.c ****   * @version        : v1.0_Cube
   6:USB_DEVICE/Target/usbd_conf.c ****   * @brief          : This file implements the board support package for the USB device library
   7:USB_DEVICE/Target/usbd_conf.c ****   ******************************************************************************
   8:USB_DEVICE/Target/usbd_conf.c ****   * @attention
   9:USB_DEVICE/Target/usbd_conf.c ****   *
  10:USB_DEVICE/Target/usbd_conf.c ****   * Copyright (c) 2022 STMicroelectronics.
  11:USB_DEVICE/Target/usbd_conf.c ****   * All rights reserved.
  12:USB_DEVICE/Target/usbd_conf.c ****   *
  13:USB_DEVICE/Target/usbd_conf.c ****   * This software is licensed under terms that can be found in the LICENSE file
  14:USB_DEVICE/Target/usbd_conf.c ****   * in the root directory of this software component.
  15:USB_DEVICE/Target/usbd_conf.c ****   * If no LICENSE file comes with this software, it is provided AS-IS.
  16:USB_DEVICE/Target/usbd_conf.c ****   *
  17:USB_DEVICE/Target/usbd_conf.c ****   ******************************************************************************
  18:USB_DEVICE/Target/usbd_conf.c ****   */
  19:USB_DEVICE/Target/usbd_conf.c **** /* USER CODE END Header */
  20:USB_DEVICE/Target/usbd_conf.c **** 
  21:USB_DEVICE/Target/usbd_conf.c **** /* Includes ------------------------------------------------------------------*/
  22:USB_DEVICE/Target/usbd_conf.c **** #include "stm32f4xx.h"
  23:USB_DEVICE/Target/usbd_conf.c **** #include "stm32f4xx_hal.h"
  24:USB_DEVICE/Target/usbd_conf.c **** #include "usbd_def.h"
  25:USB_DEVICE/Target/usbd_conf.c **** #include "usbd_core.h"
  26:USB_DEVICE/Target/usbd_conf.c **** 
  27:USB_DEVICE/Target/usbd_conf.c **** #include "usbd_cdc.h"
  28:USB_DEVICE/Target/usbd_conf.c **** 
  29:USB_DEVICE/Target/usbd_conf.c **** /* USER CODE BEGIN Includes */
  30:USB_DEVICE/Target/usbd_conf.c **** 
  31:USB_DEVICE/Target/usbd_conf.c **** /* USER CODE END Includes */
ARM GAS  /tmp/ccoF0xqH.s 			page 2


  32:USB_DEVICE/Target/usbd_conf.c **** 
  33:USB_DEVICE/Target/usbd_conf.c **** /* Private typedef -----------------------------------------------------------*/
  34:USB_DEVICE/Target/usbd_conf.c **** /* Private define ------------------------------------------------------------*/
  35:USB_DEVICE/Target/usbd_conf.c **** /* Private macro -------------------------------------------------------------*/
  36:USB_DEVICE/Target/usbd_conf.c **** 
  37:USB_DEVICE/Target/usbd_conf.c **** /* USER CODE BEGIN PV */
  38:USB_DEVICE/Target/usbd_conf.c **** /* Private variables ---------------------------------------------------------*/
  39:USB_DEVICE/Target/usbd_conf.c **** 
  40:USB_DEVICE/Target/usbd_conf.c **** /* USER CODE END PV */
  41:USB_DEVICE/Target/usbd_conf.c **** 
  42:USB_DEVICE/Target/usbd_conf.c **** PCD_HandleTypeDef hpcd_USB_OTG_FS;
  43:USB_DEVICE/Target/usbd_conf.c **** void Error_Handler(void);
  44:USB_DEVICE/Target/usbd_conf.c **** 
  45:USB_DEVICE/Target/usbd_conf.c **** /* External functions --------------------------------------------------------*/
  46:USB_DEVICE/Target/usbd_conf.c **** void SystemClock_Config(void);
  47:USB_DEVICE/Target/usbd_conf.c **** 
  48:USB_DEVICE/Target/usbd_conf.c **** /* USER CODE BEGIN 0 */
  49:USB_DEVICE/Target/usbd_conf.c **** 
  50:USB_DEVICE/Target/usbd_conf.c **** /* USER CODE END 0 */
  51:USB_DEVICE/Target/usbd_conf.c **** 
  52:USB_DEVICE/Target/usbd_conf.c **** /* USER CODE BEGIN PFP */
  53:USB_DEVICE/Target/usbd_conf.c **** /* Private function prototypes -----------------------------------------------*/
  54:USB_DEVICE/Target/usbd_conf.c **** USBD_StatusTypeDef USBD_Get_USB_Status(HAL_StatusTypeDef hal_status);
  55:USB_DEVICE/Target/usbd_conf.c **** 
  56:USB_DEVICE/Target/usbd_conf.c **** /* USER CODE END PFP */
  57:USB_DEVICE/Target/usbd_conf.c **** 
  58:USB_DEVICE/Target/usbd_conf.c **** /* Private functions ---------------------------------------------------------*/
  59:USB_DEVICE/Target/usbd_conf.c **** 
  60:USB_DEVICE/Target/usbd_conf.c **** /* USER CODE BEGIN 1 */
  61:USB_DEVICE/Target/usbd_conf.c **** 
  62:USB_DEVICE/Target/usbd_conf.c **** /* USER CODE END 1 */
  63:USB_DEVICE/Target/usbd_conf.c **** 
  64:USB_DEVICE/Target/usbd_conf.c **** /*******************************************************************************
  65:USB_DEVICE/Target/usbd_conf.c ****                        LL Driver Callbacks (PCD -> USB Device Library)
  66:USB_DEVICE/Target/usbd_conf.c **** *******************************************************************************/
  67:USB_DEVICE/Target/usbd_conf.c **** /* MSP Init */
  68:USB_DEVICE/Target/usbd_conf.c **** 
  69:USB_DEVICE/Target/usbd_conf.c **** void HAL_PCD_MspInit(PCD_HandleTypeDef* pcdHandle)
  70:USB_DEVICE/Target/usbd_conf.c **** {
  28              		.loc 1 70 0
  29              		.cfi_startproc
  30              		@ args = 0, pretend = 0, frame = 32
  31              		@ frame_needed = 0, uses_anonymous_args = 0
  32              	.LVL0:
  33 0000 30B5     		push	{r4, r5, lr}
  34              	.LCFI0:
  35              		.cfi_def_cfa_offset 12
  36              		.cfi_offset 4, -12
  37              		.cfi_offset 5, -8
  38              		.cfi_offset 14, -4
  39 0002 89B0     		sub	sp, sp, #36
  40              	.LCFI1:
  41              		.cfi_def_cfa_offset 48
  71:USB_DEVICE/Target/usbd_conf.c ****   GPIO_InitTypeDef GPIO_InitStruct = {0};
  42              		.loc 1 71 0
  43 0004 0023     		movs	r3, #0
  44 0006 0393     		str	r3, [sp, #12]
ARM GAS  /tmp/ccoF0xqH.s 			page 3


  45 0008 0493     		str	r3, [sp, #16]
  46 000a 0593     		str	r3, [sp, #20]
  47 000c 0693     		str	r3, [sp, #24]
  48 000e 0793     		str	r3, [sp, #28]
  72:USB_DEVICE/Target/usbd_conf.c ****   if(pcdHandle->Instance==USB_OTG_FS)
  49              		.loc 1 72 0
  50 0010 0368     		ldr	r3, [r0]
  51 0012 B3F1A04F 		cmp	r3, #1342177280
  52 0016 01D0     		beq	.L4
  53              	.LVL1:
  54              	.L1:
  73:USB_DEVICE/Target/usbd_conf.c ****   {
  74:USB_DEVICE/Target/usbd_conf.c ****   /* USER CODE BEGIN USB_OTG_FS_MspInit 0 */
  75:USB_DEVICE/Target/usbd_conf.c **** 
  76:USB_DEVICE/Target/usbd_conf.c ****   /* USER CODE END USB_OTG_FS_MspInit 0 */
  77:USB_DEVICE/Target/usbd_conf.c **** 
  78:USB_DEVICE/Target/usbd_conf.c ****     __HAL_RCC_GPIOA_CLK_ENABLE();
  79:USB_DEVICE/Target/usbd_conf.c ****     /**USB_OTG_FS GPIO Configuration
  80:USB_DEVICE/Target/usbd_conf.c ****     PA11     ------> USB_OTG_FS_DM
  81:USB_DEVICE/Target/usbd_conf.c ****     PA12     ------> USB_OTG_FS_DP
  82:USB_DEVICE/Target/usbd_conf.c ****     */
  83:USB_DEVICE/Target/usbd_conf.c ****     GPIO_InitStruct.Pin = GPIO_PIN_11|GPIO_PIN_12;
  84:USB_DEVICE/Target/usbd_conf.c ****     GPIO_InitStruct.Mode = GPIO_MODE_AF_PP;
  85:USB_DEVICE/Target/usbd_conf.c ****     GPIO_InitStruct.Pull = GPIO_NOPULL;
  86:USB_DEVICE/Target/usbd_conf.c ****     GPIO_InitStruct.Speed = GPIO_SPEED_FREQ_VERY_HIGH;
  87:USB_DEVICE/Target/usbd_conf.c ****     GPIO_InitStruct.Alternate = GPIO_AF10_OTG_FS;
  88:USB_DEVICE/Target/usbd_conf.c ****     HAL_GPIO_Init(GPIOA, &GPIO_InitStruct);
  89:USB_DEVICE/Target/usbd_conf.c **** 
  90:USB_DEVICE/Target/usbd_conf.c ****     /* Peripheral clock enable */
  91:USB_DEVICE/Target/usbd_conf.c ****     __HAL_RCC_USB_OTG_FS_CLK_ENABLE();
  92:USB_DEVICE/Target/usbd_conf.c **** 
  93:USB_DEVICE/Target/usbd_conf.c ****     /* Peripheral interrupt init */
  94:USB_DEVICE/Target/usbd_conf.c ****     HAL_NVIC_SetPriority(OTG_FS_IRQn, 0, 0);
  95:USB_DEVICE/Target/usbd_conf.c ****     HAL_NVIC_EnableIRQ(OTG_FS_IRQn);
  96:USB_DEVICE/Target/usbd_conf.c ****   /* USER CODE BEGIN USB_OTG_FS_MspInit 1 */
  97:USB_DEVICE/Target/usbd_conf.c **** 
  98:USB_DEVICE/Target/usbd_conf.c ****   /* USER CODE END USB_OTG_FS_MspInit 1 */
  99:USB_DEVICE/Target/usbd_conf.c ****   }
 100:USB_DEVICE/Target/usbd_conf.c **** }
  55              		.loc 1 100 0
  56 0018 09B0     		add	sp, sp, #36
  57              	.LCFI2:
  58              		.cfi_remember_state
  59              		.cfi_def_cfa_offset 12
  60              		@ sp needed
  61 001a 30BD     		pop	{r4, r5, pc}
  62              	.LVL2:
  63              	.L4:
  64              	.LCFI3:
  65              		.cfi_restore_state
  66              	.LBB2:
  78:USB_DEVICE/Target/usbd_conf.c ****     /**USB_OTG_FS GPIO Configuration
  67              		.loc 1 78 0
  68 001c 0025     		movs	r5, #0
  69 001e 0195     		str	r5, [sp, #4]
  70 0020 164C     		ldr	r4, .L5
  71 0022 236B     		ldr	r3, [r4, #48]
ARM GAS  /tmp/ccoF0xqH.s 			page 4


  72 0024 43F00103 		orr	r3, r3, #1
  73 0028 2363     		str	r3, [r4, #48]
  74 002a 236B     		ldr	r3, [r4, #48]
  75 002c 03F00103 		and	r3, r3, #1
  76 0030 0193     		str	r3, [sp, #4]
  77 0032 019B     		ldr	r3, [sp, #4]
  78              	.LBE2:
  83:USB_DEVICE/Target/usbd_conf.c ****     GPIO_InitStruct.Mode = GPIO_MODE_AF_PP;
  79              		.loc 1 83 0
  80 0034 4FF4C053 		mov	r3, #6144
  81 0038 0393     		str	r3, [sp, #12]
  84:USB_DEVICE/Target/usbd_conf.c ****     GPIO_InitStruct.Pull = GPIO_NOPULL;
  82              		.loc 1 84 0
  83 003a 0223     		movs	r3, #2
  84 003c 0493     		str	r3, [sp, #16]
  86:USB_DEVICE/Target/usbd_conf.c ****     GPIO_InitStruct.Alternate = GPIO_AF10_OTG_FS;
  85              		.loc 1 86 0
  86 003e 0323     		movs	r3, #3
  87 0040 0693     		str	r3, [sp, #24]
  87:USB_DEVICE/Target/usbd_conf.c ****     HAL_GPIO_Init(GPIOA, &GPIO_InitStruct);
  88              		.loc 1 87 0
  89 0042 0A23     		movs	r3, #10
  90 0044 0793     		str	r3, [sp, #28]
  88:USB_DEVICE/Target/usbd_conf.c **** 
  91              		.loc 1 88 0
  92 0046 03A9     		add	r1, sp, #12
  93 0048 0D48     		ldr	r0, .L5+4
  94              	.LVL3:
  95 004a FFF7FEFF 		bl	HAL_GPIO_Init
  96              	.LVL4:
  91:USB_DEVICE/Target/usbd_conf.c **** 
  97              		.loc 1 91 0
  98 004e 636B     		ldr	r3, [r4, #52]
  99 0050 43F08003 		orr	r3, r3, #128
 100 0054 6363     		str	r3, [r4, #52]
 101              	.LBB3:
 102 0056 0295     		str	r5, [sp, #8]
 103 0058 636C     		ldr	r3, [r4, #68]
 104 005a 43F48043 		orr	r3, r3, #16384
 105 005e 6364     		str	r3, [r4, #68]
 106 0060 636C     		ldr	r3, [r4, #68]
 107 0062 03F48043 		and	r3, r3, #16384
 108 0066 0293     		str	r3, [sp, #8]
 109 0068 029B     		ldr	r3, [sp, #8]
 110              	.LBE3:
  94:USB_DEVICE/Target/usbd_conf.c ****     HAL_NVIC_EnableIRQ(OTG_FS_IRQn);
 111              		.loc 1 94 0
 112 006a 2A46     		mov	r2, r5
 113 006c 2946     		mov	r1, r5
 114 006e 4320     		movs	r0, #67
 115 0070 FFF7FEFF 		bl	HAL_NVIC_SetPriority
 116              	.LVL5:
  95:USB_DEVICE/Target/usbd_conf.c ****   /* USER CODE BEGIN USB_OTG_FS_MspInit 1 */
 117              		.loc 1 95 0
 118 0074 4320     		movs	r0, #67
 119 0076 FFF7FEFF 		bl	HAL_NVIC_EnableIRQ
 120              	.LVL6:
ARM GAS  /tmp/ccoF0xqH.s 			page 5


 121              		.loc 1 100 0
 122 007a CDE7     		b	.L1
 123              	.L6:
 124              		.align	2
 125              	.L5:
 126 007c 00380240 		.word	1073887232
 127 0080 00000240 		.word	1073872896
 128              		.cfi_endproc
 129              	.LFE132:
 131              		.section	.text.HAL_PCD_MspDeInit,"ax",%progbits
 132              		.align	1
 133              		.global	HAL_PCD_MspDeInit
 134              		.syntax unified
 135              		.thumb
 136              		.thumb_func
 137              		.fpu fpv4-sp-d16
 139              	HAL_PCD_MspDeInit:
 140              	.LFB133:
 101:USB_DEVICE/Target/usbd_conf.c **** 
 102:USB_DEVICE/Target/usbd_conf.c **** void HAL_PCD_MspDeInit(PCD_HandleTypeDef* pcdHandle)
 103:USB_DEVICE/Target/usbd_conf.c **** {
 141              		.loc 1 103 0
 142              		.cfi_startproc
 143              		@ args = 0, pretend = 0, frame = 0
 144              		@ frame_needed = 0, uses_anonymous_args = 0
 145              	.LVL7:
 146 0000 08B5     		push	{r3, lr}
 147              	.LCFI4:
 148              		.cfi_def_cfa_offset 8
 149              		.cfi_offset 3, -8
 150              		.cfi_offset 14, -4
 104:USB_DEVICE/Target/usbd_conf.c ****   if(pcdHandle->Instance==USB_OTG_FS)
 151              		.loc 1 104 0
 152 0002 0368     		ldr	r3, [r0]
 153 0004 B3F1A04F 		cmp	r3, #1342177280
 154 0008 00D0     		beq	.L10
 155              	.LVL8:
 156              	.L7:
 157 000a 08BD     		pop	{r3, pc}
 158              	.LVL9:
 159              	.L10:
 105:USB_DEVICE/Target/usbd_conf.c ****   {
 106:USB_DEVICE/Target/usbd_conf.c ****   /* USER CODE BEGIN USB_OTG_FS_MspDeInit 0 */
 107:USB_DEVICE/Target/usbd_conf.c **** 
 108:USB_DEVICE/Target/usbd_conf.c ****   /* USER CODE END USB_OTG_FS_MspDeInit 0 */
 109:USB_DEVICE/Target/usbd_conf.c ****     /* Peripheral clock disable */
 110:USB_DEVICE/Target/usbd_conf.c ****     __HAL_RCC_USB_OTG_FS_CLK_DISABLE();
 160              		.loc 1 110 0
 161 000c 064A     		ldr	r2, .L11
 162 000e 536B     		ldr	r3, [r2, #52]
 163 0010 23F08003 		bic	r3, r3, #128
 164 0014 5363     		str	r3, [r2, #52]
 111:USB_DEVICE/Target/usbd_conf.c **** 
 112:USB_DEVICE/Target/usbd_conf.c ****     /**USB_OTG_FS GPIO Configuration
 113:USB_DEVICE/Target/usbd_conf.c ****     PA11     ------> USB_OTG_FS_DM
 114:USB_DEVICE/Target/usbd_conf.c ****     PA12     ------> USB_OTG_FS_DP
 115:USB_DEVICE/Target/usbd_conf.c ****     */
ARM GAS  /tmp/ccoF0xqH.s 			page 6


 116:USB_DEVICE/Target/usbd_conf.c ****     HAL_GPIO_DeInit(GPIOA, GPIO_PIN_11|GPIO_PIN_12);
 165              		.loc 1 116 0
 166 0016 4FF4C051 		mov	r1, #6144
 167 001a 0448     		ldr	r0, .L11+4
 168              	.LVL10:
 169 001c FFF7FEFF 		bl	HAL_GPIO_DeInit
 170              	.LVL11:
 117:USB_DEVICE/Target/usbd_conf.c **** 
 118:USB_DEVICE/Target/usbd_conf.c ****     /* Peripheral interrupt Deinit*/
 119:USB_DEVICE/Target/usbd_conf.c ****     HAL_NVIC_DisableIRQ(OTG_FS_IRQn);
 171              		.loc 1 119 0
 172 0020 4320     		movs	r0, #67
 173 0022 FFF7FEFF 		bl	HAL_NVIC_DisableIRQ
 174              	.LVL12:
 120:USB_DEVICE/Target/usbd_conf.c **** 
 121:USB_DEVICE/Target/usbd_conf.c ****   /* USER CODE BEGIN USB_OTG_FS_MspDeInit 1 */
 122:USB_DEVICE/Target/usbd_conf.c **** 
 123:USB_DEVICE/Target/usbd_conf.c ****   /* USER CODE END USB_OTG_FS_MspDeInit 1 */
 124:USB_DEVICE/Target/usbd_conf.c ****   }
 125:USB_DEVICE/Target/usbd_conf.c **** }
 175              		.loc 1 125 0
 176 0026 F0E7     		b	.L7
 177              	.L12:
 178              		.align	2
 179              	.L11:
 180 0028 00380240 		.word	1073887232
 181 002c 00000240 		.word	1073872896
 182              		.cfi_endproc
 183              	.LFE133:
 185              		.section	.text.HAL_PCD_SetupStageCallback,"ax",%progbits
 186              		.align	1
 187              		.global	HAL_PCD_SetupStageCallback
 188              		.syntax unified
 189              		.thumb
 190              		.thumb_func
 191              		.fpu fpv4-sp-d16
 193              	HAL_PCD_SetupStageCallback:
 194              	.LFB134:
 126:USB_DEVICE/Target/usbd_conf.c **** 
 127:USB_DEVICE/Target/usbd_conf.c **** /**
 128:USB_DEVICE/Target/usbd_conf.c ****   * @brief  Setup stage callback
 129:USB_DEVICE/Target/usbd_conf.c ****   * @param  hpcd: PCD handle
 130:USB_DEVICE/Target/usbd_conf.c ****   * @retval None
 131:USB_DEVICE/Target/usbd_conf.c ****   */
 132:USB_DEVICE/Target/usbd_conf.c **** #if (USE_HAL_PCD_REGISTER_CALLBACKS == 1U)
 133:USB_DEVICE/Target/usbd_conf.c **** static void PCD_SetupStageCallback(PCD_HandleTypeDef *hpcd)
 134:USB_DEVICE/Target/usbd_conf.c **** #else
 135:USB_DEVICE/Target/usbd_conf.c **** void HAL_PCD_SetupStageCallback(PCD_HandleTypeDef *hpcd)
 136:USB_DEVICE/Target/usbd_conf.c **** #endif /* USE_HAL_PCD_REGISTER_CALLBACKS */
 137:USB_DEVICE/Target/usbd_conf.c **** {
 195              		.loc 1 137 0
 196              		.cfi_startproc
 197              		@ args = 0, pretend = 0, frame = 0
 198              		@ frame_needed = 0, uses_anonymous_args = 0
 199              	.LVL13:
 200 0000 08B5     		push	{r3, lr}
 201              	.LCFI5:
ARM GAS  /tmp/ccoF0xqH.s 			page 7


 202              		.cfi_def_cfa_offset 8
 203              		.cfi_offset 3, -8
 204              		.cfi_offset 14, -4
 138:USB_DEVICE/Target/usbd_conf.c ****   USBD_LL_SetupStage((USBD_HandleTypeDef*)hpcd->pData, (uint8_t *)hpcd->Setup);
 205              		.loc 1 138 0
 206 0002 00F2C441 		addw	r1, r0, #1220
 207 0006 D0F80805 		ldr	r0, [r0, #1288]
 208              	.LVL14:
 209 000a FFF7FEFF 		bl	USBD_LL_SetupStage
 210              	.LVL15:
 211 000e 08BD     		pop	{r3, pc}
 212              		.cfi_endproc
 213              	.LFE134:
 215              		.section	.text.HAL_PCD_DataOutStageCallback,"ax",%progbits
 216              		.align	1
 217              		.global	HAL_PCD_DataOutStageCallback
 218              		.syntax unified
 219              		.thumb
 220              		.thumb_func
 221              		.fpu fpv4-sp-d16
 223              	HAL_PCD_DataOutStageCallback:
 224              	.LFB135:
 139:USB_DEVICE/Target/usbd_conf.c **** }
 140:USB_DEVICE/Target/usbd_conf.c **** 
 141:USB_DEVICE/Target/usbd_conf.c **** /**
 142:USB_DEVICE/Target/usbd_conf.c ****   * @brief  Data Out stage callback.
 143:USB_DEVICE/Target/usbd_conf.c ****   * @param  hpcd: PCD handle
 144:USB_DEVICE/Target/usbd_conf.c ****   * @param  epnum: Endpoint number
 145:USB_DEVICE/Target/usbd_conf.c ****   * @retval None
 146:USB_DEVICE/Target/usbd_conf.c ****   */
 147:USB_DEVICE/Target/usbd_conf.c **** #if (USE_HAL_PCD_REGISTER_CALLBACKS == 1U)
 148:USB_DEVICE/Target/usbd_conf.c **** static void PCD_DataOutStageCallback(PCD_HandleTypeDef *hpcd, uint8_t epnum)
 149:USB_DEVICE/Target/usbd_conf.c **** #else
 150:USB_DEVICE/Target/usbd_conf.c **** void HAL_PCD_DataOutStageCallback(PCD_HandleTypeDef *hpcd, uint8_t epnum)
 151:USB_DEVICE/Target/usbd_conf.c **** #endif /* USE_HAL_PCD_REGISTER_CALLBACKS */
 152:USB_DEVICE/Target/usbd_conf.c **** {
 225              		.loc 1 152 0
 226              		.cfi_startproc
 227              		@ args = 0, pretend = 0, frame = 0
 228              		@ frame_needed = 0, uses_anonymous_args = 0
 229              	.LVL16:
 230 0000 08B5     		push	{r3, lr}
 231              	.LCFI6:
 232              		.cfi_def_cfa_offset 8
 233              		.cfi_offset 3, -8
 234              		.cfi_offset 14, -4
 153:USB_DEVICE/Target/usbd_conf.c ****   USBD_LL_DataOutStage((USBD_HandleTypeDef*)hpcd->pData, epnum, hpcd->OUT_ep[epnum].xfer_buff);
 235              		.loc 1 153 0
 236 0002 01EBC102 		add	r2, r1, r1, lsl #3
 237 0006 9300     		lsls	r3, r2, #2
 238 0008 0344     		add	r3, r3, r0
 239 000a D3F88C22 		ldr	r2, [r3, #652]
 240 000e D0F80805 		ldr	r0, [r0, #1288]
 241              	.LVL17:
 242 0012 FFF7FEFF 		bl	USBD_LL_DataOutStage
 243              	.LVL18:
 244 0016 08BD     		pop	{r3, pc}
ARM GAS  /tmp/ccoF0xqH.s 			page 8


 245              		.cfi_endproc
 246              	.LFE135:
 248              		.section	.text.HAL_PCD_DataInStageCallback,"ax",%progbits
 249              		.align	1
 250              		.global	HAL_PCD_DataInStageCallback
 251              		.syntax unified
 252              		.thumb
 253              		.thumb_func
 254              		.fpu fpv4-sp-d16
 256              	HAL_PCD_DataInStageCallback:
 257              	.LFB136:
 154:USB_DEVICE/Target/usbd_conf.c **** }
 155:USB_DEVICE/Target/usbd_conf.c **** 
 156:USB_DEVICE/Target/usbd_conf.c **** /**
 157:USB_DEVICE/Target/usbd_conf.c ****   * @brief  Data In stage callback.
 158:USB_DEVICE/Target/usbd_conf.c ****   * @param  hpcd: PCD handle
 159:USB_DEVICE/Target/usbd_conf.c ****   * @param  epnum: Endpoint number
 160:USB_DEVICE/Target/usbd_conf.c ****   * @retval None
 161:USB_DEVICE/Target/usbd_conf.c ****   */
 162:USB_DEVICE/Target/usbd_conf.c **** #if (USE_HAL_PCD_REGISTER_CALLBACKS == 1U)
 163:USB_DEVICE/Target/usbd_conf.c **** static void PCD_DataInStageCallback(PCD_HandleTypeDef *hpcd, uint8_t epnum)
 164:USB_DEVICE/Target/usbd_conf.c **** #else
 165:USB_DEVICE/Target/usbd_conf.c **** void HAL_PCD_DataInStageCallback(PCD_HandleTypeDef *hpcd, uint8_t epnum)
 166:USB_DEVICE/Target/usbd_conf.c **** #endif /* USE_HAL_PCD_REGISTER_CALLBACKS */
 167:USB_DEVICE/Target/usbd_conf.c **** {
 258              		.loc 1 167 0
 259              		.cfi_startproc
 260              		@ args = 0, pretend = 0, frame = 0
 261              		@ frame_needed = 0, uses_anonymous_args = 0
 262              	.LVL19:
 263 0000 08B5     		push	{r3, lr}
 264              	.LCFI7:
 265              		.cfi_def_cfa_offset 8
 266              		.cfi_offset 3, -8
 267              		.cfi_offset 14, -4
 168:USB_DEVICE/Target/usbd_conf.c ****   USBD_LL_DataInStage((USBD_HandleTypeDef*)hpcd->pData, epnum, hpcd->IN_ep[epnum].xfer_buff);
 268              		.loc 1 168 0
 269 0002 01EBC102 		add	r2, r1, r1, lsl #3
 270 0006 9300     		lsls	r3, r2, #2
 271 0008 0344     		add	r3, r3, r0
 272 000a DA6C     		ldr	r2, [r3, #76]
 273 000c D0F80805 		ldr	r0, [r0, #1288]
 274              	.LVL20:
 275 0010 FFF7FEFF 		bl	USBD_LL_DataInStage
 276              	.LVL21:
 277 0014 08BD     		pop	{r3, pc}
 278              		.cfi_endproc
 279              	.LFE136:
 281              		.section	.text.HAL_PCD_SOFCallback,"ax",%progbits
 282              		.align	1
 283              		.global	HAL_PCD_SOFCallback
 284              		.syntax unified
 285              		.thumb
 286              		.thumb_func
 287              		.fpu fpv4-sp-d16
 289              	HAL_PCD_SOFCallback:
 290              	.LFB137:
ARM GAS  /tmp/ccoF0xqH.s 			page 9


 169:USB_DEVICE/Target/usbd_conf.c **** }
 170:USB_DEVICE/Target/usbd_conf.c **** 
 171:USB_DEVICE/Target/usbd_conf.c **** /**
 172:USB_DEVICE/Target/usbd_conf.c ****   * @brief  SOF callback.
 173:USB_DEVICE/Target/usbd_conf.c ****   * @param  hpcd: PCD handle
 174:USB_DEVICE/Target/usbd_conf.c ****   * @retval None
 175:USB_DEVICE/Target/usbd_conf.c ****   */
 176:USB_DEVICE/Target/usbd_conf.c **** #if (USE_HAL_PCD_REGISTER_CALLBACKS == 1U)
 177:USB_DEVICE/Target/usbd_conf.c **** static void PCD_SOFCallback(PCD_HandleTypeDef *hpcd)
 178:USB_DEVICE/Target/usbd_conf.c **** #else
 179:USB_DEVICE/Target/usbd_conf.c **** void HAL_PCD_SOFCallback(PCD_HandleTypeDef *hpcd)
 180:USB_DEVICE/Target/usbd_conf.c **** #endif /* USE_HAL_PCD_REGISTER_CALLBACKS */
 181:USB_DEVICE/Target/usbd_conf.c **** {
 291              		.loc 1 181 0
 292              		.cfi_startproc
 293              		@ args = 0, pretend = 0, frame = 0
 294              		@ frame_needed = 0, uses_anonymous_args = 0
 295              	.LVL22:
 296 0000 08B5     		push	{r3, lr}
 297              	.LCFI8:
 298              		.cfi_def_cfa_offset 8
 299              		.cfi_offset 3, -8
 300              		.cfi_offset 14, -4
 182:USB_DEVICE/Target/usbd_conf.c ****   USBD_LL_SOF((USBD_HandleTypeDef*)hpcd->pData);
 301              		.loc 1 182 0
 302 0002 D0F80805 		ldr	r0, [r0, #1288]
 303              	.LVL23:
 304 0006 FFF7FEFF 		bl	USBD_LL_SOF
 305              	.LVL24:
 306 000a 08BD     		pop	{r3, pc}
 307              		.cfi_endproc
 308              	.LFE137:
 310              		.section	.text.HAL_PCD_ResetCallback,"ax",%progbits
 311              		.align	1
 312              		.global	HAL_PCD_ResetCallback
 313              		.syntax unified
 314              		.thumb
 315              		.thumb_func
 316              		.fpu fpv4-sp-d16
 318              	HAL_PCD_ResetCallback:
 319              	.LFB138:
 183:USB_DEVICE/Target/usbd_conf.c **** }
 184:USB_DEVICE/Target/usbd_conf.c **** 
 185:USB_DEVICE/Target/usbd_conf.c **** /**
 186:USB_DEVICE/Target/usbd_conf.c ****   * @brief  Reset callback.
 187:USB_DEVICE/Target/usbd_conf.c ****   * @param  hpcd: PCD handle
 188:USB_DEVICE/Target/usbd_conf.c ****   * @retval None
 189:USB_DEVICE/Target/usbd_conf.c ****   */
 190:USB_DEVICE/Target/usbd_conf.c **** #if (USE_HAL_PCD_REGISTER_CALLBACKS == 1U)
 191:USB_DEVICE/Target/usbd_conf.c **** static void PCD_ResetCallback(PCD_HandleTypeDef *hpcd)
 192:USB_DEVICE/Target/usbd_conf.c **** #else
 193:USB_DEVICE/Target/usbd_conf.c **** void HAL_PCD_ResetCallback(PCD_HandleTypeDef *hpcd)
 194:USB_DEVICE/Target/usbd_conf.c **** #endif /* USE_HAL_PCD_REGISTER_CALLBACKS */
 195:USB_DEVICE/Target/usbd_conf.c **** {
 320              		.loc 1 195 0
 321              		.cfi_startproc
 322              		@ args = 0, pretend = 0, frame = 0
ARM GAS  /tmp/ccoF0xqH.s 			page 10


 323              		@ frame_needed = 0, uses_anonymous_args = 0
 324              	.LVL25:
 325 0000 10B5     		push	{r4, lr}
 326              	.LCFI9:
 327              		.cfi_def_cfa_offset 8
 328              		.cfi_offset 4, -8
 329              		.cfi_offset 14, -4
 330 0002 0446     		mov	r4, r0
 331              	.LVL26:
 196:USB_DEVICE/Target/usbd_conf.c ****   USBD_SpeedTypeDef speed = USBD_SPEED_FULL;
 197:USB_DEVICE/Target/usbd_conf.c **** 
 198:USB_DEVICE/Target/usbd_conf.c ****   if ( hpcd->Init.speed == PCD_SPEED_HIGH)
 332              		.loc 1 198 0
 333 0004 C368     		ldr	r3, [r0, #12]
 334 0006 2BB1     		cbz	r3, .L23
 199:USB_DEVICE/Target/usbd_conf.c ****   {
 200:USB_DEVICE/Target/usbd_conf.c ****     speed = USBD_SPEED_HIGH;
 201:USB_DEVICE/Target/usbd_conf.c ****   }
 202:USB_DEVICE/Target/usbd_conf.c ****   else if ( hpcd->Init.speed == PCD_SPEED_FULL)
 335              		.loc 1 202 0
 336 0008 022B     		cmp	r3, #2
 337 000a 0DD0     		beq	.L24
 203:USB_DEVICE/Target/usbd_conf.c ****   {
 204:USB_DEVICE/Target/usbd_conf.c ****     speed = USBD_SPEED_FULL;
 205:USB_DEVICE/Target/usbd_conf.c ****   }
 206:USB_DEVICE/Target/usbd_conf.c ****   else
 207:USB_DEVICE/Target/usbd_conf.c ****   {
 208:USB_DEVICE/Target/usbd_conf.c ****     Error_Handler();
 338              		.loc 1 208 0
 339 000c FFF7FEFF 		bl	Error_Handler
 340              	.LVL27:
 196:USB_DEVICE/Target/usbd_conf.c **** 
 341              		.loc 1 196 0
 342 0010 0121     		movs	r1, #1
 343 0012 00E0     		b	.L22
 344              	.LVL28:
 345              	.L23:
 200:USB_DEVICE/Target/usbd_conf.c ****   }
 346              		.loc 1 200 0
 347 0014 0021     		movs	r1, #0
 348              	.LVL29:
 349              	.L22:
 209:USB_DEVICE/Target/usbd_conf.c ****   }
 210:USB_DEVICE/Target/usbd_conf.c ****     /* Set Speed. */
 211:USB_DEVICE/Target/usbd_conf.c ****   USBD_LL_SetSpeed((USBD_HandleTypeDef*)hpcd->pData, speed);
 350              		.loc 1 211 0
 351 0016 D4F80805 		ldr	r0, [r4, #1288]
 352 001a FFF7FEFF 		bl	USBD_LL_SetSpeed
 353              	.LVL30:
 212:USB_DEVICE/Target/usbd_conf.c **** 
 213:USB_DEVICE/Target/usbd_conf.c ****   /* Reset Device. */
 214:USB_DEVICE/Target/usbd_conf.c ****   USBD_LL_Reset((USBD_HandleTypeDef*)hpcd->pData);
 354              		.loc 1 214 0
 355 001e D4F80805 		ldr	r0, [r4, #1288]
 356 0022 FFF7FEFF 		bl	USBD_LL_Reset
 357              	.LVL31:
 358 0026 10BD     		pop	{r4, pc}
ARM GAS  /tmp/ccoF0xqH.s 			page 11


 359              	.LVL32:
 360              	.L24:
 204:USB_DEVICE/Target/usbd_conf.c ****   }
 361              		.loc 1 204 0
 362 0028 0121     		movs	r1, #1
 363 002a F4E7     		b	.L22
 364              		.cfi_endproc
 365              	.LFE138:
 367              		.section	.text.HAL_PCD_SuspendCallback,"ax",%progbits
 368              		.align	1
 369              		.global	HAL_PCD_SuspendCallback
 370              		.syntax unified
 371              		.thumb
 372              		.thumb_func
 373              		.fpu fpv4-sp-d16
 375              	HAL_PCD_SuspendCallback:
 376              	.LFB139:
 215:USB_DEVICE/Target/usbd_conf.c **** }
 216:USB_DEVICE/Target/usbd_conf.c **** 
 217:USB_DEVICE/Target/usbd_conf.c **** /**
 218:USB_DEVICE/Target/usbd_conf.c ****   * @brief  Suspend callback.
 219:USB_DEVICE/Target/usbd_conf.c ****   * When Low power mode is enabled the debug cannot be used (IAR, Keil doesn't support it)
 220:USB_DEVICE/Target/usbd_conf.c ****   * @param  hpcd: PCD handle
 221:USB_DEVICE/Target/usbd_conf.c ****   * @retval None
 222:USB_DEVICE/Target/usbd_conf.c ****   */
 223:USB_DEVICE/Target/usbd_conf.c **** #if (USE_HAL_PCD_REGISTER_CALLBACKS == 1U)
 224:USB_DEVICE/Target/usbd_conf.c **** static void PCD_SuspendCallback(PCD_HandleTypeDef *hpcd)
 225:USB_DEVICE/Target/usbd_conf.c **** #else
 226:USB_DEVICE/Target/usbd_conf.c **** void HAL_PCD_SuspendCallback(PCD_HandleTypeDef *hpcd)
 227:USB_DEVICE/Target/usbd_conf.c **** #endif /* USE_HAL_PCD_REGISTER_CALLBACKS */
 228:USB_DEVICE/Target/usbd_conf.c **** {
 377              		.loc 1 228 0
 378              		.cfi_startproc
 379              		@ args = 0, pretend = 0, frame = 0
 380              		@ frame_needed = 0, uses_anonymous_args = 0
 381              	.LVL33:
 382 0000 10B5     		push	{r4, lr}
 383              	.LCFI10:
 384              		.cfi_def_cfa_offset 8
 385              		.cfi_offset 4, -8
 386              		.cfi_offset 14, -4
 387 0002 0446     		mov	r4, r0
 229:USB_DEVICE/Target/usbd_conf.c ****   /* Inform USB library that core enters in suspend Mode. */
 230:USB_DEVICE/Target/usbd_conf.c ****   USBD_LL_Suspend((USBD_HandleTypeDef*)hpcd->pData);
 388              		.loc 1 230 0
 389 0004 D0F80805 		ldr	r0, [r0, #1288]
 390              	.LVL34:
 391 0008 FFF7FEFF 		bl	USBD_LL_Suspend
 392              	.LVL35:
 231:USB_DEVICE/Target/usbd_conf.c ****   __HAL_PCD_GATE_PHYCLOCK(hpcd);
 393              		.loc 1 231 0
 394 000c 2268     		ldr	r2, [r4]
 395 000e D2F8003E 		ldr	r3, [r2, #3584]
 396 0012 43F00103 		orr	r3, r3, #1
 397 0016 C2F8003E 		str	r3, [r2, #3584]
 232:USB_DEVICE/Target/usbd_conf.c ****   /* Enter in STOP mode. */
 233:USB_DEVICE/Target/usbd_conf.c ****   /* USER CODE BEGIN 2 */
ARM GAS  /tmp/ccoF0xqH.s 			page 12


 234:USB_DEVICE/Target/usbd_conf.c ****   if (hpcd->Init.low_power_enable)
 398              		.loc 1 234 0
 399 001a 236A     		ldr	r3, [r4, #32]
 400 001c 23B1     		cbz	r3, .L26
 235:USB_DEVICE/Target/usbd_conf.c ****   {
 236:USB_DEVICE/Target/usbd_conf.c ****     /* Set SLEEPDEEP bit and SleepOnExit of Cortex System Control Register. */
 237:USB_DEVICE/Target/usbd_conf.c ****     SCB->SCR |= (uint32_t)((uint32_t)(SCB_SCR_SLEEPDEEP_Msk | SCB_SCR_SLEEPONEXIT_Msk));
 401              		.loc 1 237 0
 402 001e 034A     		ldr	r2, .L29
 403 0020 1369     		ldr	r3, [r2, #16]
 404 0022 43F00603 		orr	r3, r3, #6
 405 0026 1361     		str	r3, [r2, #16]
 406              	.L26:
 407 0028 10BD     		pop	{r4, pc}
 408              	.LVL36:
 409              	.L30:
 410 002a 00BF     		.align	2
 411              	.L29:
 412 002c 00ED00E0 		.word	-536810240
 413              		.cfi_endproc
 414              	.LFE139:
 416              		.section	.text.HAL_PCD_ResumeCallback,"ax",%progbits
 417              		.align	1
 418              		.global	HAL_PCD_ResumeCallback
 419              		.syntax unified
 420              		.thumb
 421              		.thumb_func
 422              		.fpu fpv4-sp-d16
 424              	HAL_PCD_ResumeCallback:
 425              	.LFB140:
 238:USB_DEVICE/Target/usbd_conf.c ****   }
 239:USB_DEVICE/Target/usbd_conf.c ****   /* USER CODE END 2 */
 240:USB_DEVICE/Target/usbd_conf.c **** }
 241:USB_DEVICE/Target/usbd_conf.c **** 
 242:USB_DEVICE/Target/usbd_conf.c **** /**
 243:USB_DEVICE/Target/usbd_conf.c ****   * @brief  Resume callback.
 244:USB_DEVICE/Target/usbd_conf.c ****   * When Low power mode is enabled the debug cannot be used (IAR, Keil doesn't support it)
 245:USB_DEVICE/Target/usbd_conf.c ****   * @param  hpcd: PCD handle
 246:USB_DEVICE/Target/usbd_conf.c ****   * @retval None
 247:USB_DEVICE/Target/usbd_conf.c ****   */
 248:USB_DEVICE/Target/usbd_conf.c **** #if (USE_HAL_PCD_REGISTER_CALLBACKS == 1U)
 249:USB_DEVICE/Target/usbd_conf.c **** static void PCD_ResumeCallback(PCD_HandleTypeDef *hpcd)
 250:USB_DEVICE/Target/usbd_conf.c **** #else
 251:USB_DEVICE/Target/usbd_conf.c **** void HAL_PCD_ResumeCallback(PCD_HandleTypeDef *hpcd)
 252:USB_DEVICE/Target/usbd_conf.c **** #endif /* USE_HAL_PCD_REGISTER_CALLBACKS */
 253:USB_DEVICE/Target/usbd_conf.c **** {
 426              		.loc 1 253 0
 427              		.cfi_startproc
 428              		@ args = 0, pretend = 0, frame = 0
 429              		@ frame_needed = 0, uses_anonymous_args = 0
 430              	.LVL37:
 431 0000 08B5     		push	{r3, lr}
 432              	.LCFI11:
 433              		.cfi_def_cfa_offset 8
 434              		.cfi_offset 3, -8
 435              		.cfi_offset 14, -4
 254:USB_DEVICE/Target/usbd_conf.c ****   /* USER CODE BEGIN 3 */
ARM GAS  /tmp/ccoF0xqH.s 			page 13


 255:USB_DEVICE/Target/usbd_conf.c **** 
 256:USB_DEVICE/Target/usbd_conf.c ****   /* USER CODE END 3 */
 257:USB_DEVICE/Target/usbd_conf.c ****   USBD_LL_Resume((USBD_HandleTypeDef*)hpcd->pData);
 436              		.loc 1 257 0
 437 0002 D0F80805 		ldr	r0, [r0, #1288]
 438              	.LVL38:
 439 0006 FFF7FEFF 		bl	USBD_LL_Resume
 440              	.LVL39:
 441 000a 08BD     		pop	{r3, pc}
 442              		.cfi_endproc
 443              	.LFE140:
 445              		.section	.text.HAL_PCD_ISOOUTIncompleteCallback,"ax",%progbits
 446              		.align	1
 447              		.global	HAL_PCD_ISOOUTIncompleteCallback
 448              		.syntax unified
 449              		.thumb
 450              		.thumb_func
 451              		.fpu fpv4-sp-d16
 453              	HAL_PCD_ISOOUTIncompleteCallback:
 454              	.LFB141:
 258:USB_DEVICE/Target/usbd_conf.c **** }
 259:USB_DEVICE/Target/usbd_conf.c **** 
 260:USB_DEVICE/Target/usbd_conf.c **** /**
 261:USB_DEVICE/Target/usbd_conf.c ****   * @brief  ISOOUTIncomplete callback.
 262:USB_DEVICE/Target/usbd_conf.c ****   * @param  hpcd: PCD handle
 263:USB_DEVICE/Target/usbd_conf.c ****   * @param  epnum: Endpoint number
 264:USB_DEVICE/Target/usbd_conf.c ****   * @retval None
 265:USB_DEVICE/Target/usbd_conf.c ****   */
 266:USB_DEVICE/Target/usbd_conf.c **** #if (USE_HAL_PCD_REGISTER_CALLBACKS == 1U)
 267:USB_DEVICE/Target/usbd_conf.c **** static void PCD_ISOOUTIncompleteCallback(PCD_HandleTypeDef *hpcd, uint8_t epnum)
 268:USB_DEVICE/Target/usbd_conf.c **** #else
 269:USB_DEVICE/Target/usbd_conf.c **** void HAL_PCD_ISOOUTIncompleteCallback(PCD_HandleTypeDef *hpcd, uint8_t epnum)
 270:USB_DEVICE/Target/usbd_conf.c **** #endif /* USE_HAL_PCD_REGISTER_CALLBACKS */
 271:USB_DEVICE/Target/usbd_conf.c **** {
 455              		.loc 1 271 0
 456              		.cfi_startproc
 457              		@ args = 0, pretend = 0, frame = 0
 458              		@ frame_needed = 0, uses_anonymous_args = 0
 459              	.LVL40:
 460 0000 08B5     		push	{r3, lr}
 461              	.LCFI12:
 462              		.cfi_def_cfa_offset 8
 463              		.cfi_offset 3, -8
 464              		.cfi_offset 14, -4
 272:USB_DEVICE/Target/usbd_conf.c ****   USBD_LL_IsoOUTIncomplete((USBD_HandleTypeDef*)hpcd->pData, epnum);
 465              		.loc 1 272 0
 466 0002 D0F80805 		ldr	r0, [r0, #1288]
 467              	.LVL41:
 468 0006 FFF7FEFF 		bl	USBD_LL_IsoOUTIncomplete
 469              	.LVL42:
 470 000a 08BD     		pop	{r3, pc}
 471              		.cfi_endproc
 472              	.LFE141:
 474              		.section	.text.HAL_PCD_ISOINIncompleteCallback,"ax",%progbits
 475              		.align	1
 476              		.global	HAL_PCD_ISOINIncompleteCallback
 477              		.syntax unified
ARM GAS  /tmp/ccoF0xqH.s 			page 14


 478              		.thumb
 479              		.thumb_func
 480              		.fpu fpv4-sp-d16
 482              	HAL_PCD_ISOINIncompleteCallback:
 483              	.LFB142:
 273:USB_DEVICE/Target/usbd_conf.c **** }
 274:USB_DEVICE/Target/usbd_conf.c **** 
 275:USB_DEVICE/Target/usbd_conf.c **** /**
 276:USB_DEVICE/Target/usbd_conf.c ****   * @brief  ISOINIncomplete callback.
 277:USB_DEVICE/Target/usbd_conf.c ****   * @param  hpcd: PCD handle
 278:USB_DEVICE/Target/usbd_conf.c ****   * @param  epnum: Endpoint number
 279:USB_DEVICE/Target/usbd_conf.c ****   * @retval None
 280:USB_DEVICE/Target/usbd_conf.c ****   */
 281:USB_DEVICE/Target/usbd_conf.c **** #if (USE_HAL_PCD_REGISTER_CALLBACKS == 1U)
 282:USB_DEVICE/Target/usbd_conf.c **** static void PCD_ISOINIncompleteCallback(PCD_HandleTypeDef *hpcd, uint8_t epnum)
 283:USB_DEVICE/Target/usbd_conf.c **** #else
 284:USB_DEVICE/Target/usbd_conf.c **** void HAL_PCD_ISOINIncompleteCallback(PCD_HandleTypeDef *hpcd, uint8_t epnum)
 285:USB_DEVICE/Target/usbd_conf.c **** #endif /* USE_HAL_PCD_REGISTER_CALLBACKS */
 286:USB_DEVICE/Target/usbd_conf.c **** {
 484              		.loc 1 286 0
 485              		.cfi_startproc
 486              		@ args = 0, pretend = 0, frame = 0
 487              		@ frame_needed = 0, uses_anonymous_args = 0
 488              	.LVL43:
 489 0000 08B5     		push	{r3, lr}
 490              	.LCFI13:
 491              		.cfi_def_cfa_offset 8
 492              		.cfi_offset 3, -8
 493              		.cfi_offset 14, -4
 287:USB_DEVICE/Target/usbd_conf.c ****   USBD_LL_IsoINIncomplete((USBD_HandleTypeDef*)hpcd->pData, epnum);
 494              		.loc 1 287 0
 495 0002 D0F80805 		ldr	r0, [r0, #1288]
 496              	.LVL44:
 497 0006 FFF7FEFF 		bl	USBD_LL_IsoINIncomplete
 498              	.LVL45:
 499 000a 08BD     		pop	{r3, pc}
 500              		.cfi_endproc
 501              	.LFE142:
 503              		.section	.text.HAL_PCD_ConnectCallback,"ax",%progbits
 504              		.align	1
 505              		.global	HAL_PCD_ConnectCallback
 506              		.syntax unified
 507              		.thumb
 508              		.thumb_func
 509              		.fpu fpv4-sp-d16
 511              	HAL_PCD_ConnectCallback:
 512              	.LFB143:
 288:USB_DEVICE/Target/usbd_conf.c **** }
 289:USB_DEVICE/Target/usbd_conf.c **** 
 290:USB_DEVICE/Target/usbd_conf.c **** /**
 291:USB_DEVICE/Target/usbd_conf.c ****   * @brief  Connect callback.
 292:USB_DEVICE/Target/usbd_conf.c ****   * @param  hpcd: PCD handle
 293:USB_DEVICE/Target/usbd_conf.c ****   * @retval None
 294:USB_DEVICE/Target/usbd_conf.c ****   */
 295:USB_DEVICE/Target/usbd_conf.c **** #if (USE_HAL_PCD_REGISTER_CALLBACKS == 1U)
 296:USB_DEVICE/Target/usbd_conf.c **** static void PCD_ConnectCallback(PCD_HandleTypeDef *hpcd)
 297:USB_DEVICE/Target/usbd_conf.c **** #else
ARM GAS  /tmp/ccoF0xqH.s 			page 15


 298:USB_DEVICE/Target/usbd_conf.c **** void HAL_PCD_ConnectCallback(PCD_HandleTypeDef *hpcd)
 299:USB_DEVICE/Target/usbd_conf.c **** #endif /* USE_HAL_PCD_REGISTER_CALLBACKS */
 300:USB_DEVICE/Target/usbd_conf.c **** {
 513              		.loc 1 300 0
 514              		.cfi_startproc
 515              		@ args = 0, pretend = 0, frame = 0
 516              		@ frame_needed = 0, uses_anonymous_args = 0
 517              	.LVL46:
 518 0000 08B5     		push	{r3, lr}
 519              	.LCFI14:
 520              		.cfi_def_cfa_offset 8
 521              		.cfi_offset 3, -8
 522              		.cfi_offset 14, -4
 301:USB_DEVICE/Target/usbd_conf.c ****   USBD_LL_DevConnected((USBD_HandleTypeDef*)hpcd->pData);
 523              		.loc 1 301 0
 524 0002 D0F80805 		ldr	r0, [r0, #1288]
 525              	.LVL47:
 526 0006 FFF7FEFF 		bl	USBD_LL_DevConnected
 527              	.LVL48:
 528 000a 08BD     		pop	{r3, pc}
 529              		.cfi_endproc
 530              	.LFE143:
 532              		.section	.text.HAL_PCD_DisconnectCallback,"ax",%progbits
 533              		.align	1
 534              		.global	HAL_PCD_DisconnectCallback
 535              		.syntax unified
 536              		.thumb
 537              		.thumb_func
 538              		.fpu fpv4-sp-d16
 540              	HAL_PCD_DisconnectCallback:
 541              	.LFB144:
 302:USB_DEVICE/Target/usbd_conf.c **** }
 303:USB_DEVICE/Target/usbd_conf.c **** 
 304:USB_DEVICE/Target/usbd_conf.c **** /**
 305:USB_DEVICE/Target/usbd_conf.c ****   * @brief  Disconnect callback.
 306:USB_DEVICE/Target/usbd_conf.c ****   * @param  hpcd: PCD handle
 307:USB_DEVICE/Target/usbd_conf.c ****   * @retval None
 308:USB_DEVICE/Target/usbd_conf.c ****   */
 309:USB_DEVICE/Target/usbd_conf.c **** #if (USE_HAL_PCD_REGISTER_CALLBACKS == 1U)
 310:USB_DEVICE/Target/usbd_conf.c **** static void PCD_DisconnectCallback(PCD_HandleTypeDef *hpcd)
 311:USB_DEVICE/Target/usbd_conf.c **** #else
 312:USB_DEVICE/Target/usbd_conf.c **** void HAL_PCD_DisconnectCallback(PCD_HandleTypeDef *hpcd)
 313:USB_DEVICE/Target/usbd_conf.c **** #endif /* USE_HAL_PCD_REGISTER_CALLBACKS */
 314:USB_DEVICE/Target/usbd_conf.c **** {
 542              		.loc 1 314 0
 543              		.cfi_startproc
 544              		@ args = 0, pretend = 0, frame = 0
 545              		@ frame_needed = 0, uses_anonymous_args = 0
 546              	.LVL49:
 547 0000 08B5     		push	{r3, lr}
 548              	.LCFI15:
 549              		.cfi_def_cfa_offset 8
 550              		.cfi_offset 3, -8
 551              		.cfi_offset 14, -4
 315:USB_DEVICE/Target/usbd_conf.c ****   USBD_LL_DevDisconnected((USBD_HandleTypeDef*)hpcd->pData);
 552              		.loc 1 315 0
 553 0002 D0F80805 		ldr	r0, [r0, #1288]
ARM GAS  /tmp/ccoF0xqH.s 			page 16


 554              	.LVL50:
 555 0006 FFF7FEFF 		bl	USBD_LL_DevDisconnected
 556              	.LVL51:
 557 000a 08BD     		pop	{r3, pc}
 558              		.cfi_endproc
 559              	.LFE144:
 561              		.section	.text.USBD_LL_Init,"ax",%progbits
 562              		.align	1
 563              		.global	USBD_LL_Init
 564              		.syntax unified
 565              		.thumb
 566              		.thumb_func
 567              		.fpu fpv4-sp-d16
 569              	USBD_LL_Init:
 570              	.LFB145:
 316:USB_DEVICE/Target/usbd_conf.c **** }
 317:USB_DEVICE/Target/usbd_conf.c **** 
 318:USB_DEVICE/Target/usbd_conf.c **** /*******************************************************************************
 319:USB_DEVICE/Target/usbd_conf.c ****                        LL Driver Interface (USB Device Library --> PCD)
 320:USB_DEVICE/Target/usbd_conf.c **** *******************************************************************************/
 321:USB_DEVICE/Target/usbd_conf.c **** 
 322:USB_DEVICE/Target/usbd_conf.c **** /**
 323:USB_DEVICE/Target/usbd_conf.c ****   * @brief  Initializes the low level portion of the device driver.
 324:USB_DEVICE/Target/usbd_conf.c ****   * @param  pdev: Device handle
 325:USB_DEVICE/Target/usbd_conf.c ****   * @retval USBD status
 326:USB_DEVICE/Target/usbd_conf.c ****   */
 327:USB_DEVICE/Target/usbd_conf.c **** USBD_StatusTypeDef USBD_LL_Init(USBD_HandleTypeDef *pdev)
 328:USB_DEVICE/Target/usbd_conf.c **** {
 571              		.loc 1 328 0
 572              		.cfi_startproc
 573              		@ args = 0, pretend = 0, frame = 0
 574              		@ frame_needed = 0, uses_anonymous_args = 0
 575              	.LVL52:
 329:USB_DEVICE/Target/usbd_conf.c ****   /* Init USB Ip. */
 330:USB_DEVICE/Target/usbd_conf.c ****   if (pdev->id == DEVICE_FS) {
 576              		.loc 1 330 0
 577 0000 0378     		ldrb	r3, [r0]	@ zero_extendqisi2
 578 0002 0BB1     		cbz	r3, .L48
 331:USB_DEVICE/Target/usbd_conf.c ****   /* Link the driver to the stack. */
 332:USB_DEVICE/Target/usbd_conf.c ****   hpcd_USB_OTG_FS.pData = pdev;
 333:USB_DEVICE/Target/usbd_conf.c ****   pdev->pData = &hpcd_USB_OTG_FS;
 334:USB_DEVICE/Target/usbd_conf.c **** 
 335:USB_DEVICE/Target/usbd_conf.c ****   hpcd_USB_OTG_FS.Instance = USB_OTG_FS;
 336:USB_DEVICE/Target/usbd_conf.c ****   hpcd_USB_OTG_FS.Init.dev_endpoints = 4;
 337:USB_DEVICE/Target/usbd_conf.c ****   hpcd_USB_OTG_FS.Init.speed = PCD_SPEED_FULL;
 338:USB_DEVICE/Target/usbd_conf.c ****   hpcd_USB_OTG_FS.Init.dma_enable = DISABLE;
 339:USB_DEVICE/Target/usbd_conf.c ****   hpcd_USB_OTG_FS.Init.phy_itface = PCD_PHY_EMBEDDED;
 340:USB_DEVICE/Target/usbd_conf.c ****   hpcd_USB_OTG_FS.Init.Sof_enable = DISABLE;
 341:USB_DEVICE/Target/usbd_conf.c ****   hpcd_USB_OTG_FS.Init.low_power_enable = DISABLE;
 342:USB_DEVICE/Target/usbd_conf.c ****   hpcd_USB_OTG_FS.Init.lpm_enable = DISABLE;
 343:USB_DEVICE/Target/usbd_conf.c ****   hpcd_USB_OTG_FS.Init.vbus_sensing_enable = DISABLE;
 344:USB_DEVICE/Target/usbd_conf.c ****   hpcd_USB_OTG_FS.Init.use_dedicated_ep1 = DISABLE;
 345:USB_DEVICE/Target/usbd_conf.c **** 
 346:USB_DEVICE/Target/usbd_conf.c ****   /* Initialize the hardware. */
 347:USB_DEVICE/Target/usbd_conf.c ****   if (HAL_PCD_Init(&hpcd_USB_OTG_FS) != HAL_OK)
 348:USB_DEVICE/Target/usbd_conf.c ****   {
 349:USB_DEVICE/Target/usbd_conf.c ****     Error_Handler( );
ARM GAS  /tmp/ccoF0xqH.s 			page 17


 350:USB_DEVICE/Target/usbd_conf.c ****   }
 351:USB_DEVICE/Target/usbd_conf.c **** 
 352:USB_DEVICE/Target/usbd_conf.c ****   /* in stm32f4xx_hal_pcd_ex.h */ 
 353:USB_DEVICE/Target/usbd_conf.c ****   HAL_PCDEx_SetRxFiFo(&hpcd_USB_OTG_FS, 0x80);    /* set RX FIFO size 0x80*/
 354:USB_DEVICE/Target/usbd_conf.c ****   HAL_PCDEx_SetTxFiFo(&hpcd_USB_OTG_FS, 0, 0x40); /* set TX FIFO 0 with size 0x40 */ 
 355:USB_DEVICE/Target/usbd_conf.c ****   HAL_PCDEx_SetTxFiFo(&hpcd_USB_OTG_FS, 1, 0x80); /* set TX FIFO 1 with size 0x80 */
 356:USB_DEVICE/Target/usbd_conf.c ****   }
 357:USB_DEVICE/Target/usbd_conf.c ****   return USBD_OK;
 358:USB_DEVICE/Target/usbd_conf.c **** }
 579              		.loc 1 358 0
 580 0004 0020     		movs	r0, #0
 581              	.LVL53:
 582 0006 7047     		bx	lr
 583              	.LVL54:
 584              	.L48:
 328:USB_DEVICE/Target/usbd_conf.c ****   /* Init USB Ip. */
 585              		.loc 1 328 0
 586 0008 10B5     		push	{r4, lr}
 587              	.LCFI16:
 588              		.cfi_def_cfa_offset 8
 589              		.cfi_offset 4, -8
 590              		.cfi_offset 14, -4
 591 000a 0346     		mov	r3, r0
 332:USB_DEVICE/Target/usbd_conf.c ****   pdev->pData = &hpcd_USB_OTG_FS;
 592              		.loc 1 332 0
 593 000c 1548     		ldr	r0, .L50
 594              	.LVL55:
 595 000e C0F80835 		str	r3, [r0, #1288]
 333:USB_DEVICE/Target/usbd_conf.c **** 
 596              		.loc 1 333 0
 597 0012 C3F8C802 		str	r0, [r3, #712]
 335:USB_DEVICE/Target/usbd_conf.c ****   hpcd_USB_OTG_FS.Init.dev_endpoints = 4;
 598              		.loc 1 335 0
 599 0016 4FF0A043 		mov	r3, #1342177280
 600              	.LVL56:
 601 001a 0360     		str	r3, [r0]
 336:USB_DEVICE/Target/usbd_conf.c ****   hpcd_USB_OTG_FS.Init.speed = PCD_SPEED_FULL;
 602              		.loc 1 336 0
 603 001c 0423     		movs	r3, #4
 604 001e 4360     		str	r3, [r0, #4]
 337:USB_DEVICE/Target/usbd_conf.c ****   hpcd_USB_OTG_FS.Init.dma_enable = DISABLE;
 605              		.loc 1 337 0
 606 0020 0222     		movs	r2, #2
 607 0022 C260     		str	r2, [r0, #12]
 338:USB_DEVICE/Target/usbd_conf.c ****   hpcd_USB_OTG_FS.Init.phy_itface = PCD_PHY_EMBEDDED;
 608              		.loc 1 338 0
 609 0024 0023     		movs	r3, #0
 610 0026 0361     		str	r3, [r0, #16]
 339:USB_DEVICE/Target/usbd_conf.c ****   hpcd_USB_OTG_FS.Init.Sof_enable = DISABLE;
 611              		.loc 1 339 0
 612 0028 8261     		str	r2, [r0, #24]
 340:USB_DEVICE/Target/usbd_conf.c ****   hpcd_USB_OTG_FS.Init.low_power_enable = DISABLE;
 613              		.loc 1 340 0
 614 002a C361     		str	r3, [r0, #28]
 341:USB_DEVICE/Target/usbd_conf.c ****   hpcd_USB_OTG_FS.Init.lpm_enable = DISABLE;
 615              		.loc 1 341 0
 616 002c 0362     		str	r3, [r0, #32]
ARM GAS  /tmp/ccoF0xqH.s 			page 18


 342:USB_DEVICE/Target/usbd_conf.c ****   hpcd_USB_OTG_FS.Init.vbus_sensing_enable = DISABLE;
 617              		.loc 1 342 0
 618 002e 4362     		str	r3, [r0, #36]
 343:USB_DEVICE/Target/usbd_conf.c ****   hpcd_USB_OTG_FS.Init.use_dedicated_ep1 = DISABLE;
 619              		.loc 1 343 0
 620 0030 C362     		str	r3, [r0, #44]
 344:USB_DEVICE/Target/usbd_conf.c **** 
 621              		.loc 1 344 0
 622 0032 0363     		str	r3, [r0, #48]
 347:USB_DEVICE/Target/usbd_conf.c ****   {
 623              		.loc 1 347 0
 624 0034 FFF7FEFF 		bl	HAL_PCD_Init
 625              	.LVL57:
 626 0038 80B9     		cbnz	r0, .L49
 627              	.L43:
 353:USB_DEVICE/Target/usbd_conf.c ****   HAL_PCDEx_SetTxFiFo(&hpcd_USB_OTG_FS, 0, 0x40); /* set TX FIFO 0 with size 0x40 */ 
 628              		.loc 1 353 0
 629 003a 0A4C     		ldr	r4, .L50
 630 003c 8021     		movs	r1, #128
 631 003e 2046     		mov	r0, r4
 632 0040 FFF7FEFF 		bl	HAL_PCDEx_SetRxFiFo
 633              	.LVL58:
 354:USB_DEVICE/Target/usbd_conf.c ****   HAL_PCDEx_SetTxFiFo(&hpcd_USB_OTG_FS, 1, 0x80); /* set TX FIFO 1 with size 0x80 */
 634              		.loc 1 354 0
 635 0044 4022     		movs	r2, #64
 636 0046 0021     		movs	r1, #0
 637 0048 2046     		mov	r0, r4
 638 004a FFF7FEFF 		bl	HAL_PCDEx_SetTxFiFo
 639              	.LVL59:
 355:USB_DEVICE/Target/usbd_conf.c ****   }
 640              		.loc 1 355 0
 641 004e 8022     		movs	r2, #128
 642 0050 0121     		movs	r1, #1
 643 0052 2046     		mov	r0, r4
 644 0054 FFF7FEFF 		bl	HAL_PCDEx_SetTxFiFo
 645              	.LVL60:
 646              		.loc 1 358 0
 647 0058 0020     		movs	r0, #0
 648 005a 10BD     		pop	{r4, pc}
 649              	.L49:
 349:USB_DEVICE/Target/usbd_conf.c ****   }
 650              		.loc 1 349 0
 651 005c FFF7FEFF 		bl	Error_Handler
 652              	.LVL61:
 653 0060 EBE7     		b	.L43
 654              	.L51:
 655 0062 00BF     		.align	2
 656              	.L50:
 657 0064 00000000 		.word	hpcd_USB_OTG_FS
 658              		.cfi_endproc
 659              	.LFE145:
 661              		.section	.text.USBD_LL_IsStallEP,"ax",%progbits
 662              		.align	1
 663              		.global	USBD_LL_IsStallEP
 664              		.syntax unified
 665              		.thumb
 666              		.thumb_func
ARM GAS  /tmp/ccoF0xqH.s 			page 19


 667              		.fpu fpv4-sp-d16
 669              	USBD_LL_IsStallEP:
 670              	.LFB154:
 359:USB_DEVICE/Target/usbd_conf.c **** 
 360:USB_DEVICE/Target/usbd_conf.c **** /**
 361:USB_DEVICE/Target/usbd_conf.c ****   * @brief  De-Initializes the low level portion of the device driver.
 362:USB_DEVICE/Target/usbd_conf.c ****   * @param  pdev: Device handle
 363:USB_DEVICE/Target/usbd_conf.c ****   * @retval USBD status
 364:USB_DEVICE/Target/usbd_conf.c ****   */
 365:USB_DEVICE/Target/usbd_conf.c **** USBD_StatusTypeDef USBD_LL_DeInit(USBD_HandleTypeDef *pdev)
 366:USB_DEVICE/Target/usbd_conf.c **** {
 367:USB_DEVICE/Target/usbd_conf.c ****   HAL_StatusTypeDef hal_status = HAL_OK;
 368:USB_DEVICE/Target/usbd_conf.c ****   USBD_StatusTypeDef usb_status = USBD_OK;
 369:USB_DEVICE/Target/usbd_conf.c **** 
 370:USB_DEVICE/Target/usbd_conf.c ****   hal_status = HAL_PCD_DeInit(pdev->pData);
 371:USB_DEVICE/Target/usbd_conf.c **** 
 372:USB_DEVICE/Target/usbd_conf.c ****   usb_status =  USBD_Get_USB_Status(hal_status);
 373:USB_DEVICE/Target/usbd_conf.c **** 
 374:USB_DEVICE/Target/usbd_conf.c ****   return usb_status;
 375:USB_DEVICE/Target/usbd_conf.c **** }
 376:USB_DEVICE/Target/usbd_conf.c **** 
 377:USB_DEVICE/Target/usbd_conf.c **** /**
 378:USB_DEVICE/Target/usbd_conf.c ****   * @brief  Starts the low level portion of the device driver.
 379:USB_DEVICE/Target/usbd_conf.c ****   * @param  pdev: Device handle
 380:USB_DEVICE/Target/usbd_conf.c ****   * @retval USBD status
 381:USB_DEVICE/Target/usbd_conf.c ****   */
 382:USB_DEVICE/Target/usbd_conf.c **** USBD_StatusTypeDef USBD_LL_Start(USBD_HandleTypeDef *pdev)
 383:USB_DEVICE/Target/usbd_conf.c **** {
 384:USB_DEVICE/Target/usbd_conf.c ****   HAL_StatusTypeDef hal_status = HAL_OK;
 385:USB_DEVICE/Target/usbd_conf.c ****   USBD_StatusTypeDef usb_status = USBD_OK;
 386:USB_DEVICE/Target/usbd_conf.c **** 
 387:USB_DEVICE/Target/usbd_conf.c ****   hal_status = HAL_PCD_Start(pdev->pData);
 388:USB_DEVICE/Target/usbd_conf.c **** 
 389:USB_DEVICE/Target/usbd_conf.c ****   usb_status =  USBD_Get_USB_Status(hal_status);
 390:USB_DEVICE/Target/usbd_conf.c **** 
 391:USB_DEVICE/Target/usbd_conf.c ****   return usb_status;
 392:USB_DEVICE/Target/usbd_conf.c **** }
 393:USB_DEVICE/Target/usbd_conf.c **** 
 394:USB_DEVICE/Target/usbd_conf.c **** /**
 395:USB_DEVICE/Target/usbd_conf.c ****   * @brief  Stops the low level portion of the device driver.
 396:USB_DEVICE/Target/usbd_conf.c ****   * @param  pdev: Device handle
 397:USB_DEVICE/Target/usbd_conf.c ****   * @retval USBD status
 398:USB_DEVICE/Target/usbd_conf.c ****   */
 399:USB_DEVICE/Target/usbd_conf.c **** USBD_StatusTypeDef USBD_LL_Stop(USBD_HandleTypeDef *pdev)
 400:USB_DEVICE/Target/usbd_conf.c **** {
 401:USB_DEVICE/Target/usbd_conf.c ****   HAL_StatusTypeDef hal_status = HAL_OK;
 402:USB_DEVICE/Target/usbd_conf.c ****   USBD_StatusTypeDef usb_status = USBD_OK;
 403:USB_DEVICE/Target/usbd_conf.c **** 
 404:USB_DEVICE/Target/usbd_conf.c ****   hal_status = HAL_PCD_Stop(pdev->pData);
 405:USB_DEVICE/Target/usbd_conf.c **** 
 406:USB_DEVICE/Target/usbd_conf.c ****   usb_status =  USBD_Get_USB_Status(hal_status);
 407:USB_DEVICE/Target/usbd_conf.c **** 
 408:USB_DEVICE/Target/usbd_conf.c ****   return usb_status;
 409:USB_DEVICE/Target/usbd_conf.c **** }
 410:USB_DEVICE/Target/usbd_conf.c **** 
 411:USB_DEVICE/Target/usbd_conf.c **** /**
 412:USB_DEVICE/Target/usbd_conf.c ****   * @brief  Opens an endpoint of the low level driver.
ARM GAS  /tmp/ccoF0xqH.s 			page 20


 413:USB_DEVICE/Target/usbd_conf.c ****   * @param  pdev: Device handle
 414:USB_DEVICE/Target/usbd_conf.c ****   * @param  ep_addr: Endpoint number
 415:USB_DEVICE/Target/usbd_conf.c ****   * @param  ep_type: Endpoint type
 416:USB_DEVICE/Target/usbd_conf.c ****   * @param  ep_mps: Endpoint max packet size
 417:USB_DEVICE/Target/usbd_conf.c ****   * @retval USBD status
 418:USB_DEVICE/Target/usbd_conf.c ****   */
 419:USB_DEVICE/Target/usbd_conf.c **** USBD_StatusTypeDef USBD_LL_OpenEP(USBD_HandleTypeDef *pdev, uint8_t ep_addr, uint8_t ep_type, uint1
 420:USB_DEVICE/Target/usbd_conf.c **** {
 421:USB_DEVICE/Target/usbd_conf.c ****   HAL_StatusTypeDef hal_status = HAL_OK;
 422:USB_DEVICE/Target/usbd_conf.c ****   USBD_StatusTypeDef usb_status = USBD_OK;
 423:USB_DEVICE/Target/usbd_conf.c **** 
 424:USB_DEVICE/Target/usbd_conf.c ****   hal_status = HAL_PCD_EP_Open(pdev->pData, ep_addr, ep_mps, ep_type);
 425:USB_DEVICE/Target/usbd_conf.c **** 
 426:USB_DEVICE/Target/usbd_conf.c ****   usb_status =  USBD_Get_USB_Status(hal_status);
 427:USB_DEVICE/Target/usbd_conf.c **** 
 428:USB_DEVICE/Target/usbd_conf.c ****   return usb_status;
 429:USB_DEVICE/Target/usbd_conf.c **** }
 430:USB_DEVICE/Target/usbd_conf.c **** 
 431:USB_DEVICE/Target/usbd_conf.c **** /**
 432:USB_DEVICE/Target/usbd_conf.c ****   * @brief  Closes an endpoint of the low level driver.
 433:USB_DEVICE/Target/usbd_conf.c ****   * @param  pdev: Device handle
 434:USB_DEVICE/Target/usbd_conf.c ****   * @param  ep_addr: Endpoint number
 435:USB_DEVICE/Target/usbd_conf.c ****   * @retval USBD status
 436:USB_DEVICE/Target/usbd_conf.c ****   */
 437:USB_DEVICE/Target/usbd_conf.c **** USBD_StatusTypeDef USBD_LL_CloseEP(USBD_HandleTypeDef *pdev, uint8_t ep_addr)
 438:USB_DEVICE/Target/usbd_conf.c **** {
 439:USB_DEVICE/Target/usbd_conf.c ****   HAL_StatusTypeDef hal_status = HAL_OK;
 440:USB_DEVICE/Target/usbd_conf.c ****   USBD_StatusTypeDef usb_status = USBD_OK;
 441:USB_DEVICE/Target/usbd_conf.c **** 
 442:USB_DEVICE/Target/usbd_conf.c ****   hal_status = HAL_PCD_EP_Close(pdev->pData, ep_addr);
 443:USB_DEVICE/Target/usbd_conf.c **** 
 444:USB_DEVICE/Target/usbd_conf.c ****   usb_status =  USBD_Get_USB_Status(hal_status);
 445:USB_DEVICE/Target/usbd_conf.c **** 
 446:USB_DEVICE/Target/usbd_conf.c ****   return usb_status;
 447:USB_DEVICE/Target/usbd_conf.c **** }
 448:USB_DEVICE/Target/usbd_conf.c **** 
 449:USB_DEVICE/Target/usbd_conf.c **** /**
 450:USB_DEVICE/Target/usbd_conf.c ****   * @brief  Flushes an endpoint of the Low Level Driver.
 451:USB_DEVICE/Target/usbd_conf.c ****   * @param  pdev: Device handle
 452:USB_DEVICE/Target/usbd_conf.c ****   * @param  ep_addr: Endpoint number
 453:USB_DEVICE/Target/usbd_conf.c ****   * @retval USBD status
 454:USB_DEVICE/Target/usbd_conf.c ****   */
 455:USB_DEVICE/Target/usbd_conf.c **** USBD_StatusTypeDef USBD_LL_FlushEP(USBD_HandleTypeDef *pdev, uint8_t ep_addr)
 456:USB_DEVICE/Target/usbd_conf.c **** {
 457:USB_DEVICE/Target/usbd_conf.c ****   HAL_StatusTypeDef hal_status = HAL_OK;
 458:USB_DEVICE/Target/usbd_conf.c ****   USBD_StatusTypeDef usb_status = USBD_OK;
 459:USB_DEVICE/Target/usbd_conf.c **** 
 460:USB_DEVICE/Target/usbd_conf.c ****   hal_status = HAL_PCD_EP_Flush(pdev->pData, ep_addr);
 461:USB_DEVICE/Target/usbd_conf.c **** 
 462:USB_DEVICE/Target/usbd_conf.c ****   usb_status =  USBD_Get_USB_Status(hal_status);
 463:USB_DEVICE/Target/usbd_conf.c **** 
 464:USB_DEVICE/Target/usbd_conf.c ****   return usb_status;
 465:USB_DEVICE/Target/usbd_conf.c **** }
 466:USB_DEVICE/Target/usbd_conf.c **** 
 467:USB_DEVICE/Target/usbd_conf.c **** /**
 468:USB_DEVICE/Target/usbd_conf.c ****   * @brief  Sets a Stall condition on an endpoint of the Low Level Driver.
 469:USB_DEVICE/Target/usbd_conf.c ****   * @param  pdev: Device handle
ARM GAS  /tmp/ccoF0xqH.s 			page 21


 470:USB_DEVICE/Target/usbd_conf.c ****   * @param  ep_addr: Endpoint number
 471:USB_DEVICE/Target/usbd_conf.c ****   * @retval USBD status
 472:USB_DEVICE/Target/usbd_conf.c ****   */
 473:USB_DEVICE/Target/usbd_conf.c **** USBD_StatusTypeDef USBD_LL_StallEP(USBD_HandleTypeDef *pdev, uint8_t ep_addr)
 474:USB_DEVICE/Target/usbd_conf.c **** {
 475:USB_DEVICE/Target/usbd_conf.c ****   HAL_StatusTypeDef hal_status = HAL_OK;
 476:USB_DEVICE/Target/usbd_conf.c ****   USBD_StatusTypeDef usb_status = USBD_OK;
 477:USB_DEVICE/Target/usbd_conf.c **** 
 478:USB_DEVICE/Target/usbd_conf.c ****   hal_status = HAL_PCD_EP_SetStall(pdev->pData, ep_addr);
 479:USB_DEVICE/Target/usbd_conf.c **** 
 480:USB_DEVICE/Target/usbd_conf.c ****   usb_status =  USBD_Get_USB_Status(hal_status);
 481:USB_DEVICE/Target/usbd_conf.c **** 
 482:USB_DEVICE/Target/usbd_conf.c ****   return usb_status;
 483:USB_DEVICE/Target/usbd_conf.c **** }
 484:USB_DEVICE/Target/usbd_conf.c **** 
 485:USB_DEVICE/Target/usbd_conf.c **** /**
 486:USB_DEVICE/Target/usbd_conf.c ****   * @brief  Clears a Stall condition on an endpoint of the Low Level Driver.
 487:USB_DEVICE/Target/usbd_conf.c ****   * @param  pdev: Device handle
 488:USB_DEVICE/Target/usbd_conf.c ****   * @param  ep_addr: Endpoint number
 489:USB_DEVICE/Target/usbd_conf.c ****   * @retval USBD status
 490:USB_DEVICE/Target/usbd_conf.c ****   */
 491:USB_DEVICE/Target/usbd_conf.c **** USBD_StatusTypeDef USBD_LL_ClearStallEP(USBD_HandleTypeDef *pdev, uint8_t ep_addr)
 492:USB_DEVICE/Target/usbd_conf.c **** {
 493:USB_DEVICE/Target/usbd_conf.c ****   HAL_StatusTypeDef hal_status = HAL_OK;
 494:USB_DEVICE/Target/usbd_conf.c ****   USBD_StatusTypeDef usb_status = USBD_OK;
 495:USB_DEVICE/Target/usbd_conf.c **** 
 496:USB_DEVICE/Target/usbd_conf.c ****   hal_status = HAL_PCD_EP_ClrStall(pdev->pData, ep_addr);
 497:USB_DEVICE/Target/usbd_conf.c **** 
 498:USB_DEVICE/Target/usbd_conf.c ****   usb_status =  USBD_Get_USB_Status(hal_status);
 499:USB_DEVICE/Target/usbd_conf.c **** 
 500:USB_DEVICE/Target/usbd_conf.c ****   return usb_status;
 501:USB_DEVICE/Target/usbd_conf.c **** }
 502:USB_DEVICE/Target/usbd_conf.c **** 
 503:USB_DEVICE/Target/usbd_conf.c **** /**
 504:USB_DEVICE/Target/usbd_conf.c ****   * @brief  Returns Stall condition.
 505:USB_DEVICE/Target/usbd_conf.c ****   * @param  pdev: Device handle
 506:USB_DEVICE/Target/usbd_conf.c ****   * @param  ep_addr: Endpoint number
 507:USB_DEVICE/Target/usbd_conf.c ****   * @retval Stall (1: Yes, 0: No)
 508:USB_DEVICE/Target/usbd_conf.c ****   */
 509:USB_DEVICE/Target/usbd_conf.c **** uint8_t USBD_LL_IsStallEP(USBD_HandleTypeDef *pdev, uint8_t ep_addr)
 510:USB_DEVICE/Target/usbd_conf.c **** {
 671              		.loc 1 510 0
 672              		.cfi_startproc
 673              		@ args = 0, pretend = 0, frame = 0
 674              		@ frame_needed = 0, uses_anonymous_args = 0
 675              		@ link register save eliminated.
 676              	.LVL62:
 511:USB_DEVICE/Target/usbd_conf.c ****   PCD_HandleTypeDef *hpcd = (PCD_HandleTypeDef*) pdev->pData;
 677              		.loc 1 511 0
 678 0000 D0F8C832 		ldr	r3, [r0, #712]
 679              	.LVL63:
 512:USB_DEVICE/Target/usbd_conf.c **** 
 513:USB_DEVICE/Target/usbd_conf.c ****   if((ep_addr & 0x80) == 0x80)
 680              		.loc 1 513 0
 681 0004 11F0800F 		tst	r1, #128
 682 0008 08D1     		bne	.L55
 514:USB_DEVICE/Target/usbd_conf.c ****   {
ARM GAS  /tmp/ccoF0xqH.s 			page 22


 515:USB_DEVICE/Target/usbd_conf.c ****     return hpcd->IN_ep[ep_addr & 0x7F].is_stall;
 516:USB_DEVICE/Target/usbd_conf.c ****   }
 517:USB_DEVICE/Target/usbd_conf.c ****   else
 518:USB_DEVICE/Target/usbd_conf.c ****   {
 519:USB_DEVICE/Target/usbd_conf.c ****     return hpcd->OUT_ep[ep_addr & 0x7F].is_stall;
 683              		.loc 1 519 0
 684 000a 01F07F01 		and	r1, r1, #127
 685              	.LVL64:
 686 000e 01EBC101 		add	r1, r1, r1, lsl #3
 687 0012 8A00     		lsls	r2, r1, #2
 688 0014 1344     		add	r3, r3, r2
 689              	.LVL65:
 690 0016 93F87E02 		ldrb	r0, [r3, #638]	@ zero_extendqisi2
 691              	.LVL66:
 520:USB_DEVICE/Target/usbd_conf.c ****   }
 521:USB_DEVICE/Target/usbd_conf.c **** }
 692              		.loc 1 521 0
 693 001a 7047     		bx	lr
 694              	.LVL67:
 695              	.L55:
 515:USB_DEVICE/Target/usbd_conf.c ****   }
 696              		.loc 1 515 0
 697 001c 01F07F01 		and	r1, r1, #127
 698              	.LVL68:
 699 0020 01EBC101 		add	r1, r1, r1, lsl #3
 700 0024 8A00     		lsls	r2, r1, #2
 701 0026 1344     		add	r3, r3, r2
 702              	.LVL69:
 703 0028 93F83E00 		ldrb	r0, [r3, #62]	@ zero_extendqisi2
 704              	.LVL70:
 705 002c 7047     		bx	lr
 706              		.cfi_endproc
 707              	.LFE154:
 709              		.section	.text.USBD_LL_GetRxDataSize,"ax",%progbits
 710              		.align	1
 711              		.global	USBD_LL_GetRxDataSize
 712              		.syntax unified
 713              		.thumb
 714              		.thumb_func
 715              		.fpu fpv4-sp-d16
 717              	USBD_LL_GetRxDataSize:
 718              	.LFB158:
 522:USB_DEVICE/Target/usbd_conf.c **** 
 523:USB_DEVICE/Target/usbd_conf.c **** /**
 524:USB_DEVICE/Target/usbd_conf.c ****   * @brief  Assigns a USB address to the device.
 525:USB_DEVICE/Target/usbd_conf.c ****   * @param  pdev: Device handle
 526:USB_DEVICE/Target/usbd_conf.c ****   * @param  dev_addr: Device address
 527:USB_DEVICE/Target/usbd_conf.c ****   * @retval USBD status
 528:USB_DEVICE/Target/usbd_conf.c ****   */
 529:USB_DEVICE/Target/usbd_conf.c **** USBD_StatusTypeDef USBD_LL_SetUSBAddress(USBD_HandleTypeDef *pdev, uint8_t dev_addr)
 530:USB_DEVICE/Target/usbd_conf.c **** {
 531:USB_DEVICE/Target/usbd_conf.c ****   HAL_StatusTypeDef hal_status = HAL_OK;
 532:USB_DEVICE/Target/usbd_conf.c ****   USBD_StatusTypeDef usb_status = USBD_OK;
 533:USB_DEVICE/Target/usbd_conf.c **** 
 534:USB_DEVICE/Target/usbd_conf.c ****   hal_status = HAL_PCD_SetAddress(pdev->pData, dev_addr);
 535:USB_DEVICE/Target/usbd_conf.c **** 
 536:USB_DEVICE/Target/usbd_conf.c ****   usb_status =  USBD_Get_USB_Status(hal_status);
ARM GAS  /tmp/ccoF0xqH.s 			page 23


 537:USB_DEVICE/Target/usbd_conf.c **** 
 538:USB_DEVICE/Target/usbd_conf.c ****   return usb_status;
 539:USB_DEVICE/Target/usbd_conf.c **** }
 540:USB_DEVICE/Target/usbd_conf.c **** 
 541:USB_DEVICE/Target/usbd_conf.c **** /**
 542:USB_DEVICE/Target/usbd_conf.c ****   * @brief  Transmits data over an endpoint.
 543:USB_DEVICE/Target/usbd_conf.c ****   * @param  pdev: Device handle
 544:USB_DEVICE/Target/usbd_conf.c ****   * @param  ep_addr: Endpoint number
 545:USB_DEVICE/Target/usbd_conf.c ****   * @param  pbuf: Pointer to data to be sent
 546:USB_DEVICE/Target/usbd_conf.c ****   * @param  size: Data size
 547:USB_DEVICE/Target/usbd_conf.c ****   * @retval USBD status
 548:USB_DEVICE/Target/usbd_conf.c ****   */
 549:USB_DEVICE/Target/usbd_conf.c **** USBD_StatusTypeDef USBD_LL_Transmit(USBD_HandleTypeDef *pdev, uint8_t ep_addr, uint8_t *pbuf, uint3
 550:USB_DEVICE/Target/usbd_conf.c **** {
 551:USB_DEVICE/Target/usbd_conf.c ****   HAL_StatusTypeDef hal_status = HAL_OK;
 552:USB_DEVICE/Target/usbd_conf.c ****   USBD_StatusTypeDef usb_status = USBD_OK;
 553:USB_DEVICE/Target/usbd_conf.c **** 
 554:USB_DEVICE/Target/usbd_conf.c ****   hal_status = HAL_PCD_EP_Transmit(pdev->pData, ep_addr, pbuf, size);
 555:USB_DEVICE/Target/usbd_conf.c **** 
 556:USB_DEVICE/Target/usbd_conf.c ****   usb_status =  USBD_Get_USB_Status(hal_status);
 557:USB_DEVICE/Target/usbd_conf.c **** 
 558:USB_DEVICE/Target/usbd_conf.c ****   return usb_status;
 559:USB_DEVICE/Target/usbd_conf.c **** }
 560:USB_DEVICE/Target/usbd_conf.c **** 
 561:USB_DEVICE/Target/usbd_conf.c **** /**
 562:USB_DEVICE/Target/usbd_conf.c ****   * @brief  Prepares an endpoint for reception.
 563:USB_DEVICE/Target/usbd_conf.c ****   * @param  pdev: Device handle
 564:USB_DEVICE/Target/usbd_conf.c ****   * @param  ep_addr: Endpoint number
 565:USB_DEVICE/Target/usbd_conf.c ****   * @param  pbuf: Pointer to data to be received
 566:USB_DEVICE/Target/usbd_conf.c ****   * @param  size: Data size
 567:USB_DEVICE/Target/usbd_conf.c ****   * @retval USBD status
 568:USB_DEVICE/Target/usbd_conf.c ****   */
 569:USB_DEVICE/Target/usbd_conf.c **** USBD_StatusTypeDef USBD_LL_PrepareReceive(USBD_HandleTypeDef *pdev, uint8_t ep_addr, uint8_t *pbuf,
 570:USB_DEVICE/Target/usbd_conf.c **** {
 571:USB_DEVICE/Target/usbd_conf.c ****   HAL_StatusTypeDef hal_status = HAL_OK;
 572:USB_DEVICE/Target/usbd_conf.c ****   USBD_StatusTypeDef usb_status = USBD_OK;
 573:USB_DEVICE/Target/usbd_conf.c **** 
 574:USB_DEVICE/Target/usbd_conf.c ****   hal_status = HAL_PCD_EP_Receive(pdev->pData, ep_addr, pbuf, size);
 575:USB_DEVICE/Target/usbd_conf.c **** 
 576:USB_DEVICE/Target/usbd_conf.c ****   usb_status =  USBD_Get_USB_Status(hal_status);
 577:USB_DEVICE/Target/usbd_conf.c **** 
 578:USB_DEVICE/Target/usbd_conf.c ****   return usb_status;
 579:USB_DEVICE/Target/usbd_conf.c **** }
 580:USB_DEVICE/Target/usbd_conf.c **** 
 581:USB_DEVICE/Target/usbd_conf.c **** /**
 582:USB_DEVICE/Target/usbd_conf.c ****   * @brief  Returns the last transferred packet size.
 583:USB_DEVICE/Target/usbd_conf.c ****   * @param  pdev: Device handle
 584:USB_DEVICE/Target/usbd_conf.c ****   * @param  ep_addr: Endpoint number
 585:USB_DEVICE/Target/usbd_conf.c ****   * @retval Received Data Size
 586:USB_DEVICE/Target/usbd_conf.c ****   */
 587:USB_DEVICE/Target/usbd_conf.c **** uint32_t USBD_LL_GetRxDataSize(USBD_HandleTypeDef *pdev, uint8_t ep_addr)
 588:USB_DEVICE/Target/usbd_conf.c **** {
 719              		.loc 1 588 0
 720              		.cfi_startproc
 721              		@ args = 0, pretend = 0, frame = 0
 722              		@ frame_needed = 0, uses_anonymous_args = 0
 723              	.LVL71:
ARM GAS  /tmp/ccoF0xqH.s 			page 24


 724 0000 08B5     		push	{r3, lr}
 725              	.LCFI17:
 726              		.cfi_def_cfa_offset 8
 727              		.cfi_offset 3, -8
 728              		.cfi_offset 14, -4
 589:USB_DEVICE/Target/usbd_conf.c ****   return HAL_PCD_EP_GetRxCount((PCD_HandleTypeDef*) pdev->pData, ep_addr);
 729              		.loc 1 589 0
 730 0002 D0F8C802 		ldr	r0, [r0, #712]
 731              	.LVL72:
 732 0006 FFF7FEFF 		bl	HAL_PCD_EP_GetRxCount
 733              	.LVL73:
 590:USB_DEVICE/Target/usbd_conf.c **** }
 734              		.loc 1 590 0
 735 000a 08BD     		pop	{r3, pc}
 736              		.cfi_endproc
 737              	.LFE158:
 739              		.section	.text.USBD_static_malloc,"ax",%progbits
 740              		.align	1
 741              		.global	USBD_static_malloc
 742              		.syntax unified
 743              		.thumb
 744              		.thumb_func
 745              		.fpu fpv4-sp-d16
 747              	USBD_static_malloc:
 748              	.LFB159:
 591:USB_DEVICE/Target/usbd_conf.c **** 
 592:USB_DEVICE/Target/usbd_conf.c **** #ifdef USBD_HS_TESTMODE_ENABLE
 593:USB_DEVICE/Target/usbd_conf.c **** /**
 594:USB_DEVICE/Target/usbd_conf.c ****   * @brief  Set High speed Test mode.
 595:USB_DEVICE/Target/usbd_conf.c ****   * @param  pdev: Device handle
 596:USB_DEVICE/Target/usbd_conf.c ****   * @param  testmode: test mode
 597:USB_DEVICE/Target/usbd_conf.c ****   * @retval USBD Status
 598:USB_DEVICE/Target/usbd_conf.c ****   */
 599:USB_DEVICE/Target/usbd_conf.c **** USBD_StatusTypeDef USBD_LL_SetTestMode(USBD_HandleTypeDef *pdev, uint8_t testmode)
 600:USB_DEVICE/Target/usbd_conf.c **** {
 601:USB_DEVICE/Target/usbd_conf.c ****   UNUSED(pdev);
 602:USB_DEVICE/Target/usbd_conf.c ****   UNUSED(testmode);
 603:USB_DEVICE/Target/usbd_conf.c **** 
 604:USB_DEVICE/Target/usbd_conf.c ****   return USBD_OK;
 605:USB_DEVICE/Target/usbd_conf.c **** }
 606:USB_DEVICE/Target/usbd_conf.c **** #endif /* USBD_HS_TESTMODE_ENABLE */
 607:USB_DEVICE/Target/usbd_conf.c **** 
 608:USB_DEVICE/Target/usbd_conf.c **** /**
 609:USB_DEVICE/Target/usbd_conf.c ****   * @brief  Static single allocation.
 610:USB_DEVICE/Target/usbd_conf.c ****   * @param  size: Size of allocated memory
 611:USB_DEVICE/Target/usbd_conf.c ****   * @retval None
 612:USB_DEVICE/Target/usbd_conf.c ****   */
 613:USB_DEVICE/Target/usbd_conf.c **** void *USBD_static_malloc(uint32_t size)
 614:USB_DEVICE/Target/usbd_conf.c **** {
 749              		.loc 1 614 0
 750              		.cfi_startproc
 751              		@ args = 0, pretend = 0, frame = 0
 752              		@ frame_needed = 0, uses_anonymous_args = 0
 753              		@ link register save eliminated.
 754              	.LVL74:
 615:USB_DEVICE/Target/usbd_conf.c ****   static uint32_t mem[(sizeof(USBD_CDC_HandleTypeDef)/4)+1];/* On 32-bit boundary */
 616:USB_DEVICE/Target/usbd_conf.c ****   return mem;
ARM GAS  /tmp/ccoF0xqH.s 			page 25


 617:USB_DEVICE/Target/usbd_conf.c **** }
 755              		.loc 1 617 0
 756 0000 0048     		ldr	r0, .L59
 757              	.LVL75:
 758 0002 7047     		bx	lr
 759              	.L60:
 760              		.align	2
 761              	.L59:
 762 0004 00000000 		.word	.LANCHOR0
 763              		.cfi_endproc
 764              	.LFE159:
 766              		.section	.text.USBD_static_free,"ax",%progbits
 767              		.align	1
 768              		.global	USBD_static_free
 769              		.syntax unified
 770              		.thumb
 771              		.thumb_func
 772              		.fpu fpv4-sp-d16
 774              	USBD_static_free:
 775              	.LFB160:
 618:USB_DEVICE/Target/usbd_conf.c **** 
 619:USB_DEVICE/Target/usbd_conf.c **** /**
 620:USB_DEVICE/Target/usbd_conf.c ****   * @brief  Dummy memory free
 621:USB_DEVICE/Target/usbd_conf.c ****   * @param  p: Pointer to allocated  memory address
 622:USB_DEVICE/Target/usbd_conf.c ****   * @retval None
 623:USB_DEVICE/Target/usbd_conf.c ****   */
 624:USB_DEVICE/Target/usbd_conf.c **** void USBD_static_free(void *p)
 625:USB_DEVICE/Target/usbd_conf.c **** {
 776              		.loc 1 625 0
 777              		.cfi_startproc
 778              		@ args = 0, pretend = 0, frame = 0
 779              		@ frame_needed = 0, uses_anonymous_args = 0
 780              		@ link register save eliminated.
 781              	.LVL76:
 782 0000 7047     		bx	lr
 783              		.cfi_endproc
 784              	.LFE160:
 786              		.section	.text.USBD_LL_Delay,"ax",%progbits
 787              		.align	1
 788              		.global	USBD_LL_Delay
 789              		.syntax unified
 790              		.thumb
 791              		.thumb_func
 792              		.fpu fpv4-sp-d16
 794              	USBD_LL_Delay:
 795              	.LFB161:
 626:USB_DEVICE/Target/usbd_conf.c **** 
 627:USB_DEVICE/Target/usbd_conf.c **** }
 628:USB_DEVICE/Target/usbd_conf.c **** 
 629:USB_DEVICE/Target/usbd_conf.c **** /**
 630:USB_DEVICE/Target/usbd_conf.c ****   * @brief  Delays routine for the USB Device Library.
 631:USB_DEVICE/Target/usbd_conf.c ****   * @param  Delay: Delay in ms
 632:USB_DEVICE/Target/usbd_conf.c ****   * @retval None
 633:USB_DEVICE/Target/usbd_conf.c ****   */
 634:USB_DEVICE/Target/usbd_conf.c **** void USBD_LL_Delay(uint32_t Delay)
 635:USB_DEVICE/Target/usbd_conf.c **** {
 796              		.loc 1 635 0
ARM GAS  /tmp/ccoF0xqH.s 			page 26


 797              		.cfi_startproc
 798              		@ args = 0, pretend = 0, frame = 0
 799              		@ frame_needed = 0, uses_anonymous_args = 0
 800              	.LVL77:
 801              		.loc 1 635 0
 802 0000 08B5     		push	{r3, lr}
 803              	.LCFI18:
 804              		.cfi_def_cfa_offset 8
 805              		.cfi_offset 3, -8
 806              		.cfi_offset 14, -4
 636:USB_DEVICE/Target/usbd_conf.c ****   HAL_Delay(Delay);
 807              		.loc 1 636 0
 808 0002 FFF7FEFF 		bl	HAL_Delay
 809              	.LVL78:
 810 0006 08BD     		pop	{r3, pc}
 811              		.cfi_endproc
 812              	.LFE161:
 814              		.section	.text.USBD_Get_USB_Status,"ax",%progbits
 815              		.align	1
 816              		.global	USBD_Get_USB_Status
 817              		.syntax unified
 818              		.thumb
 819              		.thumb_func
 820              		.fpu fpv4-sp-d16
 822              	USBD_Get_USB_Status:
 823              	.LFB162:
 637:USB_DEVICE/Target/usbd_conf.c **** }
 638:USB_DEVICE/Target/usbd_conf.c **** 
 639:USB_DEVICE/Target/usbd_conf.c **** /**
 640:USB_DEVICE/Target/usbd_conf.c ****   * @brief  Returns the USB status depending on the HAL status:
 641:USB_DEVICE/Target/usbd_conf.c ****   * @param  hal_status: HAL status
 642:USB_DEVICE/Target/usbd_conf.c ****   * @retval USB status
 643:USB_DEVICE/Target/usbd_conf.c ****   */
 644:USB_DEVICE/Target/usbd_conf.c **** USBD_StatusTypeDef USBD_Get_USB_Status(HAL_StatusTypeDef hal_status)
 645:USB_DEVICE/Target/usbd_conf.c **** {
 824              		.loc 1 645 0
 825              		.cfi_startproc
 826              		@ args = 0, pretend = 0, frame = 0
 827              		@ frame_needed = 0, uses_anonymous_args = 0
 828              		@ link register save eliminated.
 829              	.LVL79:
 646:USB_DEVICE/Target/usbd_conf.c ****   USBD_StatusTypeDef usb_status = USBD_OK;
 647:USB_DEVICE/Target/usbd_conf.c **** 
 648:USB_DEVICE/Target/usbd_conf.c ****   switch (hal_status)
 830              		.loc 1 648 0
 831 0000 18B1     		cbz	r0, .L66
 832 0002 0228     		cmp	r0, #2
 833 0004 03D0     		beq	.L67
 649:USB_DEVICE/Target/usbd_conf.c ****   {
 650:USB_DEVICE/Target/usbd_conf.c ****     case HAL_OK :
 651:USB_DEVICE/Target/usbd_conf.c ****       usb_status = USBD_OK;
 652:USB_DEVICE/Target/usbd_conf.c ****     break;
 653:USB_DEVICE/Target/usbd_conf.c ****     case HAL_ERROR :
 654:USB_DEVICE/Target/usbd_conf.c ****       usb_status = USBD_FAIL;
 834              		.loc 1 654 0
 835 0006 0320     		movs	r0, #3
 836              	.LVL80:
ARM GAS  /tmp/ccoF0xqH.s 			page 27


 655:USB_DEVICE/Target/usbd_conf.c ****     break;
 656:USB_DEVICE/Target/usbd_conf.c ****     case HAL_BUSY :
 657:USB_DEVICE/Target/usbd_conf.c ****       usb_status = USBD_BUSY;
 658:USB_DEVICE/Target/usbd_conf.c ****     break;
 659:USB_DEVICE/Target/usbd_conf.c ****     case HAL_TIMEOUT :
 660:USB_DEVICE/Target/usbd_conf.c ****       usb_status = USBD_FAIL;
 661:USB_DEVICE/Target/usbd_conf.c ****     break;
 662:USB_DEVICE/Target/usbd_conf.c ****     default :
 663:USB_DEVICE/Target/usbd_conf.c ****       usb_status = USBD_FAIL;
 664:USB_DEVICE/Target/usbd_conf.c ****     break;
 665:USB_DEVICE/Target/usbd_conf.c ****   }
 666:USB_DEVICE/Target/usbd_conf.c ****   return usb_status;
 667:USB_DEVICE/Target/usbd_conf.c **** }
 837              		.loc 1 667 0
 838 0008 7047     		bx	lr
 839              	.LVL81:
 840              	.L66:
 651:USB_DEVICE/Target/usbd_conf.c ****     break;
 841              		.loc 1 651 0
 842 000a 0020     		movs	r0, #0
 843              	.LVL82:
 844 000c 7047     		bx	lr
 845              	.LVL83:
 846              	.L67:
 657:USB_DEVICE/Target/usbd_conf.c ****     break;
 847              		.loc 1 657 0
 848 000e 0120     		movs	r0, #1
 849              	.LVL84:
 658:USB_DEVICE/Target/usbd_conf.c ****     case HAL_TIMEOUT :
 850              		.loc 1 658 0
 851 0010 7047     		bx	lr
 852              		.cfi_endproc
 853              	.LFE162:
 855              		.section	.text.USBD_LL_DeInit,"ax",%progbits
 856              		.align	1
 857              		.global	USBD_LL_DeInit
 858              		.syntax unified
 859              		.thumb
 860              		.thumb_func
 861              		.fpu fpv4-sp-d16
 863              	USBD_LL_DeInit:
 864              	.LFB146:
 366:USB_DEVICE/Target/usbd_conf.c ****   HAL_StatusTypeDef hal_status = HAL_OK;
 865              		.loc 1 366 0
 866              		.cfi_startproc
 867              		@ args = 0, pretend = 0, frame = 0
 868              		@ frame_needed = 0, uses_anonymous_args = 0
 869              	.LVL85:
 870 0000 08B5     		push	{r3, lr}
 871              	.LCFI19:
 872              		.cfi_def_cfa_offset 8
 873              		.cfi_offset 3, -8
 874              		.cfi_offset 14, -4
 875              	.LVL86:
 370:USB_DEVICE/Target/usbd_conf.c **** 
 876              		.loc 1 370 0
 877 0002 D0F8C802 		ldr	r0, [r0, #712]
ARM GAS  /tmp/ccoF0xqH.s 			page 28


 878              	.LVL87:
 879 0006 FFF7FEFF 		bl	HAL_PCD_DeInit
 880              	.LVL88:
 372:USB_DEVICE/Target/usbd_conf.c **** 
 881              		.loc 1 372 0
 882 000a FFF7FEFF 		bl	USBD_Get_USB_Status
 883              	.LVL89:
 375:USB_DEVICE/Target/usbd_conf.c **** 
 884              		.loc 1 375 0
 885 000e 08BD     		pop	{r3, pc}
 886              		.cfi_endproc
 887              	.LFE146:
 889              		.section	.text.USBD_LL_Start,"ax",%progbits
 890              		.align	1
 891              		.global	USBD_LL_Start
 892              		.syntax unified
 893              		.thumb
 894              		.thumb_func
 895              		.fpu fpv4-sp-d16
 897              	USBD_LL_Start:
 898              	.LFB147:
 383:USB_DEVICE/Target/usbd_conf.c ****   HAL_StatusTypeDef hal_status = HAL_OK;
 899              		.loc 1 383 0
 900              		.cfi_startproc
 901              		@ args = 0, pretend = 0, frame = 0
 902              		@ frame_needed = 0, uses_anonymous_args = 0
 903              	.LVL90:
 904 0000 08B5     		push	{r3, lr}
 905              	.LCFI20:
 906              		.cfi_def_cfa_offset 8
 907              		.cfi_offset 3, -8
 908              		.cfi_offset 14, -4
 909              	.LVL91:
 387:USB_DEVICE/Target/usbd_conf.c **** 
 910              		.loc 1 387 0
 911 0002 D0F8C802 		ldr	r0, [r0, #712]
 912              	.LVL92:
 913 0006 FFF7FEFF 		bl	HAL_PCD_Start
 914              	.LVL93:
 389:USB_DEVICE/Target/usbd_conf.c **** 
 915              		.loc 1 389 0
 916 000a FFF7FEFF 		bl	USBD_Get_USB_Status
 917              	.LVL94:
 392:USB_DEVICE/Target/usbd_conf.c **** 
 918              		.loc 1 392 0
 919 000e 08BD     		pop	{r3, pc}
 920              		.cfi_endproc
 921              	.LFE147:
 923              		.section	.text.USBD_LL_Stop,"ax",%progbits
 924              		.align	1
 925              		.global	USBD_LL_Stop
 926              		.syntax unified
 927              		.thumb
 928              		.thumb_func
 929              		.fpu fpv4-sp-d16
 931              	USBD_LL_Stop:
 932              	.LFB148:
ARM GAS  /tmp/ccoF0xqH.s 			page 29


 400:USB_DEVICE/Target/usbd_conf.c ****   HAL_StatusTypeDef hal_status = HAL_OK;
 933              		.loc 1 400 0
 934              		.cfi_startproc
 935              		@ args = 0, pretend = 0, frame = 0
 936              		@ frame_needed = 0, uses_anonymous_args = 0
 937              	.LVL95:
 938 0000 08B5     		push	{r3, lr}
 939              	.LCFI21:
 940              		.cfi_def_cfa_offset 8
 941              		.cfi_offset 3, -8
 942              		.cfi_offset 14, -4
 943              	.LVL96:
 404:USB_DEVICE/Target/usbd_conf.c **** 
 944              		.loc 1 404 0
 945 0002 D0F8C802 		ldr	r0, [r0, #712]
 946              	.LVL97:
 947 0006 FFF7FEFF 		bl	HAL_PCD_Stop
 948              	.LVL98:
 406:USB_DEVICE/Target/usbd_conf.c **** 
 949              		.loc 1 406 0
 950 000a FFF7FEFF 		bl	USBD_Get_USB_Status
 951              	.LVL99:
 409:USB_DEVICE/Target/usbd_conf.c **** 
 952              		.loc 1 409 0
 953 000e 08BD     		pop	{r3, pc}
 954              		.cfi_endproc
 955              	.LFE148:
 957              		.section	.text.USBD_LL_OpenEP,"ax",%progbits
 958              		.align	1
 959              		.global	USBD_LL_OpenEP
 960              		.syntax unified
 961              		.thumb
 962              		.thumb_func
 963              		.fpu fpv4-sp-d16
 965              	USBD_LL_OpenEP:
 966              	.LFB149:
 420:USB_DEVICE/Target/usbd_conf.c ****   HAL_StatusTypeDef hal_status = HAL_OK;
 967              		.loc 1 420 0
 968              		.cfi_startproc
 969              		@ args = 0, pretend = 0, frame = 0
 970              		@ frame_needed = 0, uses_anonymous_args = 0
 971              	.LVL100:
 972 0000 10B5     		push	{r4, lr}
 973              	.LCFI22:
 974              		.cfi_def_cfa_offset 8
 975              		.cfi_offset 4, -8
 976              		.cfi_offset 14, -4
 977 0002 1C46     		mov	r4, r3
 978              	.LVL101:
 424:USB_DEVICE/Target/usbd_conf.c **** 
 979              		.loc 1 424 0
 980 0004 1346     		mov	r3, r2
 981              	.LVL102:
 982 0006 2246     		mov	r2, r4
 983              	.LVL103:
 984 0008 D0F8C802 		ldr	r0, [r0, #712]
 985              	.LVL104:
ARM GAS  /tmp/ccoF0xqH.s 			page 30


 986 000c FFF7FEFF 		bl	HAL_PCD_EP_Open
 987              	.LVL105:
 426:USB_DEVICE/Target/usbd_conf.c **** 
 988              		.loc 1 426 0
 989 0010 FFF7FEFF 		bl	USBD_Get_USB_Status
 990              	.LVL106:
 429:USB_DEVICE/Target/usbd_conf.c **** 
 991              		.loc 1 429 0
 992 0014 10BD     		pop	{r4, pc}
 993              		.cfi_endproc
 994              	.LFE149:
 996              		.section	.text.USBD_LL_CloseEP,"ax",%progbits
 997              		.align	1
 998              		.global	USBD_LL_CloseEP
 999              		.syntax unified
 1000              		.thumb
 1001              		.thumb_func
 1002              		.fpu fpv4-sp-d16
 1004              	USBD_LL_CloseEP:
 1005              	.LFB150:
 438:USB_DEVICE/Target/usbd_conf.c ****   HAL_StatusTypeDef hal_status = HAL_OK;
 1006              		.loc 1 438 0
 1007              		.cfi_startproc
 1008              		@ args = 0, pretend = 0, frame = 0
 1009              		@ frame_needed = 0, uses_anonymous_args = 0
 1010              	.LVL107:
 1011 0000 08B5     		push	{r3, lr}
 1012              	.LCFI23:
 1013              		.cfi_def_cfa_offset 8
 1014              		.cfi_offset 3, -8
 1015              		.cfi_offset 14, -4
 1016              	.LVL108:
 442:USB_DEVICE/Target/usbd_conf.c **** 
 1017              		.loc 1 442 0
 1018 0002 D0F8C802 		ldr	r0, [r0, #712]
 1019              	.LVL109:
 1020 0006 FFF7FEFF 		bl	HAL_PCD_EP_Close
 1021              	.LVL110:
 444:USB_DEVICE/Target/usbd_conf.c **** 
 1022              		.loc 1 444 0
 1023 000a FFF7FEFF 		bl	USBD_Get_USB_Status
 1024              	.LVL111:
 447:USB_DEVICE/Target/usbd_conf.c **** 
 1025              		.loc 1 447 0
 1026 000e 08BD     		pop	{r3, pc}
 1027              		.cfi_endproc
 1028              	.LFE150:
 1030              		.section	.text.USBD_LL_FlushEP,"ax",%progbits
 1031              		.align	1
 1032              		.global	USBD_LL_FlushEP
 1033              		.syntax unified
 1034              		.thumb
 1035              		.thumb_func
 1036              		.fpu fpv4-sp-d16
 1038              	USBD_LL_FlushEP:
 1039              	.LFB151:
 456:USB_DEVICE/Target/usbd_conf.c ****   HAL_StatusTypeDef hal_status = HAL_OK;
ARM GAS  /tmp/ccoF0xqH.s 			page 31


 1040              		.loc 1 456 0
 1041              		.cfi_startproc
 1042              		@ args = 0, pretend = 0, frame = 0
 1043              		@ frame_needed = 0, uses_anonymous_args = 0
 1044              	.LVL112:
 1045 0000 08B5     		push	{r3, lr}
 1046              	.LCFI24:
 1047              		.cfi_def_cfa_offset 8
 1048              		.cfi_offset 3, -8
 1049              		.cfi_offset 14, -4
 1050              	.LVL113:
 460:USB_DEVICE/Target/usbd_conf.c **** 
 1051              		.loc 1 460 0
 1052 0002 D0F8C802 		ldr	r0, [r0, #712]
 1053              	.LVL114:
 1054 0006 FFF7FEFF 		bl	HAL_PCD_EP_Flush
 1055              	.LVL115:
 462:USB_DEVICE/Target/usbd_conf.c **** 
 1056              		.loc 1 462 0
 1057 000a FFF7FEFF 		bl	USBD_Get_USB_Status
 1058              	.LVL116:
 465:USB_DEVICE/Target/usbd_conf.c **** 
 1059              		.loc 1 465 0
 1060 000e 08BD     		pop	{r3, pc}
 1061              		.cfi_endproc
 1062              	.LFE151:
 1064              		.section	.text.USBD_LL_StallEP,"ax",%progbits
 1065              		.align	1
 1066              		.global	USBD_LL_StallEP
 1067              		.syntax unified
 1068              		.thumb
 1069              		.thumb_func
 1070              		.fpu fpv4-sp-d16
 1072              	USBD_LL_StallEP:
 1073              	.LFB152:
 474:USB_DEVICE/Target/usbd_conf.c ****   HAL_StatusTypeDef hal_status = HAL_OK;
 1074              		.loc 1 474 0
 1075              		.cfi_startproc
 1076              		@ args = 0, pretend = 0, frame = 0
 1077              		@ frame_needed = 0, uses_anonymous_args = 0
 1078              	.LVL117:
 1079 0000 08B5     		push	{r3, lr}
 1080              	.LCFI25:
 1081              		.cfi_def_cfa_offset 8
 1082              		.cfi_offset 3, -8
 1083              		.cfi_offset 14, -4
 1084              	.LVL118:
 478:USB_DEVICE/Target/usbd_conf.c **** 
 1085              		.loc 1 478 0
 1086 0002 D0F8C802 		ldr	r0, [r0, #712]
 1087              	.LVL119:
 1088 0006 FFF7FEFF 		bl	HAL_PCD_EP_SetStall
 1089              	.LVL120:
 480:USB_DEVICE/Target/usbd_conf.c **** 
 1090              		.loc 1 480 0
 1091 000a FFF7FEFF 		bl	USBD_Get_USB_Status
 1092              	.LVL121:
ARM GAS  /tmp/ccoF0xqH.s 			page 32


 483:USB_DEVICE/Target/usbd_conf.c **** 
 1093              		.loc 1 483 0
 1094 000e 08BD     		pop	{r3, pc}
 1095              		.cfi_endproc
 1096              	.LFE152:
 1098              		.section	.text.USBD_LL_ClearStallEP,"ax",%progbits
 1099              		.align	1
 1100              		.global	USBD_LL_ClearStallEP
 1101              		.syntax unified
 1102              		.thumb
 1103              		.thumb_func
 1104              		.fpu fpv4-sp-d16
 1106              	USBD_LL_ClearStallEP:
 1107              	.LFB153:
 492:USB_DEVICE/Target/usbd_conf.c ****   HAL_StatusTypeDef hal_status = HAL_OK;
 1108              		.loc 1 492 0
 1109              		.cfi_startproc
 1110              		@ args = 0, pretend = 0, frame = 0
 1111              		@ frame_needed = 0, uses_anonymous_args = 0
 1112              	.LVL122:
 1113 0000 08B5     		push	{r3, lr}
 1114              	.LCFI26:
 1115              		.cfi_def_cfa_offset 8
 1116              		.cfi_offset 3, -8
 1117              		.cfi_offset 14, -4
 1118              	.LVL123:
 496:USB_DEVICE/Target/usbd_conf.c **** 
 1119              		.loc 1 496 0
 1120 0002 D0F8C802 		ldr	r0, [r0, #712]
 1121              	.LVL124:
 1122 0006 FFF7FEFF 		bl	HAL_PCD_EP_ClrStall
 1123              	.LVL125:
 498:USB_DEVICE/Target/usbd_conf.c **** 
 1124              		.loc 1 498 0
 1125 000a FFF7FEFF 		bl	USBD_Get_USB_Status
 1126              	.LVL126:
 501:USB_DEVICE/Target/usbd_conf.c **** 
 1127              		.loc 1 501 0
 1128 000e 08BD     		pop	{r3, pc}
 1129              		.cfi_endproc
 1130              	.LFE153:
 1132              		.section	.text.USBD_LL_SetUSBAddress,"ax",%progbits
 1133              		.align	1
 1134              		.global	USBD_LL_SetUSBAddress
 1135              		.syntax unified
 1136              		.thumb
 1137              		.thumb_func
 1138              		.fpu fpv4-sp-d16
 1140              	USBD_LL_SetUSBAddress:
 1141              	.LFB155:
 530:USB_DEVICE/Target/usbd_conf.c ****   HAL_StatusTypeDef hal_status = HAL_OK;
 1142              		.loc 1 530 0
 1143              		.cfi_startproc
 1144              		@ args = 0, pretend = 0, frame = 0
 1145              		@ frame_needed = 0, uses_anonymous_args = 0
 1146              	.LVL127:
 1147 0000 08B5     		push	{r3, lr}
ARM GAS  /tmp/ccoF0xqH.s 			page 33


 1148              	.LCFI27:
 1149              		.cfi_def_cfa_offset 8
 1150              		.cfi_offset 3, -8
 1151              		.cfi_offset 14, -4
 1152              	.LVL128:
 534:USB_DEVICE/Target/usbd_conf.c **** 
 1153              		.loc 1 534 0
 1154 0002 D0F8C802 		ldr	r0, [r0, #712]
 1155              	.LVL129:
 1156 0006 FFF7FEFF 		bl	HAL_PCD_SetAddress
 1157              	.LVL130:
 536:USB_DEVICE/Target/usbd_conf.c **** 
 1158              		.loc 1 536 0
 1159 000a FFF7FEFF 		bl	USBD_Get_USB_Status
 1160              	.LVL131:
 539:USB_DEVICE/Target/usbd_conf.c **** 
 1161              		.loc 1 539 0
 1162 000e 08BD     		pop	{r3, pc}
 1163              		.cfi_endproc
 1164              	.LFE155:
 1166              		.section	.text.USBD_LL_Transmit,"ax",%progbits
 1167              		.align	1
 1168              		.global	USBD_LL_Transmit
 1169              		.syntax unified
 1170              		.thumb
 1171              		.thumb_func
 1172              		.fpu fpv4-sp-d16
 1174              	USBD_LL_Transmit:
 1175              	.LFB156:
 550:USB_DEVICE/Target/usbd_conf.c ****   HAL_StatusTypeDef hal_status = HAL_OK;
 1176              		.loc 1 550 0
 1177              		.cfi_startproc
 1178              		@ args = 0, pretend = 0, frame = 0
 1179              		@ frame_needed = 0, uses_anonymous_args = 0
 1180              	.LVL132:
 1181 0000 08B5     		push	{r3, lr}
 1182              	.LCFI28:
 1183              		.cfi_def_cfa_offset 8
 1184              		.cfi_offset 3, -8
 1185              		.cfi_offset 14, -4
 1186              	.LVL133:
 554:USB_DEVICE/Target/usbd_conf.c **** 
 1187              		.loc 1 554 0
 1188 0002 D0F8C802 		ldr	r0, [r0, #712]
 1189              	.LVL134:
 1190 0006 FFF7FEFF 		bl	HAL_PCD_EP_Transmit
 1191              	.LVL135:
 556:USB_DEVICE/Target/usbd_conf.c **** 
 1192              		.loc 1 556 0
 1193 000a FFF7FEFF 		bl	USBD_Get_USB_Status
 1194              	.LVL136:
 559:USB_DEVICE/Target/usbd_conf.c **** 
 1195              		.loc 1 559 0
 1196 000e 08BD     		pop	{r3, pc}
 1197              		.cfi_endproc
 1198              	.LFE156:
 1200              		.section	.text.USBD_LL_PrepareReceive,"ax",%progbits
ARM GAS  /tmp/ccoF0xqH.s 			page 34


 1201              		.align	1
 1202              		.global	USBD_LL_PrepareReceive
 1203              		.syntax unified
 1204              		.thumb
 1205              		.thumb_func
 1206              		.fpu fpv4-sp-d16
 1208              	USBD_LL_PrepareReceive:
 1209              	.LFB157:
 570:USB_DEVICE/Target/usbd_conf.c ****   HAL_StatusTypeDef hal_status = HAL_OK;
 1210              		.loc 1 570 0
 1211              		.cfi_startproc
 1212              		@ args = 0, pretend = 0, frame = 0
 1213              		@ frame_needed = 0, uses_anonymous_args = 0
 1214              	.LVL137:
 1215 0000 08B5     		push	{r3, lr}
 1216              	.LCFI29:
 1217              		.cfi_def_cfa_offset 8
 1218              		.cfi_offset 3, -8
 1219              		.cfi_offset 14, -4
 1220              	.LVL138:
 574:USB_DEVICE/Target/usbd_conf.c **** 
 1221              		.loc 1 574 0
 1222 0002 D0F8C802 		ldr	r0, [r0, #712]
 1223              	.LVL139:
 1224 0006 FFF7FEFF 		bl	HAL_PCD_EP_Receive
 1225              	.LVL140:
 576:USB_DEVICE/Target/usbd_conf.c **** 
 1226              		.loc 1 576 0
 1227 000a FFF7FEFF 		bl	USBD_Get_USB_Status
 1228              	.LVL141:
 579:USB_DEVICE/Target/usbd_conf.c **** 
 1229              		.loc 1 579 0
 1230 000e 08BD     		pop	{r3, pc}
 1231              		.cfi_endproc
 1232              	.LFE157:
 1234              		.comm	hpcd_USB_OTG_FS,1292,4
 1235              		.section	.bss.mem.9625,"aw",%nobits
 1236              		.align	2
 1237              		.set	.LANCHOR0,. + 0
 1240              	mem.9625:
 1241 0000 00000000 		.space	544
 1241      00000000 
 1241      00000000 
 1241      00000000 
 1241      00000000 
 1242              		.text
 1243              	.Letext0:
 1244              		.file 2 "/usr/include/newlib/machine/_default_types.h"
 1245              		.file 3 "/usr/include/newlib/sys/_stdint.h"
 1246              		.file 4 "Drivers/CMSIS/Include/core_cm4.h"
 1247              		.file 5 "Drivers/CMSIS/Device/ST/STM32F4xx/Include/system_stm32f4xx.h"
 1248              		.file 6 "Drivers/CMSIS/Device/ST/STM32F4xx/Include/stm32f401xe.h"
 1249              		.file 7 "Drivers/CMSIS/Device/ST/STM32F4xx/Include/stm32f4xx.h"
 1250              		.file 8 "Drivers/STM32F4xx_HAL_Driver/Inc/stm32f4xx_hal_def.h"
 1251              		.file 9 "Drivers/STM32F4xx_HAL_Driver/Inc/stm32f4xx_hal_gpio.h"
 1252              		.file 10 "Drivers/STM32F4xx_HAL_Driver/Inc/stm32f4xx_ll_usb.h"
 1253              		.file 11 "Drivers/STM32F4xx_HAL_Driver/Inc/stm32f4xx_hal_pcd.h"
ARM GAS  /tmp/ccoF0xqH.s 			page 35


 1254              		.file 12 "Drivers/STM32F4xx_HAL_Driver/Inc/stm32f4xx_hal.h"
 1255              		.file 13 "/usr/include/newlib/sys/lock.h"
 1256              		.file 14 "/usr/include/newlib/sys/_types.h"
 1257              		.file 15 "/usr/lib/gcc/arm-none-eabi/6.3.1/include/stddef.h"
 1258              		.file 16 "/usr/include/newlib/sys/reent.h"
 1259              		.file 17 "/usr/include/newlib/stdlib.h"
 1260              		.file 18 "Middlewares/ST/STM32_USB_Device_Library/Core/Inc/usbd_def.h"
 1261              		.file 19 "Middlewares/ST/STM32_USB_Device_Library/Class/CDC/Inc/usbd_cdc.h"
 1262              		.file 20 "Drivers/STM32F4xx_HAL_Driver/Inc/stm32f4xx_hal_pcd_ex.h"
 1263              		.file 21 "Middlewares/ST/STM32_USB_Device_Library/Core/Inc/usbd_core.h"
 1264              		.file 22 "Drivers/STM32F4xx_HAL_Driver/Inc/stm32f4xx_hal_cortex.h"
ARM GAS  /tmp/ccoF0xqH.s 			page 36

