ARM GAS  /tmp/ccKKwcYH.s 			page 1


   1              		.cpu cortex-m4
   2              		.eabi_attribute 27, 1
   3              		.eabi_attribute 28, 1
   4              		.eabi_attribute 20, 1
   5              		.eabi_attribute 21, 1
   6              		.eabi_attribute 23, 3
   7              		.eabi_attribute 24, 1
   8              		.eabi_attribute 25, 1
   9              		.eabi_attribute 26, 1
  10              		.eabi_attribute 30, 1
  11              		.eabi_attribute 34, 1
  12              		.eabi_attribute 18, 4
  13              		.file	"ili9341.c"
  14              		.text
  15              	.Ltext0:
  16              		.cfi_sections	.debug_frame
  17              		.section	.text.serial_print,"ax",%progbits
  18              		.align	1
  19              		.global	serial_print
  20              		.syntax unified
  21              		.thumb
  22              		.thumb_func
  23              		.fpu fpv4-sp-d16
  25              	serial_print:
  26              	.LFB131:
  27              		.file 1 "libs/ili9341/ili9341.c"
   1:libs/ili9341/ili9341.c **** #include "ili9341.h"
   2:libs/ili9341/ili9341.c **** 
   3:libs/ili9341/ili9341.c **** /* Includes ---------------------------------------------------------------------------------------
   4:libs/ili9341/ili9341.c **** 
   5:libs/ili9341/ili9341.c **** 
   6:libs/ili9341/ili9341.c **** /* Macro Define -----------------------------------------------------------------------------------
   7:libs/ili9341/ili9341.c **** 
   8:libs/ili9341/ili9341.c **** 
   9:libs/ili9341/ili9341.c **** 
  10:libs/ili9341/ili9341.c **** /* gpio physical layer ----------------------------------------------------------------------------
  11:libs/ili9341/ili9341.c **** /* GPIO Defined on STM32F401 */
  12:libs/ili9341/ili9341.c **** /* LCD_RST   PC1 */
  13:libs/ili9341/ili9341.c **** /* LCD_CS    PB0 */
  14:libs/ili9341/ili9341.c **** /* LCD_RS (D/CX)    PA4 */
  15:libs/ili9341/ili9341.c **** /* LCD_WR    PA1 */
  16:libs/ili9341/ili9341.c **** /* LCD_RD    PA0 */
  17:libs/ili9341/ili9341.c **** 
  18:libs/ili9341/ili9341.c **** /* LCD_D2 PA10*/
  19:libs/ili9341/ili9341.c **** /* LCD_D3 PB3*/
  20:libs/ili9341/ili9341.c **** /* LCD_D4 PB5*/
  21:libs/ili9341/ili9341.c **** /* LCD_D5 PB4*/
  22:libs/ili9341/ili9341.c **** /* LCD_D6 PB10*/
  23:libs/ili9341/ili9341.c **** /* LCD_D7 PA8*/
  24:libs/ili9341/ili9341.c **** /* LCD_D0 PA9*/
  25:libs/ili9341/ili9341.c **** /* LCD_D1 PC7*/
  26:libs/ili9341/ili9341.c **** 
  27:libs/ili9341/ili9341.c **** 
  28:libs/ili9341/ili9341.c **** /**
  29:libs/ili9341/ili9341.c ****   * @brief   Print debug string through USART.
  30:libs/ili9341/ili9341.c ****   * @param   p_message Pointer to a message string.
  31:libs/ili9341/ili9341.c ****   * @retval  None.
ARM GAS  /tmp/ccKKwcYH.s 			page 2


  32:libs/ili9341/ili9341.c ****   * @note    When testing on STM32F401RE Nucleo Board, the board supports virtual COM (serial) port
  33:libs/ili9341/ili9341.c ****   *            Connecting a USB-TTL adapter such as CH340 to the 'TX/D1' on morpho connector will n
  34:libs/ili9341/ili9341.c ****   *             In the datasheet it has been confirmed that the USART2 pins have been to multiplexe
  35:libs/ili9341/ili9341.c ****   *             On the PC, look for port /dev/ttyACM0 as the virtual serial port in CuteCom / MiniC
  36:libs/ili9341/ili9341.c ****   */
  37:libs/ili9341/ili9341.c **** __inline__ void serial_print(char* p_message)
  38:libs/ili9341/ili9341.c **** {
  28              		.loc 1 38 0
  29              		.cfi_startproc
  30              		@ args = 0, pretend = 0, frame = 0
  31              		@ frame_needed = 0, uses_anonymous_args = 0
  32              	.LVL0:
  33 0000 10B5     		push	{r4, lr}
  34              	.LCFI0:
  35              		.cfi_def_cfa_offset 8
  36              		.cfi_offset 4, -8
  37              		.cfi_offset 14, -4
  38 0002 0446     		mov	r4, r0
  39:libs/ili9341/ili9341.c ****   /* Call STM32 HAL library function to UART, pass uart hander, string, length to UART. */
  40:libs/ili9341/ili9341.c ****   HAL_UART_Transmit(&huart2, (uint8_t*)p_message, strlen(p_message), 100);
  39              		.loc 1 40 0
  40 0004 FFF7FEFF 		bl	strlen
  41              	.LVL1:
  42 0008 6423     		movs	r3, #100
  43 000a 82B2     		uxth	r2, r0
  44 000c 2146     		mov	r1, r4
  45 000e 0248     		ldr	r0, .L3
  46 0010 FFF7FEFF 		bl	HAL_UART_Transmit
  47              	.LVL2:
  48 0014 10BD     		pop	{r4, pc}
  49              	.LVL3:
  50              	.L4:
  51 0016 00BF     		.align	2
  52              	.L3:
  53 0018 00000000 		.word	huart2
  54              		.cfi_endproc
  55              	.LFE131:
  57              		.section	.text.LCD_RST_1,"ax",%progbits
  58              		.align	1
  59              		.global	LCD_RST_1
  60              		.syntax unified
  61              		.thumb
  62              		.thumb_func
  63              		.fpu fpv4-sp-d16
  65              	LCD_RST_1:
  66              	.LFB132:
  41:libs/ili9341/ili9341.c **** }
  42:libs/ili9341/ili9341.c **** 
  43:libs/ili9341/ili9341.c **** 
  44:libs/ili9341/ili9341.c **** void LCD_RST_1()
  45:libs/ili9341/ili9341.c **** {
  67              		.loc 1 45 0
  68              		.cfi_startproc
  69              		@ args = 0, pretend = 0, frame = 0
  70              		@ frame_needed = 0, uses_anonymous_args = 0
  71 0000 08B5     		push	{r3, lr}
  72              	.LCFI1:
ARM GAS  /tmp/ccKKwcYH.s 			page 3


  73              		.cfi_def_cfa_offset 8
  74              		.cfi_offset 3, -8
  75              		.cfi_offset 14, -4
  46:libs/ili9341/ili9341.c ****   HAL_GPIO_WritePin(GPIOC, GPIO_PIN_1, GPIO_PIN_SET);  
  76              		.loc 1 46 0
  77 0002 0122     		movs	r2, #1
  78 0004 0221     		movs	r1, #2
  79 0006 0248     		ldr	r0, .L7
  80 0008 FFF7FEFF 		bl	HAL_GPIO_WritePin
  81              	.LVL4:
  82 000c 08BD     		pop	{r3, pc}
  83              	.L8:
  84 000e 00BF     		.align	2
  85              	.L7:
  86 0010 00080240 		.word	1073874944
  87              		.cfi_endproc
  88              	.LFE132:
  90              		.section	.text.LCD_RST_0,"ax",%progbits
  91              		.align	1
  92              		.global	LCD_RST_0
  93              		.syntax unified
  94              		.thumb
  95              		.thumb_func
  96              		.fpu fpv4-sp-d16
  98              	LCD_RST_0:
  99              	.LFB133:
  47:libs/ili9341/ili9341.c **** }
  48:libs/ili9341/ili9341.c **** 
  49:libs/ili9341/ili9341.c **** void LCD_RST_0()
  50:libs/ili9341/ili9341.c **** {
 100              		.loc 1 50 0
 101              		.cfi_startproc
 102              		@ args = 0, pretend = 0, frame = 0
 103              		@ frame_needed = 0, uses_anonymous_args = 0
 104 0000 08B5     		push	{r3, lr}
 105              	.LCFI2:
 106              		.cfi_def_cfa_offset 8
 107              		.cfi_offset 3, -8
 108              		.cfi_offset 14, -4
  51:libs/ili9341/ili9341.c ****   HAL_GPIO_WritePin(GPIOC, GPIO_PIN_1, GPIO_PIN_RESET);  
 109              		.loc 1 51 0
 110 0002 0022     		movs	r2, #0
 111 0004 0221     		movs	r1, #2
 112 0006 0248     		ldr	r0, .L11
 113 0008 FFF7FEFF 		bl	HAL_GPIO_WritePin
 114              	.LVL5:
 115 000c 08BD     		pop	{r3, pc}
 116              	.L12:
 117 000e 00BF     		.align	2
 118              	.L11:
 119 0010 00080240 		.word	1073874944
 120              		.cfi_endproc
 121              	.LFE133:
 123              		.section	.text.LCD_CS_1,"ax",%progbits
 124              		.align	1
 125              		.global	LCD_CS_1
 126              		.syntax unified
ARM GAS  /tmp/ccKKwcYH.s 			page 4


 127              		.thumb
 128              		.thumb_func
 129              		.fpu fpv4-sp-d16
 131              	LCD_CS_1:
 132              	.LFB134:
  52:libs/ili9341/ili9341.c **** }
  53:libs/ili9341/ili9341.c ****  
  54:libs/ili9341/ili9341.c **** 
  55:libs/ili9341/ili9341.c **** void LCD_CS_1()
  56:libs/ili9341/ili9341.c **** {
 133              		.loc 1 56 0
 134              		.cfi_startproc
 135              		@ args = 0, pretend = 0, frame = 0
 136              		@ frame_needed = 0, uses_anonymous_args = 0
 137 0000 08B5     		push	{r3, lr}
 138              	.LCFI3:
 139              		.cfi_def_cfa_offset 8
 140              		.cfi_offset 3, -8
 141              		.cfi_offset 14, -4
  57:libs/ili9341/ili9341.c ****   HAL_GPIO_WritePin(GPIOB, GPIO_PIN_0, GPIO_PIN_SET);  
 142              		.loc 1 57 0
 143 0002 0122     		movs	r2, #1
 144 0004 1146     		mov	r1, r2
 145 0006 0248     		ldr	r0, .L15
 146 0008 FFF7FEFF 		bl	HAL_GPIO_WritePin
 147              	.LVL6:
 148 000c 08BD     		pop	{r3, pc}
 149              	.L16:
 150 000e 00BF     		.align	2
 151              	.L15:
 152 0010 00040240 		.word	1073873920
 153              		.cfi_endproc
 154              	.LFE134:
 156              		.section	.text.LCD_CS_0,"ax",%progbits
 157              		.align	1
 158              		.global	LCD_CS_0
 159              		.syntax unified
 160              		.thumb
 161              		.thumb_func
 162              		.fpu fpv4-sp-d16
 164              	LCD_CS_0:
 165              	.LFB135:
  58:libs/ili9341/ili9341.c **** }
  59:libs/ili9341/ili9341.c **** 
  60:libs/ili9341/ili9341.c **** void LCD_CS_0()
  61:libs/ili9341/ili9341.c **** {
 166              		.loc 1 61 0
 167              		.cfi_startproc
 168              		@ args = 0, pretend = 0, frame = 0
 169              		@ frame_needed = 0, uses_anonymous_args = 0
 170 0000 08B5     		push	{r3, lr}
 171              	.LCFI4:
 172              		.cfi_def_cfa_offset 8
 173              		.cfi_offset 3, -8
 174              		.cfi_offset 14, -4
  62:libs/ili9341/ili9341.c ****   HAL_GPIO_WritePin(GPIOB, GPIO_PIN_0, GPIO_PIN_RESET);  
 175              		.loc 1 62 0
ARM GAS  /tmp/ccKKwcYH.s 			page 5


 176 0002 0022     		movs	r2, #0
 177 0004 0121     		movs	r1, #1
 178 0006 0248     		ldr	r0, .L19
 179 0008 FFF7FEFF 		bl	HAL_GPIO_WritePin
 180              	.LVL7:
 181 000c 08BD     		pop	{r3, pc}
 182              	.L20:
 183 000e 00BF     		.align	2
 184              	.L19:
 185 0010 00040240 		.word	1073873920
 186              		.cfi_endproc
 187              	.LFE135:
 189              		.section	.text.LCD_RS_1,"ax",%progbits
 190              		.align	1
 191              		.global	LCD_RS_1
 192              		.syntax unified
 193              		.thumb
 194              		.thumb_func
 195              		.fpu fpv4-sp-d16
 197              	LCD_RS_1:
 198              	.LFB136:
  63:libs/ili9341/ili9341.c **** }
  64:libs/ili9341/ili9341.c **** 
  65:libs/ili9341/ili9341.c ****  
  66:libs/ili9341/ili9341.c **** 
  67:libs/ili9341/ili9341.c **** void LCD_RS_1()
  68:libs/ili9341/ili9341.c **** {
 199              		.loc 1 68 0
 200              		.cfi_startproc
 201              		@ args = 0, pretend = 0, frame = 0
 202              		@ frame_needed = 0, uses_anonymous_args = 0
 203 0000 08B5     		push	{r3, lr}
 204              	.LCFI5:
 205              		.cfi_def_cfa_offset 8
 206              		.cfi_offset 3, -8
 207              		.cfi_offset 14, -4
  69:libs/ili9341/ili9341.c ****   HAL_GPIO_WritePin(GPIOA, GPIO_PIN_4, GPIO_PIN_SET);  
 208              		.loc 1 69 0
 209 0002 0122     		movs	r2, #1
 210 0004 1021     		movs	r1, #16
 211 0006 0248     		ldr	r0, .L23
 212 0008 FFF7FEFF 		bl	HAL_GPIO_WritePin
 213              	.LVL8:
 214 000c 08BD     		pop	{r3, pc}
 215              	.L24:
 216 000e 00BF     		.align	2
 217              	.L23:
 218 0010 00000240 		.word	1073872896
 219              		.cfi_endproc
 220              	.LFE136:
 222              		.section	.text.LCD_RS_0,"ax",%progbits
 223              		.align	1
 224              		.global	LCD_RS_0
 225              		.syntax unified
 226              		.thumb
 227              		.thumb_func
 228              		.fpu fpv4-sp-d16
ARM GAS  /tmp/ccKKwcYH.s 			page 6


 230              	LCD_RS_0:
 231              	.LFB137:
  70:libs/ili9341/ili9341.c **** }
  71:libs/ili9341/ili9341.c **** void LCD_RS_0()
  72:libs/ili9341/ili9341.c **** {
 232              		.loc 1 72 0
 233              		.cfi_startproc
 234              		@ args = 0, pretend = 0, frame = 0
 235              		@ frame_needed = 0, uses_anonymous_args = 0
 236 0000 08B5     		push	{r3, lr}
 237              	.LCFI6:
 238              		.cfi_def_cfa_offset 8
 239              		.cfi_offset 3, -8
 240              		.cfi_offset 14, -4
  73:libs/ili9341/ili9341.c ****   HAL_GPIO_WritePin(GPIOA, GPIO_PIN_4, GPIO_PIN_RESET);  
 241              		.loc 1 73 0
 242 0002 0022     		movs	r2, #0
 243 0004 1021     		movs	r1, #16
 244 0006 0248     		ldr	r0, .L27
 245 0008 FFF7FEFF 		bl	HAL_GPIO_WritePin
 246              	.LVL9:
 247 000c 08BD     		pop	{r3, pc}
 248              	.L28:
 249 000e 00BF     		.align	2
 250              	.L27:
 251 0010 00000240 		.word	1073872896
 252              		.cfi_endproc
 253              	.LFE137:
 255              		.section	.text.LCD_WR_1,"ax",%progbits
 256              		.align	1
 257              		.global	LCD_WR_1
 258              		.syntax unified
 259              		.thumb
 260              		.thumb_func
 261              		.fpu fpv4-sp-d16
 263              	LCD_WR_1:
 264              	.LFB138:
  74:libs/ili9341/ili9341.c **** }
  75:libs/ili9341/ili9341.c **** 
  76:libs/ili9341/ili9341.c **** 
  77:libs/ili9341/ili9341.c **** void LCD_WR_1()
  78:libs/ili9341/ili9341.c **** {
 265              		.loc 1 78 0
 266              		.cfi_startproc
 267              		@ args = 0, pretend = 0, frame = 0
 268              		@ frame_needed = 0, uses_anonymous_args = 0
 269 0000 08B5     		push	{r3, lr}
 270              	.LCFI7:
 271              		.cfi_def_cfa_offset 8
 272              		.cfi_offset 3, -8
 273              		.cfi_offset 14, -4
  79:libs/ili9341/ili9341.c ****   HAL_GPIO_WritePin(GPIOA, GPIO_PIN_1, GPIO_PIN_SET);  
 274              		.loc 1 79 0
 275 0002 0122     		movs	r2, #1
 276 0004 0221     		movs	r1, #2
 277 0006 0248     		ldr	r0, .L31
 278 0008 FFF7FEFF 		bl	HAL_GPIO_WritePin
ARM GAS  /tmp/ccKKwcYH.s 			page 7


 279              	.LVL10:
 280 000c 08BD     		pop	{r3, pc}
 281              	.L32:
 282 000e 00BF     		.align	2
 283              	.L31:
 284 0010 00000240 		.word	1073872896
 285              		.cfi_endproc
 286              	.LFE138:
 288              		.section	.text.LCD_WR_0,"ax",%progbits
 289              		.align	1
 290              		.global	LCD_WR_0
 291              		.syntax unified
 292              		.thumb
 293              		.thumb_func
 294              		.fpu fpv4-sp-d16
 296              	LCD_WR_0:
 297              	.LFB139:
  80:libs/ili9341/ili9341.c **** }
  81:libs/ili9341/ili9341.c **** void LCD_WR_0()
  82:libs/ili9341/ili9341.c **** {
 298              		.loc 1 82 0
 299              		.cfi_startproc
 300              		@ args = 0, pretend = 0, frame = 0
 301              		@ frame_needed = 0, uses_anonymous_args = 0
 302 0000 08B5     		push	{r3, lr}
 303              	.LCFI8:
 304              		.cfi_def_cfa_offset 8
 305              		.cfi_offset 3, -8
 306              		.cfi_offset 14, -4
  83:libs/ili9341/ili9341.c ****   HAL_GPIO_WritePin(GPIOA, GPIO_PIN_1, GPIO_PIN_RESET);  
 307              		.loc 1 83 0
 308 0002 0022     		movs	r2, #0
 309 0004 0221     		movs	r1, #2
 310 0006 0248     		ldr	r0, .L35
 311 0008 FFF7FEFF 		bl	HAL_GPIO_WritePin
 312              	.LVL11:
 313 000c 08BD     		pop	{r3, pc}
 314              	.L36:
 315 000e 00BF     		.align	2
 316              	.L35:
 317 0010 00000240 		.word	1073872896
 318              		.cfi_endproc
 319              	.LFE139:
 321              		.section	.text.LCD_WR_RISING_EDGE,"ax",%progbits
 322              		.align	1
 323              		.global	LCD_WR_RISING_EDGE
 324              		.syntax unified
 325              		.thumb
 326              		.thumb_func
 327              		.fpu fpv4-sp-d16
 329              	LCD_WR_RISING_EDGE:
 330              	.LFB140:
  84:libs/ili9341/ili9341.c **** }
  85:libs/ili9341/ili9341.c **** 
  86:libs/ili9341/ili9341.c **** void LCD_WR_RISING_EDGE()
  87:libs/ili9341/ili9341.c **** {
 331              		.loc 1 87 0
ARM GAS  /tmp/ccKKwcYH.s 			page 8


 332              		.cfi_startproc
 333              		@ args = 0, pretend = 0, frame = 0
 334              		@ frame_needed = 0, uses_anonymous_args = 0
 335 0000 10B5     		push	{r4, lr}
 336              	.LCFI9:
 337              		.cfi_def_cfa_offset 8
 338              		.cfi_offset 4, -8
 339              		.cfi_offset 14, -4
  88:libs/ili9341/ili9341.c ****   HAL_GPIO_WritePin(GPIOA, GPIO_PIN_1, GPIO_PIN_RESET);  
 340              		.loc 1 88 0
 341 0002 064C     		ldr	r4, .L39
 342 0004 0022     		movs	r2, #0
 343 0006 0221     		movs	r1, #2
 344 0008 2046     		mov	r0, r4
 345 000a FFF7FEFF 		bl	HAL_GPIO_WritePin
 346              	.LVL12:
  89:libs/ili9341/ili9341.c ****   HAL_GPIO_WritePin(GPIOA, GPIO_PIN_1, GPIO_PIN_SET);  
 347              		.loc 1 89 0
 348 000e 0122     		movs	r2, #1
 349 0010 0221     		movs	r1, #2
 350 0012 2046     		mov	r0, r4
 351 0014 FFF7FEFF 		bl	HAL_GPIO_WritePin
 352              	.LVL13:
 353 0018 10BD     		pop	{r4, pc}
 354              	.L40:
 355 001a 00BF     		.align	2
 356              	.L39:
 357 001c 00000240 		.word	1073872896
 358              		.cfi_endproc
 359              	.LFE140:
 361              		.section	.text.LCD_RD_1,"ax",%progbits
 362              		.align	1
 363              		.global	LCD_RD_1
 364              		.syntax unified
 365              		.thumb
 366              		.thumb_func
 367              		.fpu fpv4-sp-d16
 369              	LCD_RD_1:
 370              	.LFB141:
  90:libs/ili9341/ili9341.c **** }
  91:libs/ili9341/ili9341.c **** 
  92:libs/ili9341/ili9341.c **** 
  93:libs/ili9341/ili9341.c **** void LCD_RD_1()
  94:libs/ili9341/ili9341.c **** {
 371              		.loc 1 94 0
 372              		.cfi_startproc
 373              		@ args = 0, pretend = 0, frame = 0
 374              		@ frame_needed = 0, uses_anonymous_args = 0
 375 0000 08B5     		push	{r3, lr}
 376              	.LCFI10:
 377              		.cfi_def_cfa_offset 8
 378              		.cfi_offset 3, -8
 379              		.cfi_offset 14, -4
  95:libs/ili9341/ili9341.c ****   HAL_GPIO_WritePin(GPIOA, GPIO_PIN_0, GPIO_PIN_SET);  
 380              		.loc 1 95 0
 381 0002 0122     		movs	r2, #1
 382 0004 1146     		mov	r1, r2
ARM GAS  /tmp/ccKKwcYH.s 			page 9


 383 0006 0248     		ldr	r0, .L43
 384 0008 FFF7FEFF 		bl	HAL_GPIO_WritePin
 385              	.LVL14:
 386 000c 08BD     		pop	{r3, pc}
 387              	.L44:
 388 000e 00BF     		.align	2
 389              	.L43:
 390 0010 00000240 		.word	1073872896
 391              		.cfi_endproc
 392              	.LFE141:
 394              		.section	.text.LCD_RD_0,"ax",%progbits
 395              		.align	1
 396              		.global	LCD_RD_0
 397              		.syntax unified
 398              		.thumb
 399              		.thumb_func
 400              		.fpu fpv4-sp-d16
 402              	LCD_RD_0:
 403              	.LFB142:
  96:libs/ili9341/ili9341.c **** }
  97:libs/ili9341/ili9341.c **** void LCD_RD_0()
  98:libs/ili9341/ili9341.c **** {
 404              		.loc 1 98 0
 405              		.cfi_startproc
 406              		@ args = 0, pretend = 0, frame = 0
 407              		@ frame_needed = 0, uses_anonymous_args = 0
 408 0000 08B5     		push	{r3, lr}
 409              	.LCFI11:
 410              		.cfi_def_cfa_offset 8
 411              		.cfi_offset 3, -8
 412              		.cfi_offset 14, -4
  99:libs/ili9341/ili9341.c ****   HAL_GPIO_WritePin(GPIOA, GPIO_PIN_0, GPIO_PIN_RESET);  
 413              		.loc 1 99 0
 414 0002 0022     		movs	r2, #0
 415 0004 0121     		movs	r1, #1
 416 0006 0248     		ldr	r0, .L47
 417 0008 FFF7FEFF 		bl	HAL_GPIO_WritePin
 418              	.LVL15:
 419 000c 08BD     		pop	{r3, pc}
 420              	.L48:
 421 000e 00BF     		.align	2
 422              	.L47:
 423 0010 00000240 		.word	1073872896
 424              		.cfi_endproc
 425              	.LFE142:
 427              		.section	.text.LCD_D2_1,"ax",%progbits
 428              		.align	1
 429              		.global	LCD_D2_1
 430              		.syntax unified
 431              		.thumb
 432              		.thumb_func
 433              		.fpu fpv4-sp-d16
 435              	LCD_D2_1:
 436              	.LFB143:
 100:libs/ili9341/ili9341.c **** }
 101:libs/ili9341/ili9341.c **** 
 102:libs/ili9341/ili9341.c **** 
ARM GAS  /tmp/ccKKwcYH.s 			page 10


 103:libs/ili9341/ili9341.c **** void LCD_D2_1()
 104:libs/ili9341/ili9341.c **** {
 437              		.loc 1 104 0
 438              		.cfi_startproc
 439              		@ args = 0, pretend = 0, frame = 0
 440              		@ frame_needed = 0, uses_anonymous_args = 0
 441 0000 08B5     		push	{r3, lr}
 442              	.LCFI12:
 443              		.cfi_def_cfa_offset 8
 444              		.cfi_offset 3, -8
 445              		.cfi_offset 14, -4
 105:libs/ili9341/ili9341.c ****   HAL_GPIO_WritePin(GPIOA, GPIO_PIN_10, GPIO_PIN_SET);  
 446              		.loc 1 105 0
 447 0002 0122     		movs	r2, #1
 448 0004 4FF48061 		mov	r1, #1024
 449 0008 0148     		ldr	r0, .L51
 450 000a FFF7FEFF 		bl	HAL_GPIO_WritePin
 451              	.LVL16:
 452 000e 08BD     		pop	{r3, pc}
 453              	.L52:
 454              		.align	2
 455              	.L51:
 456 0010 00000240 		.word	1073872896
 457              		.cfi_endproc
 458              	.LFE143:
 460              		.section	.text.LCD_D2_0,"ax",%progbits
 461              		.align	1
 462              		.global	LCD_D2_0
 463              		.syntax unified
 464              		.thumb
 465              		.thumb_func
 466              		.fpu fpv4-sp-d16
 468              	LCD_D2_0:
 469              	.LFB144:
 106:libs/ili9341/ili9341.c **** }
 107:libs/ili9341/ili9341.c **** void LCD_D2_0()
 108:libs/ili9341/ili9341.c **** {
 470              		.loc 1 108 0
 471              		.cfi_startproc
 472              		@ args = 0, pretend = 0, frame = 0
 473              		@ frame_needed = 0, uses_anonymous_args = 0
 474 0000 08B5     		push	{r3, lr}
 475              	.LCFI13:
 476              		.cfi_def_cfa_offset 8
 477              		.cfi_offset 3, -8
 478              		.cfi_offset 14, -4
 109:libs/ili9341/ili9341.c ****   HAL_GPIO_WritePin(GPIOA, GPIO_PIN_10, GPIO_PIN_RESET);  
 479              		.loc 1 109 0
 480 0002 0022     		movs	r2, #0
 481 0004 4FF48061 		mov	r1, #1024
 482 0008 0148     		ldr	r0, .L55
 483 000a FFF7FEFF 		bl	HAL_GPIO_WritePin
 484              	.LVL17:
 485 000e 08BD     		pop	{r3, pc}
 486              	.L56:
 487              		.align	2
 488              	.L55:
ARM GAS  /tmp/ccKKwcYH.s 			page 11


 489 0010 00000240 		.word	1073872896
 490              		.cfi_endproc
 491              	.LFE144:
 493              		.section	.text.LCD_D3_1,"ax",%progbits
 494              		.align	1
 495              		.global	LCD_D3_1
 496              		.syntax unified
 497              		.thumb
 498              		.thumb_func
 499              		.fpu fpv4-sp-d16
 501              	LCD_D3_1:
 502              	.LFB145:
 110:libs/ili9341/ili9341.c **** }
 111:libs/ili9341/ili9341.c **** 
 112:libs/ili9341/ili9341.c **** 
 113:libs/ili9341/ili9341.c **** void LCD_D3_1()
 114:libs/ili9341/ili9341.c **** {
 503              		.loc 1 114 0
 504              		.cfi_startproc
 505              		@ args = 0, pretend = 0, frame = 0
 506              		@ frame_needed = 0, uses_anonymous_args = 0
 507 0000 08B5     		push	{r3, lr}
 508              	.LCFI14:
 509              		.cfi_def_cfa_offset 8
 510              		.cfi_offset 3, -8
 511              		.cfi_offset 14, -4
 115:libs/ili9341/ili9341.c ****   HAL_GPIO_WritePin(GPIOB, GPIO_PIN_3, GPIO_PIN_SET);  
 512              		.loc 1 115 0
 513 0002 0122     		movs	r2, #1
 514 0004 0821     		movs	r1, #8
 515 0006 0248     		ldr	r0, .L59
 516 0008 FFF7FEFF 		bl	HAL_GPIO_WritePin
 517              	.LVL18:
 518 000c 08BD     		pop	{r3, pc}
 519              	.L60:
 520 000e 00BF     		.align	2
 521              	.L59:
 522 0010 00040240 		.word	1073873920
 523              		.cfi_endproc
 524              	.LFE145:
 526              		.section	.text.LCD_D3_0,"ax",%progbits
 527              		.align	1
 528              		.global	LCD_D3_0
 529              		.syntax unified
 530              		.thumb
 531              		.thumb_func
 532              		.fpu fpv4-sp-d16
 534              	LCD_D3_0:
 535              	.LFB146:
 116:libs/ili9341/ili9341.c **** }
 117:libs/ili9341/ili9341.c **** void LCD_D3_0()
 118:libs/ili9341/ili9341.c **** {
 536              		.loc 1 118 0
 537              		.cfi_startproc
 538              		@ args = 0, pretend = 0, frame = 0
 539              		@ frame_needed = 0, uses_anonymous_args = 0
 540 0000 08B5     		push	{r3, lr}
ARM GAS  /tmp/ccKKwcYH.s 			page 12


 541              	.LCFI15:
 542              		.cfi_def_cfa_offset 8
 543              		.cfi_offset 3, -8
 544              		.cfi_offset 14, -4
 119:libs/ili9341/ili9341.c ****   HAL_GPIO_WritePin(GPIOB, GPIO_PIN_3, GPIO_PIN_RESET);  
 545              		.loc 1 119 0
 546 0002 0022     		movs	r2, #0
 547 0004 0821     		movs	r1, #8
 548 0006 0248     		ldr	r0, .L63
 549 0008 FFF7FEFF 		bl	HAL_GPIO_WritePin
 550              	.LVL19:
 551 000c 08BD     		pop	{r3, pc}
 552              	.L64:
 553 000e 00BF     		.align	2
 554              	.L63:
 555 0010 00040240 		.word	1073873920
 556              		.cfi_endproc
 557              	.LFE146:
 559              		.section	.text.LCD_D4_1,"ax",%progbits
 560              		.align	1
 561              		.global	LCD_D4_1
 562              		.syntax unified
 563              		.thumb
 564              		.thumb_func
 565              		.fpu fpv4-sp-d16
 567              	LCD_D4_1:
 568              	.LFB147:
 120:libs/ili9341/ili9341.c **** }
 121:libs/ili9341/ili9341.c **** 
 122:libs/ili9341/ili9341.c **** 
 123:libs/ili9341/ili9341.c **** void LCD_D4_1()
 124:libs/ili9341/ili9341.c **** {
 569              		.loc 1 124 0
 570              		.cfi_startproc
 571              		@ args = 0, pretend = 0, frame = 0
 572              		@ frame_needed = 0, uses_anonymous_args = 0
 573 0000 08B5     		push	{r3, lr}
 574              	.LCFI16:
 575              		.cfi_def_cfa_offset 8
 576              		.cfi_offset 3, -8
 577              		.cfi_offset 14, -4
 125:libs/ili9341/ili9341.c ****   HAL_GPIO_WritePin(GPIOB, GPIO_PIN_5, GPIO_PIN_SET);  
 578              		.loc 1 125 0
 579 0002 0122     		movs	r2, #1
 580 0004 2021     		movs	r1, #32
 581 0006 0248     		ldr	r0, .L67
 582 0008 FFF7FEFF 		bl	HAL_GPIO_WritePin
 583              	.LVL20:
 584 000c 08BD     		pop	{r3, pc}
 585              	.L68:
 586 000e 00BF     		.align	2
 587              	.L67:
 588 0010 00040240 		.word	1073873920
 589              		.cfi_endproc
 590              	.LFE147:
 592              		.section	.text.LCD_D4_0,"ax",%progbits
 593              		.align	1
ARM GAS  /tmp/ccKKwcYH.s 			page 13


 594              		.global	LCD_D4_0
 595              		.syntax unified
 596              		.thumb
 597              		.thumb_func
 598              		.fpu fpv4-sp-d16
 600              	LCD_D4_0:
 601              	.LFB148:
 126:libs/ili9341/ili9341.c **** }
 127:libs/ili9341/ili9341.c **** void LCD_D4_0()
 128:libs/ili9341/ili9341.c **** {
 602              		.loc 1 128 0
 603              		.cfi_startproc
 604              		@ args = 0, pretend = 0, frame = 0
 605              		@ frame_needed = 0, uses_anonymous_args = 0
 606 0000 08B5     		push	{r3, lr}
 607              	.LCFI17:
 608              		.cfi_def_cfa_offset 8
 609              		.cfi_offset 3, -8
 610              		.cfi_offset 14, -4
 129:libs/ili9341/ili9341.c ****   HAL_GPIO_WritePin(GPIOB, GPIO_PIN_5, GPIO_PIN_RESET);  
 611              		.loc 1 129 0
 612 0002 0022     		movs	r2, #0
 613 0004 2021     		movs	r1, #32
 614 0006 0248     		ldr	r0, .L71
 615 0008 FFF7FEFF 		bl	HAL_GPIO_WritePin
 616              	.LVL21:
 617 000c 08BD     		pop	{r3, pc}
 618              	.L72:
 619 000e 00BF     		.align	2
 620              	.L71:
 621 0010 00040240 		.word	1073873920
 622              		.cfi_endproc
 623              	.LFE148:
 625              		.section	.text.LCD_D5_1,"ax",%progbits
 626              		.align	1
 627              		.global	LCD_D5_1
 628              		.syntax unified
 629              		.thumb
 630              		.thumb_func
 631              		.fpu fpv4-sp-d16
 633              	LCD_D5_1:
 634              	.LFB149:
 130:libs/ili9341/ili9341.c **** }
 131:libs/ili9341/ili9341.c **** 
 132:libs/ili9341/ili9341.c **** 
 133:libs/ili9341/ili9341.c **** 
 134:libs/ili9341/ili9341.c **** void LCD_D5_1()
 135:libs/ili9341/ili9341.c **** {
 635              		.loc 1 135 0
 636              		.cfi_startproc
 637              		@ args = 0, pretend = 0, frame = 0
 638              		@ frame_needed = 0, uses_anonymous_args = 0
 639 0000 08B5     		push	{r3, lr}
 640              	.LCFI18:
 641              		.cfi_def_cfa_offset 8
 642              		.cfi_offset 3, -8
 643              		.cfi_offset 14, -4
ARM GAS  /tmp/ccKKwcYH.s 			page 14


 136:libs/ili9341/ili9341.c ****   HAL_GPIO_WritePin(GPIOB, GPIO_PIN_4, GPIO_PIN_SET);  
 644              		.loc 1 136 0
 645 0002 0122     		movs	r2, #1
 646 0004 1021     		movs	r1, #16
 647 0006 0248     		ldr	r0, .L75
 648 0008 FFF7FEFF 		bl	HAL_GPIO_WritePin
 649              	.LVL22:
 650 000c 08BD     		pop	{r3, pc}
 651              	.L76:
 652 000e 00BF     		.align	2
 653              	.L75:
 654 0010 00040240 		.word	1073873920
 655              		.cfi_endproc
 656              	.LFE149:
 658              		.section	.text.LCD_D5_0,"ax",%progbits
 659              		.align	1
 660              		.global	LCD_D5_0
 661              		.syntax unified
 662              		.thumb
 663              		.thumb_func
 664              		.fpu fpv4-sp-d16
 666              	LCD_D5_0:
 667              	.LFB150:
 137:libs/ili9341/ili9341.c **** }
 138:libs/ili9341/ili9341.c **** void LCD_D5_0()
 139:libs/ili9341/ili9341.c **** {
 668              		.loc 1 139 0
 669              		.cfi_startproc
 670              		@ args = 0, pretend = 0, frame = 0
 671              		@ frame_needed = 0, uses_anonymous_args = 0
 672 0000 08B5     		push	{r3, lr}
 673              	.LCFI19:
 674              		.cfi_def_cfa_offset 8
 675              		.cfi_offset 3, -8
 676              		.cfi_offset 14, -4
 140:libs/ili9341/ili9341.c ****   HAL_GPIO_WritePin(GPIOB, GPIO_PIN_4, GPIO_PIN_RESET);  
 677              		.loc 1 140 0
 678 0002 0022     		movs	r2, #0
 679 0004 1021     		movs	r1, #16
 680 0006 0248     		ldr	r0, .L79
 681 0008 FFF7FEFF 		bl	HAL_GPIO_WritePin
 682              	.LVL23:
 683 000c 08BD     		pop	{r3, pc}
 684              	.L80:
 685 000e 00BF     		.align	2
 686              	.L79:
 687 0010 00040240 		.word	1073873920
 688              		.cfi_endproc
 689              	.LFE150:
 691              		.section	.text.LCD_D6_1,"ax",%progbits
 692              		.align	1
 693              		.global	LCD_D6_1
 694              		.syntax unified
 695              		.thumb
 696              		.thumb_func
 697              		.fpu fpv4-sp-d16
 699              	LCD_D6_1:
ARM GAS  /tmp/ccKKwcYH.s 			page 15


 700              	.LFB151:
 141:libs/ili9341/ili9341.c **** }
 142:libs/ili9341/ili9341.c **** 
 143:libs/ili9341/ili9341.c **** 
 144:libs/ili9341/ili9341.c **** void LCD_D6_1()
 145:libs/ili9341/ili9341.c **** {
 701              		.loc 1 145 0
 702              		.cfi_startproc
 703              		@ args = 0, pretend = 0, frame = 0
 704              		@ frame_needed = 0, uses_anonymous_args = 0
 705 0000 08B5     		push	{r3, lr}
 706              	.LCFI20:
 707              		.cfi_def_cfa_offset 8
 708              		.cfi_offset 3, -8
 709              		.cfi_offset 14, -4
 146:libs/ili9341/ili9341.c ****   HAL_GPIO_WritePin(GPIOB, GPIO_PIN_10, GPIO_PIN_SET);  
 710              		.loc 1 146 0
 711 0002 0122     		movs	r2, #1
 712 0004 4FF48061 		mov	r1, #1024
 713 0008 0148     		ldr	r0, .L83
 714 000a FFF7FEFF 		bl	HAL_GPIO_WritePin
 715              	.LVL24:
 716 000e 08BD     		pop	{r3, pc}
 717              	.L84:
 718              		.align	2
 719              	.L83:
 720 0010 00040240 		.word	1073873920
 721              		.cfi_endproc
 722              	.LFE151:
 724              		.section	.text.LCD_D6_0,"ax",%progbits
 725              		.align	1
 726              		.global	LCD_D6_0
 727              		.syntax unified
 728              		.thumb
 729              		.thumb_func
 730              		.fpu fpv4-sp-d16
 732              	LCD_D6_0:
 733              	.LFB152:
 147:libs/ili9341/ili9341.c **** }
 148:libs/ili9341/ili9341.c **** void LCD_D6_0()
 149:libs/ili9341/ili9341.c **** {
 734              		.loc 1 149 0
 735              		.cfi_startproc
 736              		@ args = 0, pretend = 0, frame = 0
 737              		@ frame_needed = 0, uses_anonymous_args = 0
 738 0000 08B5     		push	{r3, lr}
 739              	.LCFI21:
 740              		.cfi_def_cfa_offset 8
 741              		.cfi_offset 3, -8
 742              		.cfi_offset 14, -4
 150:libs/ili9341/ili9341.c ****   HAL_GPIO_WritePin(GPIOB, GPIO_PIN_10, GPIO_PIN_RESET);  
 743              		.loc 1 150 0
 744 0002 0022     		movs	r2, #0
 745 0004 4FF48061 		mov	r1, #1024
 746 0008 0148     		ldr	r0, .L87
 747 000a FFF7FEFF 		bl	HAL_GPIO_WritePin
 748              	.LVL25:
ARM GAS  /tmp/ccKKwcYH.s 			page 16


 749 000e 08BD     		pop	{r3, pc}
 750              	.L88:
 751              		.align	2
 752              	.L87:
 753 0010 00040240 		.word	1073873920
 754              		.cfi_endproc
 755              	.LFE152:
 757              		.section	.text.LCD_D7_1,"ax",%progbits
 758              		.align	1
 759              		.global	LCD_D7_1
 760              		.syntax unified
 761              		.thumb
 762              		.thumb_func
 763              		.fpu fpv4-sp-d16
 765              	LCD_D7_1:
 766              	.LFB153:
 151:libs/ili9341/ili9341.c **** }
 152:libs/ili9341/ili9341.c **** 
 153:libs/ili9341/ili9341.c **** 
 154:libs/ili9341/ili9341.c **** void LCD_D7_1()
 155:libs/ili9341/ili9341.c **** {
 767              		.loc 1 155 0
 768              		.cfi_startproc
 769              		@ args = 0, pretend = 0, frame = 0
 770              		@ frame_needed = 0, uses_anonymous_args = 0
 771 0000 08B5     		push	{r3, lr}
 772              	.LCFI22:
 773              		.cfi_def_cfa_offset 8
 774              		.cfi_offset 3, -8
 775              		.cfi_offset 14, -4
 156:libs/ili9341/ili9341.c ****   HAL_GPIO_WritePin(GPIOA, GPIO_PIN_8, GPIO_PIN_SET);  
 776              		.loc 1 156 0
 777 0002 0122     		movs	r2, #1
 778 0004 4FF48071 		mov	r1, #256
 779 0008 0148     		ldr	r0, .L91
 780 000a FFF7FEFF 		bl	HAL_GPIO_WritePin
 781              	.LVL26:
 782 000e 08BD     		pop	{r3, pc}
 783              	.L92:
 784              		.align	2
 785              	.L91:
 786 0010 00000240 		.word	1073872896
 787              		.cfi_endproc
 788              	.LFE153:
 790              		.section	.text.LCD_D7_0,"ax",%progbits
 791              		.align	1
 792              		.global	LCD_D7_0
 793              		.syntax unified
 794              		.thumb
 795              		.thumb_func
 796              		.fpu fpv4-sp-d16
 798              	LCD_D7_0:
 799              	.LFB154:
 157:libs/ili9341/ili9341.c **** }
 158:libs/ili9341/ili9341.c **** 
 159:libs/ili9341/ili9341.c **** void LCD_D7_0()
 160:libs/ili9341/ili9341.c **** {
ARM GAS  /tmp/ccKKwcYH.s 			page 17


 800              		.loc 1 160 0
 801              		.cfi_startproc
 802              		@ args = 0, pretend = 0, frame = 0
 803              		@ frame_needed = 0, uses_anonymous_args = 0
 804 0000 08B5     		push	{r3, lr}
 805              	.LCFI23:
 806              		.cfi_def_cfa_offset 8
 807              		.cfi_offset 3, -8
 808              		.cfi_offset 14, -4
 161:libs/ili9341/ili9341.c ****   HAL_GPIO_WritePin(GPIOA, GPIO_PIN_8, GPIO_PIN_RESET);  
 809              		.loc 1 161 0
 810 0002 0022     		movs	r2, #0
 811 0004 4FF48071 		mov	r1, #256
 812 0008 0148     		ldr	r0, .L95
 813 000a FFF7FEFF 		bl	HAL_GPIO_WritePin
 814              	.LVL27:
 815 000e 08BD     		pop	{r3, pc}
 816              	.L96:
 817              		.align	2
 818              	.L95:
 819 0010 00000240 		.word	1073872896
 820              		.cfi_endproc
 821              	.LFE154:
 823              		.section	.text.LCD_D0_1,"ax",%progbits
 824              		.align	1
 825              		.global	LCD_D0_1
 826              		.syntax unified
 827              		.thumb
 828              		.thumb_func
 829              		.fpu fpv4-sp-d16
 831              	LCD_D0_1:
 832              	.LFB155:
 162:libs/ili9341/ili9341.c **** }
 163:libs/ili9341/ili9341.c **** 
 164:libs/ili9341/ili9341.c **** 
 165:libs/ili9341/ili9341.c **** 
 166:libs/ili9341/ili9341.c **** void LCD_D0_1()
 167:libs/ili9341/ili9341.c **** {
 833              		.loc 1 167 0
 834              		.cfi_startproc
 835              		@ args = 0, pretend = 0, frame = 0
 836              		@ frame_needed = 0, uses_anonymous_args = 0
 837 0000 08B5     		push	{r3, lr}
 838              	.LCFI24:
 839              		.cfi_def_cfa_offset 8
 840              		.cfi_offset 3, -8
 841              		.cfi_offset 14, -4
 168:libs/ili9341/ili9341.c ****   HAL_GPIO_WritePin(GPIOA, GPIO_PIN_9, GPIO_PIN_SET);  
 842              		.loc 1 168 0
 843 0002 0122     		movs	r2, #1
 844 0004 4FF40071 		mov	r1, #512
 845 0008 0148     		ldr	r0, .L99
 846 000a FFF7FEFF 		bl	HAL_GPIO_WritePin
 847              	.LVL28:
 848 000e 08BD     		pop	{r3, pc}
 849              	.L100:
 850              		.align	2
ARM GAS  /tmp/ccKKwcYH.s 			page 18


 851              	.L99:
 852 0010 00000240 		.word	1073872896
 853              		.cfi_endproc
 854              	.LFE155:
 856              		.section	.text.LCD_D0_0,"ax",%progbits
 857              		.align	1
 858              		.global	LCD_D0_0
 859              		.syntax unified
 860              		.thumb
 861              		.thumb_func
 862              		.fpu fpv4-sp-d16
 864              	LCD_D0_0:
 865              	.LFB156:
 169:libs/ili9341/ili9341.c **** }
 170:libs/ili9341/ili9341.c **** 
 171:libs/ili9341/ili9341.c **** void LCD_D0_0()
 172:libs/ili9341/ili9341.c **** {
 866              		.loc 1 172 0
 867              		.cfi_startproc
 868              		@ args = 0, pretend = 0, frame = 0
 869              		@ frame_needed = 0, uses_anonymous_args = 0
 870 0000 08B5     		push	{r3, lr}
 871              	.LCFI25:
 872              		.cfi_def_cfa_offset 8
 873              		.cfi_offset 3, -8
 874              		.cfi_offset 14, -4
 173:libs/ili9341/ili9341.c ****   HAL_GPIO_WritePin(GPIOA, GPIO_PIN_9, GPIO_PIN_RESET);  
 875              		.loc 1 173 0
 876 0002 0022     		movs	r2, #0
 877 0004 4FF40071 		mov	r1, #512
 878 0008 0148     		ldr	r0, .L103
 879 000a FFF7FEFF 		bl	HAL_GPIO_WritePin
 880              	.LVL29:
 881 000e 08BD     		pop	{r3, pc}
 882              	.L104:
 883              		.align	2
 884              	.L103:
 885 0010 00000240 		.word	1073872896
 886              		.cfi_endproc
 887              	.LFE156:
 889              		.section	.text.LCD_D1_1,"ax",%progbits
 890              		.align	1
 891              		.global	LCD_D1_1
 892              		.syntax unified
 893              		.thumb
 894              		.thumb_func
 895              		.fpu fpv4-sp-d16
 897              	LCD_D1_1:
 898              	.LFB157:
 174:libs/ili9341/ili9341.c **** }
 175:libs/ili9341/ili9341.c **** 
 176:libs/ili9341/ili9341.c **** 
 177:libs/ili9341/ili9341.c **** void LCD_D1_1()
 178:libs/ili9341/ili9341.c **** {
 899              		.loc 1 178 0
 900              		.cfi_startproc
 901              		@ args = 0, pretend = 0, frame = 0
ARM GAS  /tmp/ccKKwcYH.s 			page 19


 902              		@ frame_needed = 0, uses_anonymous_args = 0
 903 0000 08B5     		push	{r3, lr}
 904              	.LCFI26:
 905              		.cfi_def_cfa_offset 8
 906              		.cfi_offset 3, -8
 907              		.cfi_offset 14, -4
 179:libs/ili9341/ili9341.c ****   HAL_GPIO_WritePin(GPIOC, GPIO_PIN_7, GPIO_PIN_SET);  
 908              		.loc 1 179 0
 909 0002 0122     		movs	r2, #1
 910 0004 8021     		movs	r1, #128
 911 0006 0248     		ldr	r0, .L107
 912 0008 FFF7FEFF 		bl	HAL_GPIO_WritePin
 913              	.LVL30:
 914 000c 08BD     		pop	{r3, pc}
 915              	.L108:
 916 000e 00BF     		.align	2
 917              	.L107:
 918 0010 00080240 		.word	1073874944
 919              		.cfi_endproc
 920              	.LFE157:
 922              		.section	.text.LCD_D1_0,"ax",%progbits
 923              		.align	1
 924              		.global	LCD_D1_0
 925              		.syntax unified
 926              		.thumb
 927              		.thumb_func
 928              		.fpu fpv4-sp-d16
 930              	LCD_D1_0:
 931              	.LFB158:
 180:libs/ili9341/ili9341.c **** }
 181:libs/ili9341/ili9341.c **** void LCD_D1_0()
 182:libs/ili9341/ili9341.c **** {
 932              		.loc 1 182 0
 933              		.cfi_startproc
 934              		@ args = 0, pretend = 0, frame = 0
 935              		@ frame_needed = 0, uses_anonymous_args = 0
 936 0000 08B5     		push	{r3, lr}
 937              	.LCFI27:
 938              		.cfi_def_cfa_offset 8
 939              		.cfi_offset 3, -8
 940              		.cfi_offset 14, -4
 183:libs/ili9341/ili9341.c ****   HAL_GPIO_WritePin(GPIOC, GPIO_PIN_7, GPIO_PIN_RESET);  
 941              		.loc 1 183 0
 942 0002 0022     		movs	r2, #0
 943 0004 8021     		movs	r1, #128
 944 0006 0248     		ldr	r0, .L111
 945 0008 FFF7FEFF 		bl	HAL_GPIO_WritePin
 946              	.LVL31:
 947 000c 08BD     		pop	{r3, pc}
 948              	.L112:
 949 000e 00BF     		.align	2
 950              	.L111:
 951 0010 00080240 		.word	1073874944
 952              		.cfi_endproc
 953              	.LFE158:
 955              		.section	.text.gpio_configure_8080_datapins_input_mode,"ax",%progbits
 956              		.align	1
ARM GAS  /tmp/ccKKwcYH.s 			page 20


 957              		.global	gpio_configure_8080_datapins_input_mode
 958              		.syntax unified
 959              		.thumb
 960              		.thumb_func
 961              		.fpu fpv4-sp-d16
 963              	gpio_configure_8080_datapins_input_mode:
 964              	.LFB159:
 184:libs/ili9341/ili9341.c **** }
 185:libs/ili9341/ili9341.c **** 
 186:libs/ili9341/ili9341.c **** 
 187:libs/ili9341/ili9341.c **** void gpio_configure_8080_datapins_input_mode()
 188:libs/ili9341/ili9341.c **** {
 965              		.loc 1 188 0
 966              		.cfi_startproc
 967              		@ args = 0, pretend = 0, frame = 24
 968              		@ frame_needed = 0, uses_anonymous_args = 0
 969 0000 30B5     		push	{r4, r5, lr}
 970              	.LCFI28:
 971              		.cfi_def_cfa_offset 12
 972              		.cfi_offset 4, -12
 973              		.cfi_offset 5, -8
 974              		.cfi_offset 14, -4
 975 0002 87B0     		sub	sp, sp, #28
 976              	.LCFI29:
 977              		.cfi_def_cfa_offset 40
 189:libs/ili9341/ili9341.c ****   GPIO_InitTypeDef GPIO_InitStruct;
 190:libs/ili9341/ili9341.c ****   GPIO_InitStruct.Pin = GPIO_PIN_8 | GPIO_PIN_9 | GPIO_PIN_10;
 978              		.loc 1 190 0
 979 0004 4FF4E063 		mov	r3, #1792
 980 0008 0193     		str	r3, [sp, #4]
 191:libs/ili9341/ili9341.c ****   GPIO_InitStruct.Mode = GPIO_MODE_INPUT;
 981              		.loc 1 191 0
 982 000a 0025     		movs	r5, #0
 983 000c 0295     		str	r5, [sp, #8]
 192:libs/ili9341/ili9341.c ****   GPIO_InitStruct.Pull = GPIO_PULLDOWN;
 984              		.loc 1 192 0
 985 000e 0224     		movs	r4, #2
 986 0010 0394     		str	r4, [sp, #12]
 193:libs/ili9341/ili9341.c ****   HAL_GPIO_Init(GPIOA, &GPIO_InitStruct);
 987              		.loc 1 193 0
 988 0012 01A9     		add	r1, sp, #4
 989 0014 0A48     		ldr	r0, .L115
 990 0016 FFF7FEFF 		bl	HAL_GPIO_Init
 991              	.LVL32:
 194:libs/ili9341/ili9341.c **** 
 195:libs/ili9341/ili9341.c **** 
 196:libs/ili9341/ili9341.c ****   GPIO_InitStruct.Pin = GPIO_PIN_3 | GPIO_PIN_4 | GPIO_PIN_5 | GPIO_PIN_10;
 992              		.loc 1 196 0
 993 001a 4FF48763 		mov	r3, #1080
 994 001e 0193     		str	r3, [sp, #4]
 197:libs/ili9341/ili9341.c ****   GPIO_InitStruct.Mode = GPIO_MODE_INPUT;
 995              		.loc 1 197 0
 996 0020 0295     		str	r5, [sp, #8]
 198:libs/ili9341/ili9341.c ****   GPIO_InitStruct.Pull = GPIO_PULLDOWN;
 997              		.loc 1 198 0
 998 0022 0394     		str	r4, [sp, #12]
 199:libs/ili9341/ili9341.c ****   HAL_GPIO_Init(GPIOB, &GPIO_InitStruct);
ARM GAS  /tmp/ccKKwcYH.s 			page 21


 999              		.loc 1 199 0
 1000 0024 01A9     		add	r1, sp, #4
 1001 0026 0748     		ldr	r0, .L115+4
 1002 0028 FFF7FEFF 		bl	HAL_GPIO_Init
 1003              	.LVL33:
 200:libs/ili9341/ili9341.c **** 
 201:libs/ili9341/ili9341.c ****   GPIO_InitStruct.Pin = GPIO_PIN_7;
 1004              		.loc 1 201 0
 1005 002c 8023     		movs	r3, #128
 1006 002e 0193     		str	r3, [sp, #4]
 202:libs/ili9341/ili9341.c ****   GPIO_InitStruct.Mode = GPIO_MODE_INPUT;
 1007              		.loc 1 202 0
 1008 0030 0295     		str	r5, [sp, #8]
 203:libs/ili9341/ili9341.c ****   GPIO_InitStruct.Pull = GPIO_PULLDOWN;
 1009              		.loc 1 203 0
 1010 0032 0394     		str	r4, [sp, #12]
 204:libs/ili9341/ili9341.c ****   HAL_GPIO_Init(GPIOC, &GPIO_InitStruct);
 1011              		.loc 1 204 0
 1012 0034 01A9     		add	r1, sp, #4
 1013 0036 0448     		ldr	r0, .L115+8
 1014 0038 FFF7FEFF 		bl	HAL_GPIO_Init
 1015              	.LVL34:
 205:libs/ili9341/ili9341.c **** }
 1016              		.loc 1 205 0
 1017 003c 07B0     		add	sp, sp, #28
 1018              	.LCFI30:
 1019              		.cfi_def_cfa_offset 12
 1020              		@ sp needed
 1021 003e 30BD     		pop	{r4, r5, pc}
 1022              	.L116:
 1023              		.align	2
 1024              	.L115:
 1025 0040 00000240 		.word	1073872896
 1026 0044 00040240 		.word	1073873920
 1027 0048 00080240 		.word	1073874944
 1028              		.cfi_endproc
 1029              	.LFE159:
 1031              		.section	.text.gpio_configure_8080_datapins_output_mode,"ax",%progbits
 1032              		.align	1
 1033              		.global	gpio_configure_8080_datapins_output_mode
 1034              		.syntax unified
 1035              		.thumb
 1036              		.thumb_func
 1037              		.fpu fpv4-sp-d16
 1039              	gpio_configure_8080_datapins_output_mode:
 1040              	.LFB160:
 206:libs/ili9341/ili9341.c **** 
 207:libs/ili9341/ili9341.c **** 
 208:libs/ili9341/ili9341.c **** void gpio_configure_8080_datapins_output_mode()
 209:libs/ili9341/ili9341.c **** {
 1041              		.loc 1 209 0
 1042              		.cfi_startproc
 1043              		@ args = 0, pretend = 0, frame = 24
 1044              		@ frame_needed = 0, uses_anonymous_args = 0
 1045 0000 30B5     		push	{r4, r5, lr}
 1046              	.LCFI31:
 1047              		.cfi_def_cfa_offset 12
ARM GAS  /tmp/ccKKwcYH.s 			page 22


 1048              		.cfi_offset 4, -12
 1049              		.cfi_offset 5, -8
 1050              		.cfi_offset 14, -4
 1051 0002 87B0     		sub	sp, sp, #28
 1052              	.LCFI32:
 1053              		.cfi_def_cfa_offset 40
 210:libs/ili9341/ili9341.c ****   GPIO_InitTypeDef GPIO_InitStruct;
 211:libs/ili9341/ili9341.c ****   GPIO_InitStruct.Pin = GPIO_PIN_8 | GPIO_PIN_9 | GPIO_PIN_10;
 1054              		.loc 1 211 0
 1055 0004 4FF4E063 		mov	r3, #1792
 1056 0008 0193     		str	r3, [sp, #4]
 212:libs/ili9341/ili9341.c ****   GPIO_InitStruct.Mode = GPIO_MODE_OUTPUT_PP;
 1057              		.loc 1 212 0
 1058 000a 0125     		movs	r5, #1
 1059 000c 0295     		str	r5, [sp, #8]
 213:libs/ili9341/ili9341.c ****   GPIO_InitStruct.Pull = GPIO_NOPULL;
 1060              		.loc 1 213 0
 1061 000e 0024     		movs	r4, #0
 1062 0010 0394     		str	r4, [sp, #12]
 214:libs/ili9341/ili9341.c ****   HAL_GPIO_Init(GPIOA, &GPIO_InitStruct);
 1063              		.loc 1 214 0
 1064 0012 01A9     		add	r1, sp, #4
 1065 0014 0A48     		ldr	r0, .L119
 1066 0016 FFF7FEFF 		bl	HAL_GPIO_Init
 1067              	.LVL35:
 215:libs/ili9341/ili9341.c **** 
 216:libs/ili9341/ili9341.c **** 
 217:libs/ili9341/ili9341.c ****   GPIO_InitStruct.Pin = GPIO_PIN_3 | GPIO_PIN_4 | GPIO_PIN_5 | GPIO_PIN_10;
 1068              		.loc 1 217 0
 1069 001a 4FF48763 		mov	r3, #1080
 1070 001e 0193     		str	r3, [sp, #4]
 218:libs/ili9341/ili9341.c ****   GPIO_InitStruct.Mode = GPIO_MODE_OUTPUT_PP;
 1071              		.loc 1 218 0
 1072 0020 0295     		str	r5, [sp, #8]
 219:libs/ili9341/ili9341.c ****   GPIO_InitStruct.Pull = GPIO_NOPULL;
 1073              		.loc 1 219 0
 1074 0022 0394     		str	r4, [sp, #12]
 220:libs/ili9341/ili9341.c ****   HAL_GPIO_Init(GPIOB, &GPIO_InitStruct);
 1075              		.loc 1 220 0
 1076 0024 01A9     		add	r1, sp, #4
 1077 0026 0748     		ldr	r0, .L119+4
 1078 0028 FFF7FEFF 		bl	HAL_GPIO_Init
 1079              	.LVL36:
 221:libs/ili9341/ili9341.c **** 
 222:libs/ili9341/ili9341.c ****   GPIO_InitStruct.Pin = GPIO_PIN_7;
 1080              		.loc 1 222 0
 1081 002c 8023     		movs	r3, #128
 1082 002e 0193     		str	r3, [sp, #4]
 223:libs/ili9341/ili9341.c ****   GPIO_InitStruct.Mode = GPIO_MODE_OUTPUT_PP;
 1083              		.loc 1 223 0
 1084 0030 0295     		str	r5, [sp, #8]
 224:libs/ili9341/ili9341.c ****   GPIO_InitStruct.Pull = GPIO_NOPULL;
 1085              		.loc 1 224 0
 1086 0032 0394     		str	r4, [sp, #12]
 225:libs/ili9341/ili9341.c ****   HAL_GPIO_Init(GPIOC, &GPIO_InitStruct);
 1087              		.loc 1 225 0
 1088 0034 01A9     		add	r1, sp, #4
ARM GAS  /tmp/ccKKwcYH.s 			page 23


 1089 0036 0448     		ldr	r0, .L119+8
 1090 0038 FFF7FEFF 		bl	HAL_GPIO_Init
 1091              	.LVL37:
 226:libs/ili9341/ili9341.c **** }
 1092              		.loc 1 226 0
 1093 003c 07B0     		add	sp, sp, #28
 1094              	.LCFI33:
 1095              		.cfi_def_cfa_offset 12
 1096              		@ sp needed
 1097 003e 30BD     		pop	{r4, r5, pc}
 1098              	.L120:
 1099              		.align	2
 1100              	.L119:
 1101 0040 00000240 		.word	1073872896
 1102 0044 00040240 		.word	1073873920
 1103 0048 00080240 		.word	1073874944
 1104              		.cfi_endproc
 1105              	.LFE160:
 1107              		.section	.text.gpio_8080_read_parallel_datapins,"ax",%progbits
 1108              		.align	1
 1109              		.global	gpio_8080_read_parallel_datapins
 1110              		.syntax unified
 1111              		.thumb
 1112              		.thumb_func
 1113              		.fpu fpv4-sp-d16
 1115              	gpio_8080_read_parallel_datapins:
 1116              	.LFB161:
 227:libs/ili9341/ili9341.c **** 
 228:libs/ili9341/ili9341.c **** uint8_t gpio_8080_read_parallel_datapins() 
 229:libs/ili9341/ili9341.c **** {
 1117              		.loc 1 229 0
 1118              		.cfi_startproc
 1119              		@ args = 0, pretend = 0, frame = 0
 1120              		@ frame_needed = 0, uses_anonymous_args = 0
 1121 0000 70B5     		push	{r4, r5, r6, lr}
 1122              	.LCFI34:
 1123              		.cfi_def_cfa_offset 16
 1124              		.cfi_offset 4, -16
 1125              		.cfi_offset 5, -12
 1126              		.cfi_offset 6, -8
 1127              		.cfi_offset 14, -4
 230:libs/ili9341/ili9341.c ****   uint8_t read_data;
 231:libs/ili9341/ili9341.c ****   read_data = \
 232:libs/ili9341/ili9341.c ****                 HAL_GPIO_ReadPin(GPIOA, GPIO_PIN_8)  << 7   \
 1128              		.loc 1 232 0
 1129 0002 1E4D     		ldr	r5, .L123
 1130 0004 4FF48071 		mov	r1, #256
 1131 0008 2846     		mov	r0, r5
 1132 000a FFF7FEFF 		bl	HAL_GPIO_ReadPin
 1133              	.LVL38:
 1134 000e C401     		lsls	r4, r0, #7
 233:libs/ili9341/ili9341.c ****               | HAL_GPIO_ReadPin(GPIOB, GPIO_PIN_10) << 6   \
 1135              		.loc 1 233 0
 1136 0010 1B4E     		ldr	r6, .L123+4
 1137 0012 4FF48061 		mov	r1, #1024
 1138 0016 3046     		mov	r0, r6
 1139 0018 FFF7FEFF 		bl	HAL_GPIO_ReadPin
ARM GAS  /tmp/ccKKwcYH.s 			page 24


 1140              	.LVL39:
 1141 001c 44EA8014 		orr	r4, r4, r0, lsl #6
 1142 0020 64B2     		sxtb	r4, r4
 234:libs/ili9341/ili9341.c ****               | HAL_GPIO_ReadPin(GPIOB, GPIO_PIN_4)  << 5   \
 1143              		.loc 1 234 0
 1144 0022 1021     		movs	r1, #16
 1145 0024 3046     		mov	r0, r6
 1146 0026 FFF7FEFF 		bl	HAL_GPIO_ReadPin
 1147              	.LVL40:
 1148 002a 44EA4014 		orr	r4, r4, r0, lsl #5
 1149 002e 64B2     		sxtb	r4, r4
 235:libs/ili9341/ili9341.c ****               | HAL_GPIO_ReadPin(GPIOB, GPIO_PIN_5)  << 4   \
 1150              		.loc 1 235 0
 1151 0030 2021     		movs	r1, #32
 1152 0032 3046     		mov	r0, r6
 1153 0034 FFF7FEFF 		bl	HAL_GPIO_ReadPin
 1154              	.LVL41:
 1155 0038 44EA0014 		orr	r4, r4, r0, lsl #4
 1156 003c 64B2     		sxtb	r4, r4
 236:libs/ili9341/ili9341.c ****               | HAL_GPIO_ReadPin(GPIOB, GPIO_PIN_3)  << 3   \
 1157              		.loc 1 236 0
 1158 003e 0821     		movs	r1, #8
 1159 0040 3046     		mov	r0, r6
 1160 0042 FFF7FEFF 		bl	HAL_GPIO_ReadPin
 1161              	.LVL42:
 1162 0046 44EAC004 		orr	r4, r4, r0, lsl #3
 1163 004a 64B2     		sxtb	r4, r4
 237:libs/ili9341/ili9341.c ****               | HAL_GPIO_ReadPin(GPIOA, GPIO_PIN_10) << 2   \
 1164              		.loc 1 237 0
 1165 004c 4FF48061 		mov	r1, #1024
 1166 0050 2846     		mov	r0, r5
 1167 0052 FFF7FEFF 		bl	HAL_GPIO_ReadPin
 1168              	.LVL43:
 1169 0056 44EA8004 		orr	r4, r4, r0, lsl #2
 1170 005a 64B2     		sxtb	r4, r4
 238:libs/ili9341/ili9341.c ****               | HAL_GPIO_ReadPin(GPIOC, GPIO_PIN_7)  << 1   \
 1171              		.loc 1 238 0
 1172 005c 8021     		movs	r1, #128
 1173 005e 0948     		ldr	r0, .L123+8
 1174 0060 FFF7FEFF 		bl	HAL_GPIO_ReadPin
 1175              	.LVL44:
 1176 0064 44EA4004 		orr	r4, r4, r0, lsl #1
 1177 0068 64B2     		sxtb	r4, r4
 239:libs/ili9341/ili9341.c ****               | HAL_GPIO_ReadPin(GPIOA, GPIO_PIN_9);
 1178              		.loc 1 239 0
 1179 006a 4FF40071 		mov	r1, #512
 1180 006e 2846     		mov	r0, r5
 1181 0070 FFF7FEFF 		bl	HAL_GPIO_ReadPin
 1182              	.LVL45:
 1183 0074 40B2     		sxtb	r0, r0
 1184 0076 2043     		orrs	r0, r0, r4
 1185              	.LVL46:
 240:libs/ili9341/ili9341.c ****   return read_data;
 241:libs/ili9341/ili9341.c **** }
 1186              		.loc 1 241 0
 1187 0078 C0B2     		uxtb	r0, r0
 1188 007a 70BD     		pop	{r4, r5, r6, pc}
ARM GAS  /tmp/ccKKwcYH.s 			page 25


 1189              	.L124:
 1190              		.align	2
 1191              	.L123:
 1192 007c 00000240 		.word	1073872896
 1193 0080 00040240 		.word	1073873920
 1194 0084 00080240 		.word	1073874944
 1195              		.cfi_endproc
 1196              	.LFE161:
 1198              		.section	.text.gpio_8080_write_parallel_datapins,"ax",%progbits
 1199              		.align	1
 1200              		.global	gpio_8080_write_parallel_datapins
 1201              		.syntax unified
 1202              		.thumb
 1203              		.thumb_func
 1204              		.fpu fpv4-sp-d16
 1206              	gpio_8080_write_parallel_datapins:
 1207              	.LFB162:
 242:libs/ili9341/ili9341.c **** 
 243:libs/ili9341/ili9341.c **** void gpio_8080_write_parallel_datapins(uint8_t write_data) 
 244:libs/ili9341/ili9341.c **** {
 1208              		.loc 1 244 0
 1209              		.cfi_startproc
 1210              		@ args = 0, pretend = 0, frame = 0
 1211              		@ frame_needed = 0, uses_anonymous_args = 0
 1212              	.LVL47:
 1213 0000 70B5     		push	{r4, r5, r6, lr}
 1214              	.LCFI35:
 1215              		.cfi_def_cfa_offset 16
 1216              		.cfi_offset 4, -16
 1217              		.cfi_offset 5, -12
 1218              		.cfi_offset 6, -8
 1219              		.cfi_offset 14, -4
 1220 0002 0446     		mov	r4, r0
 245:libs/ili9341/ili9341.c ****   HAL_GPIO_WritePin(GPIOA, GPIO_PIN_8,  (write_data & 0x80) ? GPIO_PIN_SET : GPIO_PIN_RESET);
 1221              		.loc 1 245 0
 1222 0004 1A4E     		ldr	r6, .L127
 1223 0006 C209     		lsrs	r2, r0, #7
 1224 0008 4FF48071 		mov	r1, #256
 1225 000c 3046     		mov	r0, r6
 1226              	.LVL48:
 1227 000e FFF7FEFF 		bl	HAL_GPIO_WritePin
 1228              	.LVL49:
 246:libs/ili9341/ili9341.c ****   HAL_GPIO_WritePin(GPIOB, GPIO_PIN_10, (write_data & 0x40) ? GPIO_PIN_SET : GPIO_PIN_RESET); 
 1229              		.loc 1 246 0
 1230 0012 184D     		ldr	r5, .L127+4
 1231 0014 C4F38012 		ubfx	r2, r4, #6, #1
 1232 0018 4FF48061 		mov	r1, #1024
 1233 001c 2846     		mov	r0, r5
 1234 001e FFF7FEFF 		bl	HAL_GPIO_WritePin
 1235              	.LVL50:
 247:libs/ili9341/ili9341.c ****   HAL_GPIO_WritePin(GPIOB, GPIO_PIN_4,  (write_data & 0x20) ? GPIO_PIN_SET : GPIO_PIN_RESET);  
 1236              		.loc 1 247 0
 1237 0022 C4F34012 		ubfx	r2, r4, #5, #1
 1238 0026 1021     		movs	r1, #16
 1239 0028 2846     		mov	r0, r5
 1240 002a FFF7FEFF 		bl	HAL_GPIO_WritePin
 1241              	.LVL51:
ARM GAS  /tmp/ccKKwcYH.s 			page 26


 248:libs/ili9341/ili9341.c ****   HAL_GPIO_WritePin(GPIOB, GPIO_PIN_5,  (write_data & 0x10) ? GPIO_PIN_SET : GPIO_PIN_RESET); 
 1242              		.loc 1 248 0
 1243 002e C4F30012 		ubfx	r2, r4, #4, #1
 1244 0032 2021     		movs	r1, #32
 1245 0034 2846     		mov	r0, r5
 1246 0036 FFF7FEFF 		bl	HAL_GPIO_WritePin
 1247              	.LVL52:
 249:libs/ili9341/ili9341.c ****   HAL_GPIO_WritePin(GPIOB, GPIO_PIN_3,  (write_data & 0x08) ? GPIO_PIN_SET : GPIO_PIN_RESET); 
 1248              		.loc 1 249 0
 1249 003a C4F3C002 		ubfx	r2, r4, #3, #1
 1250 003e 0821     		movs	r1, #8
 1251 0040 2846     		mov	r0, r5
 1252 0042 FFF7FEFF 		bl	HAL_GPIO_WritePin
 1253              	.LVL53:
 250:libs/ili9341/ili9341.c ****   HAL_GPIO_WritePin(GPIOA, GPIO_PIN_10, (write_data & 0x04) ? GPIO_PIN_SET : GPIO_PIN_RESET);
 1254              		.loc 1 250 0
 1255 0046 C4F38002 		ubfx	r2, r4, #2, #1
 1256 004a 4FF48061 		mov	r1, #1024
 1257 004e 3046     		mov	r0, r6
 1258 0050 FFF7FEFF 		bl	HAL_GPIO_WritePin
 1259              	.LVL54:
 251:libs/ili9341/ili9341.c ****   HAL_GPIO_WritePin(GPIOC, GPIO_PIN_7,  (write_data & 0x02) ? GPIO_PIN_SET : GPIO_PIN_RESET);
 1260              		.loc 1 251 0
 1261 0054 C4F34002 		ubfx	r2, r4, #1, #1
 1262 0058 8021     		movs	r1, #128
 1263 005a 0748     		ldr	r0, .L127+8
 1264 005c FFF7FEFF 		bl	HAL_GPIO_WritePin
 1265              	.LVL55:
 252:libs/ili9341/ili9341.c ****   HAL_GPIO_WritePin(GPIOA, GPIO_PIN_9,  (write_data & 0x01) ? GPIO_PIN_SET : GPIO_PIN_RESET);
 1266              		.loc 1 252 0
 1267 0060 04F00102 		and	r2, r4, #1
 1268 0064 4FF40071 		mov	r1, #512
 1269 0068 3046     		mov	r0, r6
 1270 006a FFF7FEFF 		bl	HAL_GPIO_WritePin
 1271              	.LVL56:
 1272 006e 70BD     		pop	{r4, r5, r6, pc}
 1273              	.L128:
 1274              		.align	2
 1275              	.L127:
 1276 0070 00000240 		.word	1073872896
 1277 0074 00040240 		.word	1073873920
 1278 0078 00080240 		.word	1073874944
 1279              		.cfi_endproc
 1280              	.LFE162:
 1282              		.section	.text.gpio_8080_write_command,"ax",%progbits
 1283              		.align	1
 1284              		.global	gpio_8080_write_command
 1285              		.syntax unified
 1286              		.thumb
 1287              		.thumb_func
 1288              		.fpu fpv4-sp-d16
 1290              	gpio_8080_write_command:
 1291              	.LFB163:
 253:libs/ili9341/ili9341.c **** }
 254:libs/ili9341/ili9341.c **** 
 255:libs/ili9341/ili9341.c **** 
 256:libs/ili9341/ili9341.c **** 
ARM GAS  /tmp/ccKKwcYH.s 			page 27


 257:libs/ili9341/ili9341.c **** 
 258:libs/ili9341/ili9341.c **** void gpio_8080_write_command(uint8_t cmd)
 259:libs/ili9341/ili9341.c **** {
 1292              		.loc 1 259 0
 1293              		.cfi_startproc
 1294              		@ args = 0, pretend = 0, frame = 0
 1295              		@ frame_needed = 0, uses_anonymous_args = 0
 1296              	.LVL57:
 1297 0000 10B5     		push	{r4, lr}
 1298              	.LCFI36:
 1299              		.cfi_def_cfa_offset 8
 1300              		.cfi_offset 4, -8
 1301              		.cfi_offset 14, -4
 1302 0002 0446     		mov	r4, r0
 260:libs/ili9341/ili9341.c ****   /* Chip Select */
 261:libs/ili9341/ili9341.c ****   LCD_CS_0();
 1303              		.loc 1 261 0
 1304 0004 FFF7FEFF 		bl	LCD_CS_0
 1305              	.LVL58:
 262:libs/ili9341/ili9341.c ****   LCD_RS_0();  
 1306              		.loc 1 262 0
 1307 0008 FFF7FEFF 		bl	LCD_RS_0
 1308              	.LVL59:
 263:libs/ili9341/ili9341.c ****   LCD_RD_1();
 1309              		.loc 1 263 0
 1310 000c FFF7FEFF 		bl	LCD_RD_1
 1311              	.LVL60:
 264:libs/ili9341/ili9341.c **** 
 265:libs/ili9341/ili9341.c ****   /* Write data to data bus D7-D0. */  
 266:libs/ili9341/ili9341.c ****   gpio_configure_8080_datapins_output_mode();
 1312              		.loc 1 266 0
 1313 0010 FFF7FEFF 		bl	gpio_configure_8080_datapins_output_mode
 1314              	.LVL61:
 267:libs/ili9341/ili9341.c ****   gpio_8080_write_parallel_datapins(cmd);
 1315              		.loc 1 267 0
 1316 0014 2046     		mov	r0, r4
 1317 0016 FFF7FEFF 		bl	gpio_8080_write_parallel_datapins
 1318              	.LVL62:
 268:libs/ili9341/ili9341.c ****   LCD_WR_RISING_EDGE();
 1319              		.loc 1 268 0
 1320 001a FFF7FEFF 		bl	LCD_WR_RISING_EDGE
 1321              	.LVL63:
 269:libs/ili9341/ili9341.c **** 
 270:libs/ili9341/ili9341.c ****   /* De-select Chip. */
 271:libs/ili9341/ili9341.c ****   LCD_CS_1();
 1322              		.loc 1 271 0
 1323 001e FFF7FEFF 		bl	LCD_CS_1
 1324              	.LVL64:
 1325 0022 10BD     		pop	{r4, pc}
 1326              		.cfi_endproc
 1327              	.LFE163:
 1329              		.section	.text.gpio_8080_write_data,"ax",%progbits
 1330              		.align	1
 1331              		.global	gpio_8080_write_data
 1332              		.syntax unified
 1333              		.thumb
 1334              		.thumb_func
ARM GAS  /tmp/ccKKwcYH.s 			page 28


 1335              		.fpu fpv4-sp-d16
 1337              	gpio_8080_write_data:
 1338              	.LFB164:
 272:libs/ili9341/ili9341.c **** }
 273:libs/ili9341/ili9341.c **** 
 274:libs/ili9341/ili9341.c **** void gpio_8080_write_data(uint8_t data) 
 275:libs/ili9341/ili9341.c **** {
 1339              		.loc 1 275 0
 1340              		.cfi_startproc
 1341              		@ args = 0, pretend = 0, frame = 0
 1342              		@ frame_needed = 0, uses_anonymous_args = 0
 1343              	.LVL65:
 1344 0000 10B5     		push	{r4, lr}
 1345              	.LCFI37:
 1346              		.cfi_def_cfa_offset 8
 1347              		.cfi_offset 4, -8
 1348              		.cfi_offset 14, -4
 1349 0002 0446     		mov	r4, r0
 276:libs/ili9341/ili9341.c ****   LCD_CS_0();
 1350              		.loc 1 276 0
 1351 0004 FFF7FEFF 		bl	LCD_CS_0
 1352              	.LVL66:
 277:libs/ili9341/ili9341.c ****   LCD_RS_1();  
 1353              		.loc 1 277 0
 1354 0008 FFF7FEFF 		bl	LCD_RS_1
 1355              	.LVL67:
 278:libs/ili9341/ili9341.c ****   LCD_RD_1();
 1356              		.loc 1 278 0
 1357 000c FFF7FEFF 		bl	LCD_RD_1
 1358              	.LVL68:
 279:libs/ili9341/ili9341.c **** 
 280:libs/ili9341/ili9341.c ****   gpio_configure_8080_datapins_output_mode();
 1359              		.loc 1 280 0
 1360 0010 FFF7FEFF 		bl	gpio_configure_8080_datapins_output_mode
 1361              	.LVL69:
 281:libs/ili9341/ili9341.c ****   gpio_8080_write_parallel_datapins(data);
 1362              		.loc 1 281 0
 1363 0014 2046     		mov	r0, r4
 1364 0016 FFF7FEFF 		bl	gpio_8080_write_parallel_datapins
 1365              	.LVL70:
 282:libs/ili9341/ili9341.c ****   LCD_WR_RISING_EDGE();
 1366              		.loc 1 282 0
 1367 001a FFF7FEFF 		bl	LCD_WR_RISING_EDGE
 1368              	.LVL71:
 283:libs/ili9341/ili9341.c ****   LCD_CS_1();
 1369              		.loc 1 283 0
 1370 001e FFF7FEFF 		bl	LCD_CS_1
 1371              	.LVL72:
 1372 0022 10BD     		pop	{r4, pc}
 1373              		.cfi_endproc
 1374              	.LFE164:
 1376              		.section	.text.gpio_8080_read_data,"ax",%progbits
 1377              		.align	1
 1378              		.global	gpio_8080_read_data
 1379              		.syntax unified
 1380              		.thumb
 1381              		.thumb_func
ARM GAS  /tmp/ccKKwcYH.s 			page 29


 1382              		.fpu fpv4-sp-d16
 1384              	gpio_8080_read_data:
 1385              	.LFB165:
 284:libs/ili9341/ili9341.c **** }
 285:libs/ili9341/ili9341.c **** 
 286:libs/ili9341/ili9341.c **** void gpio_8080_read_data(uint8_t* p_read_data, uint8_t length) 
 287:libs/ili9341/ili9341.c **** {
 1386              		.loc 1 287 0
 1387              		.cfi_startproc
 1388              		@ args = 0, pretend = 0, frame = 0
 1389              		@ frame_needed = 0, uses_anonymous_args = 0
 1390              	.LVL73:
 1391 0000 70B5     		push	{r4, r5, r6, lr}
 1392              	.LCFI38:
 1393              		.cfi_def_cfa_offset 16
 1394              		.cfi_offset 4, -16
 1395              		.cfi_offset 5, -12
 1396              		.cfi_offset 6, -8
 1397              		.cfi_offset 14, -4
 1398 0002 0646     		mov	r6, r0
 1399 0004 0D46     		mov	r5, r1
 288:libs/ili9341/ili9341.c ****   LCD_CS_0();
 1400              		.loc 1 288 0
 1401 0006 FFF7FEFF 		bl	LCD_CS_0
 1402              	.LVL74:
 289:libs/ili9341/ili9341.c ****   LCD_RS_1();  
 1403              		.loc 1 289 0
 1404 000a FFF7FEFF 		bl	LCD_RS_1
 1405              	.LVL75:
 290:libs/ili9341/ili9341.c ****   LCD_WR_1();
 1406              		.loc 1 290 0
 1407 000e FFF7FEFF 		bl	LCD_WR_1
 1408              	.LVL76:
 291:libs/ili9341/ili9341.c **** 
 292:libs/ili9341/ili9341.c ****   gpio_configure_8080_datapins_input_mode();
 1409              		.loc 1 292 0
 1410 0012 FFF7FEFF 		bl	gpio_configure_8080_datapins_input_mode
 1411              	.LVL77:
 1412              	.LBB2:
 293:libs/ili9341/ili9341.c ****   for (int i = 0; i < length; ++i)
 1413              		.loc 1 293 0
 1414 0016 0024     		movs	r4, #0
 1415 0018 07E0     		b	.L134
 1416              	.LVL78:
 1417              	.L135:
 294:libs/ili9341/ili9341.c ****   {
 295:libs/ili9341/ili9341.c ****     LCD_RD_0();
 1418              		.loc 1 295 0 discriminator 3
 1419 001a FFF7FEFF 		bl	LCD_RD_0
 1420              	.LVL79:
 296:libs/ili9341/ili9341.c ****     p_read_data[i] = gpio_8080_read_parallel_datapins();
 1421              		.loc 1 296 0 discriminator 3
 1422 001e FFF7FEFF 		bl	gpio_8080_read_parallel_datapins
 1423              	.LVL80:
 1424 0022 3055     		strb	r0, [r6, r4]
 297:libs/ili9341/ili9341.c ****     LCD_RD_1();
 1425              		.loc 1 297 0 discriminator 3
ARM GAS  /tmp/ccKKwcYH.s 			page 30


 1426 0024 FFF7FEFF 		bl	LCD_RD_1
 1427              	.LVL81:
 293:libs/ili9341/ili9341.c ****   {
 1428              		.loc 1 293 0 discriminator 3
 1429 0028 0134     		adds	r4, r4, #1
 1430              	.LVL82:
 1431              	.L134:
 293:libs/ili9341/ili9341.c ****   {
 1432              		.loc 1 293 0 is_stmt 0 discriminator 1
 1433 002a AC42     		cmp	r4, r5
 1434 002c F5DB     		blt	.L135
 1435              	.LBE2:
 298:libs/ili9341/ili9341.c ****   }
 299:libs/ili9341/ili9341.c **** 
 300:libs/ili9341/ili9341.c ****   LCD_CS_1();
 1436              		.loc 1 300 0 is_stmt 1
 1437 002e FFF7FEFF 		bl	LCD_CS_1
 1438              	.LVL83:
 1439 0032 70BD     		pop	{r4, r5, r6, pc}
 1440              		.cfi_endproc
 1441              	.LFE165:
 1443              		.section	.text.ili9341_set_power_control_a,"ax",%progbits
 1444              		.align	1
 1445              		.global	ili9341_set_power_control_a
 1446              		.syntax unified
 1447              		.thumb
 1448              		.thumb_func
 1449              		.fpu fpv4-sp-d16
 1451              	ili9341_set_power_control_a:
 1452              	.LFB166:
 301:libs/ili9341/ili9341.c **** }
 302:libs/ili9341/ili9341.c **** 
 303:libs/ili9341/ili9341.c **** 
 304:libs/ili9341/ili9341.c **** /** 
 305:libs/ili9341/ili9341.c ****   * @brief Set Power Control A. 
 306:libs/ili9341/ili9341.c ****   */
 307:libs/ili9341/ili9341.c **** void ili9341_set_power_control_a()
 308:libs/ili9341/ili9341.c **** {
 1453              		.loc 1 308 0
 1454              		.cfi_startproc
 1455              		@ args = 0, pretend = 0, frame = 0
 1456              		@ frame_needed = 0, uses_anonymous_args = 0
 1457 0000 08B5     		push	{r3, lr}
 1458              	.LCFI39:
 1459              		.cfi_def_cfa_offset 8
 1460              		.cfi_offset 3, -8
 1461              		.cfi_offset 14, -4
 309:libs/ili9341/ili9341.c ****   gpio_8080_write_command(0xCB);    
 1462              		.loc 1 309 0
 1463 0002 CB20     		movs	r0, #203
 1464 0004 FFF7FEFF 		bl	gpio_8080_write_command
 1465              	.LVL84:
 310:libs/ili9341/ili9341.c ****   gpio_8080_write_data(0x39); 
 1466              		.loc 1 310 0
 1467 0008 3920     		movs	r0, #57
 1468 000a FFF7FEFF 		bl	gpio_8080_write_data
 1469              	.LVL85:
ARM GAS  /tmp/ccKKwcYH.s 			page 31


 311:libs/ili9341/ili9341.c ****   gpio_8080_write_data(0x2C); 
 1470              		.loc 1 311 0
 1471 000e 2C20     		movs	r0, #44
 1472 0010 FFF7FEFF 		bl	gpio_8080_write_data
 1473              	.LVL86:
 312:libs/ili9341/ili9341.c ****   gpio_8080_write_data(0x00); 
 1474              		.loc 1 312 0
 1475 0014 0020     		movs	r0, #0
 1476 0016 FFF7FEFF 		bl	gpio_8080_write_data
 1477              	.LVL87:
 313:libs/ili9341/ili9341.c ****   gpio_8080_write_data(0x34);   // Vcore=1.6V
 1478              		.loc 1 313 0
 1479 001a 3420     		movs	r0, #52
 1480 001c FFF7FEFF 		bl	gpio_8080_write_data
 1481              	.LVL88:
 314:libs/ili9341/ili9341.c ****   gpio_8080_write_data(0x02);   //DDVDH=5.6V
 1482              		.loc 1 314 0
 1483 0020 0220     		movs	r0, #2
 1484 0022 FFF7FEFF 		bl	gpio_8080_write_data
 1485              	.LVL89:
 1486 0026 08BD     		pop	{r3, pc}
 1487              		.cfi_endproc
 1488              	.LFE166:
 1490              		.section	.text.ili9341_set_power_control_b,"ax",%progbits
 1491              		.align	1
 1492              		.global	ili9341_set_power_control_b
 1493              		.syntax unified
 1494              		.thumb
 1495              		.thumb_func
 1496              		.fpu fpv4-sp-d16
 1498              	ili9341_set_power_control_b:
 1499              	.LFB167:
 315:libs/ili9341/ili9341.c **** }
 316:libs/ili9341/ili9341.c **** 
 317:libs/ili9341/ili9341.c **** void ili9341_set_power_control_b()
 318:libs/ili9341/ili9341.c **** {
 1500              		.loc 1 318 0
 1501              		.cfi_startproc
 1502              		@ args = 0, pretend = 0, frame = 0
 1503              		@ frame_needed = 0, uses_anonymous_args = 0
 1504 0000 08B5     		push	{r3, lr}
 1505              	.LCFI40:
 1506              		.cfi_def_cfa_offset 8
 1507              		.cfi_offset 3, -8
 1508              		.cfi_offset 14, -4
 319:libs/ili9341/ili9341.c ****   gpio_8080_write_command(0xCF);   // Power Control B
 1509              		.loc 1 319 0
 1510 0002 CF20     		movs	r0, #207
 1511 0004 FFF7FEFF 		bl	gpio_8080_write_command
 1512              	.LVL90:
 320:libs/ili9341/ili9341.c ****   gpio_8080_write_data(0x00); 
 1513              		.loc 1 320 0
 1514 0008 0020     		movs	r0, #0
 1515 000a FFF7FEFF 		bl	gpio_8080_write_data
 1516              	.LVL91:
 321:libs/ili9341/ili9341.c ****   gpio_8080_write_data(0XC1); 
 1517              		.loc 1 321 0
ARM GAS  /tmp/ccKKwcYH.s 			page 32


 1518 000e C120     		movs	r0, #193
 1519 0010 FFF7FEFF 		bl	gpio_8080_write_data
 1520              	.LVL92:
 322:libs/ili9341/ili9341.c ****   gpio_8080_write_data(0X30); 
 1521              		.loc 1 322 0
 1522 0014 3020     		movs	r0, #48
 1523 0016 FFF7FEFF 		bl	gpio_8080_write_data
 1524              	.LVL93:
 1525 001a 08BD     		pop	{r3, pc}
 1526              		.cfi_endproc
 1527              	.LFE167:
 1529              		.section	.text.ili9341_set_driver_timing_control_a,"ax",%progbits
 1530              		.align	1
 1531              		.global	ili9341_set_driver_timing_control_a
 1532              		.syntax unified
 1533              		.thumb
 1534              		.thumb_func
 1535              		.fpu fpv4-sp-d16
 1537              	ili9341_set_driver_timing_control_a:
 1538              	.LFB168:
 323:libs/ili9341/ili9341.c **** }
 324:libs/ili9341/ili9341.c **** 
 325:libs/ili9341/ili9341.c **** 
 326:libs/ili9341/ili9341.c **** void ili9341_set_driver_timing_control_a()
 327:libs/ili9341/ili9341.c **** {
 1539              		.loc 1 327 0
 1540              		.cfi_startproc
 1541              		@ args = 0, pretend = 0, frame = 0
 1542              		@ frame_needed = 0, uses_anonymous_args = 0
 1543 0000 08B5     		push	{r3, lr}
 1544              	.LCFI41:
 1545              		.cfi_def_cfa_offset 8
 1546              		.cfi_offset 3, -8
 1547              		.cfi_offset 14, -4
 328:libs/ili9341/ili9341.c ****   gpio_8080_write_command(0xE8);   // Driver timing Congrol A 
 1548              		.loc 1 328 0
 1549 0002 E820     		movs	r0, #232
 1550 0004 FFF7FEFF 		bl	gpio_8080_write_command
 1551              	.LVL94:
 329:libs/ili9341/ili9341.c ****   gpio_8080_write_data(0x85); 
 1552              		.loc 1 329 0
 1553 0008 8520     		movs	r0, #133
 1554 000a FFF7FEFF 		bl	gpio_8080_write_data
 1555              	.LVL95:
 330:libs/ili9341/ili9341.c ****   gpio_8080_write_data(0x00); 
 1556              		.loc 1 330 0
 1557 000e 0020     		movs	r0, #0
 1558 0010 FFF7FEFF 		bl	gpio_8080_write_data
 1559              	.LVL96:
 331:libs/ili9341/ili9341.c ****   gpio_8080_write_data(0x78); 
 1560              		.loc 1 331 0
 1561 0014 7820     		movs	r0, #120
 1562 0016 FFF7FEFF 		bl	gpio_8080_write_data
 1563              	.LVL97:
 1564 001a 08BD     		pop	{r3, pc}
 1565              		.cfi_endproc
 1566              	.LFE168:
ARM GAS  /tmp/ccKKwcYH.s 			page 33


 1568              		.section	.text.ili9341_set_driver_timing_control_b,"ax",%progbits
 1569              		.align	1
 1570              		.global	ili9341_set_driver_timing_control_b
 1571              		.syntax unified
 1572              		.thumb
 1573              		.thumb_func
 1574              		.fpu fpv4-sp-d16
 1576              	ili9341_set_driver_timing_control_b:
 1577              	.LFB169:
 332:libs/ili9341/ili9341.c **** }
 333:libs/ili9341/ili9341.c **** 
 334:libs/ili9341/ili9341.c **** void ili9341_set_driver_timing_control_b()
 335:libs/ili9341/ili9341.c **** {
 1578              		.loc 1 335 0
 1579              		.cfi_startproc
 1580              		@ args = 0, pretend = 0, frame = 0
 1581              		@ frame_needed = 0, uses_anonymous_args = 0
 1582 0000 08B5     		push	{r3, lr}
 1583              	.LCFI42:
 1584              		.cfi_def_cfa_offset 8
 1585              		.cfi_offset 3, -8
 1586              		.cfi_offset 14, -4
 336:libs/ili9341/ili9341.c ****   gpio_8080_write_command(0xEA);  // Driver timing Congrol B
 1587              		.loc 1 336 0
 1588 0002 EA20     		movs	r0, #234
 1589 0004 FFF7FEFF 		bl	gpio_8080_write_command
 1590              	.LVL98:
 337:libs/ili9341/ili9341.c ****   gpio_8080_write_data(0x00); 
 1591              		.loc 1 337 0
 1592 0008 0020     		movs	r0, #0
 1593 000a FFF7FEFF 		bl	gpio_8080_write_data
 1594              	.LVL99:
 338:libs/ili9341/ili9341.c ****   gpio_8080_write_data(0x00); 
 1595              		.loc 1 338 0
 1596 000e 0020     		movs	r0, #0
 1597 0010 FFF7FEFF 		bl	gpio_8080_write_data
 1598              	.LVL100:
 1599 0014 08BD     		pop	{r3, pc}
 1600              		.cfi_endproc
 1601              	.LFE169:
 1603              		.section	.text.ili9341_set_poweron_sequence_control_b,"ax",%progbits
 1604              		.align	1
 1605              		.global	ili9341_set_poweron_sequence_control_b
 1606              		.syntax unified
 1607              		.thumb
 1608              		.thumb_func
 1609              		.fpu fpv4-sp-d16
 1611              	ili9341_set_poweron_sequence_control_b:
 1612              	.LFB170:
 339:libs/ili9341/ili9341.c **** }
 340:libs/ili9341/ili9341.c **** 
 341:libs/ili9341/ili9341.c **** void ili9341_set_poweron_sequence_control_b()
 342:libs/ili9341/ili9341.c **** {
 1613              		.loc 1 342 0
 1614              		.cfi_startproc
 1615              		@ args = 0, pretend = 0, frame = 0
 1616              		@ frame_needed = 0, uses_anonymous_args = 0
ARM GAS  /tmp/ccKKwcYH.s 			page 34


 1617 0000 08B5     		push	{r3, lr}
 1618              	.LCFI43:
 1619              		.cfi_def_cfa_offset 8
 1620              		.cfi_offset 3, -8
 1621              		.cfi_offset 14, -4
 343:libs/ili9341/ili9341.c ****   gpio_8080_write_command(0xED);  // Power on sequence control 
 1622              		.loc 1 343 0
 1623 0002 ED20     		movs	r0, #237
 1624 0004 FFF7FEFF 		bl	gpio_8080_write_command
 1625              	.LVL101:
 344:libs/ili9341/ili9341.c ****   gpio_8080_write_data(0x64); 
 1626              		.loc 1 344 0
 1627 0008 6420     		movs	r0, #100
 1628 000a FFF7FEFF 		bl	gpio_8080_write_data
 1629              	.LVL102:
 345:libs/ili9341/ili9341.c ****   gpio_8080_write_data(0x03); 
 1630              		.loc 1 345 0
 1631 000e 0320     		movs	r0, #3
 1632 0010 FFF7FEFF 		bl	gpio_8080_write_data
 1633              	.LVL103:
 346:libs/ili9341/ili9341.c ****   gpio_8080_write_data(0X12); 
 1634              		.loc 1 346 0
 1635 0014 1220     		movs	r0, #18
 1636 0016 FFF7FEFF 		bl	gpio_8080_write_data
 1637              	.LVL104:
 347:libs/ili9341/ili9341.c ****   gpio_8080_write_data(0X81); 
 1638              		.loc 1 347 0
 1639 001a 8120     		movs	r0, #129
 1640 001c FFF7FEFF 		bl	gpio_8080_write_data
 1641              	.LVL105:
 1642 0020 08BD     		pop	{r3, pc}
 1643              		.cfi_endproc
 1644              	.LFE170:
 1646              		.section	.text.ili9341_set_pump_ratio_control,"ax",%progbits
 1647              		.align	1
 1648              		.global	ili9341_set_pump_ratio_control
 1649              		.syntax unified
 1650              		.thumb
 1651              		.thumb_func
 1652              		.fpu fpv4-sp-d16
 1654              	ili9341_set_pump_ratio_control:
 1655              	.LFB171:
 348:libs/ili9341/ili9341.c **** }
 349:libs/ili9341/ili9341.c **** 
 350:libs/ili9341/ili9341.c **** /**/
 351:libs/ili9341/ili9341.c **** void ili9341_set_pump_ratio_control()
 352:libs/ili9341/ili9341.c **** {
 1656              		.loc 1 352 0
 1657              		.cfi_startproc
 1658              		@ args = 0, pretend = 0, frame = 0
 1659              		@ frame_needed = 0, uses_anonymous_args = 0
 1660 0000 08B5     		push	{r3, lr}
 1661              	.LCFI44:
 1662              		.cfi_def_cfa_offset 8
 1663              		.cfi_offset 3, -8
 1664              		.cfi_offset 14, -4
 353:libs/ili9341/ili9341.c ****   gpio_8080_write_command(0xF7);  //Pump ratio control
ARM GAS  /tmp/ccKKwcYH.s 			page 35


 1665              		.loc 1 353 0
 1666 0002 F720     		movs	r0, #247
 1667 0004 FFF7FEFF 		bl	gpio_8080_write_command
 1668              	.LVL106:
 354:libs/ili9341/ili9341.c ****   gpio_8080_write_data(0x20); //DDVDH=2*VCL
 1669              		.loc 1 354 0
 1670 0008 2020     		movs	r0, #32
 1671 000a FFF7FEFF 		bl	gpio_8080_write_data
 1672              	.LVL107:
 1673 000e 08BD     		pop	{r3, pc}
 1674              		.cfi_endproc
 1675              	.LFE171:
 1677              		.section	.text.ili9341_set_power_control1,"ax",%progbits
 1678              		.align	1
 1679              		.global	ili9341_set_power_control1
 1680              		.syntax unified
 1681              		.thumb
 1682              		.thumb_func
 1683              		.fpu fpv4-sp-d16
 1685              	ili9341_set_power_control1:
 1686              	.LFB172:
 355:libs/ili9341/ili9341.c **** }
 356:libs/ili9341/ili9341.c **** 
 357:libs/ili9341/ili9341.c **** void ili9341_set_power_control1()
 358:libs/ili9341/ili9341.c **** {
 1687              		.loc 1 358 0
 1688              		.cfi_startproc
 1689              		@ args = 0, pretend = 0, frame = 0
 1690              		@ frame_needed = 0, uses_anonymous_args = 0
 1691 0000 08B5     		push	{r3, lr}
 1692              	.LCFI45:
 1693              		.cfi_def_cfa_offset 8
 1694              		.cfi_offset 3, -8
 1695              		.cfi_offset 14, -4
 359:libs/ili9341/ili9341.c ****   gpio_8080_write_command(0xC0);    //Power control 
 1696              		.loc 1 359 0
 1697 0002 C020     		movs	r0, #192
 1698 0004 FFF7FEFF 		bl	gpio_8080_write_command
 1699              	.LVL108:
 360:libs/ili9341/ili9341.c ****   gpio_8080_write_data(0x23);   //VRH[5:0]  GVDD=4.6V
 1700              		.loc 1 360 0
 1701 0008 2320     		movs	r0, #35
 1702 000a FFF7FEFF 		bl	gpio_8080_write_data
 1703              	.LVL109:
 1704 000e 08BD     		pop	{r3, pc}
 1705              		.cfi_endproc
 1706              	.LFE172:
 1708              		.section	.text.ili9341_set_power_control2,"ax",%progbits
 1709              		.align	1
 1710              		.global	ili9341_set_power_control2
 1711              		.syntax unified
 1712              		.thumb
 1713              		.thumb_func
 1714              		.fpu fpv4-sp-d16
 1716              	ili9341_set_power_control2:
 1717              	.LFB173:
 361:libs/ili9341/ili9341.c **** }
ARM GAS  /tmp/ccKKwcYH.s 			page 36


 362:libs/ili9341/ili9341.c **** 
 363:libs/ili9341/ili9341.c **** void ili9341_set_power_control2()
 364:libs/ili9341/ili9341.c **** {
 1718              		.loc 1 364 0
 1719              		.cfi_startproc
 1720              		@ args = 0, pretend = 0, frame = 0
 1721              		@ frame_needed = 0, uses_anonymous_args = 0
 1722 0000 08B5     		push	{r3, lr}
 1723              	.LCFI46:
 1724              		.cfi_def_cfa_offset 8
 1725              		.cfi_offset 3, -8
 1726              		.cfi_offset 14, -4
 365:libs/ili9341/ili9341.c ****   gpio_8080_write_command(0xC1);    //Power control 
 1727              		.loc 1 365 0
 1728 0002 C120     		movs	r0, #193
 1729 0004 FFF7FEFF 		bl	gpio_8080_write_command
 1730              	.LVL110:
 366:libs/ili9341/ili9341.c ****   gpio_8080_write_data(0x10);   //SAP[2:0];BT[3:0] 
 1731              		.loc 1 366 0
 1732 0008 1020     		movs	r0, #16
 1733 000a FFF7FEFF 		bl	gpio_8080_write_data
 1734              	.LVL111:
 1735 000e 08BD     		pop	{r3, pc}
 1736              		.cfi_endproc
 1737              	.LFE173:
 1739              		.section	.text.ili9341_set_vcom_control1,"ax",%progbits
 1740              		.align	1
 1741              		.global	ili9341_set_vcom_control1
 1742              		.syntax unified
 1743              		.thumb
 1744              		.thumb_func
 1745              		.fpu fpv4-sp-d16
 1747              	ili9341_set_vcom_control1:
 1748              	.LFB174:
 367:libs/ili9341/ili9341.c **** }
 368:libs/ili9341/ili9341.c **** 
 369:libs/ili9341/ili9341.c **** 
 370:libs/ili9341/ili9341.c **** void ili9341_set_vcom_control1()
 371:libs/ili9341/ili9341.c **** {
 1749              		.loc 1 371 0
 1750              		.cfi_startproc
 1751              		@ args = 0, pretend = 0, frame = 0
 1752              		@ frame_needed = 0, uses_anonymous_args = 0
 1753 0000 08B5     		push	{r3, lr}
 1754              	.LCFI47:
 1755              		.cfi_def_cfa_offset 8
 1756              		.cfi_offset 3, -8
 1757              		.cfi_offset 14, -4
 372:libs/ili9341/ili9341.c ****   gpio_8080_write_command(0xC5);    //VCM control  1  
 1758              		.loc 1 372 0
 1759 0002 C520     		movs	r0, #197
 1760 0004 FFF7FEFF 		bl	gpio_8080_write_command
 1761              	.LVL112:
 373:libs/ili9341/ili9341.c ****   gpio_8080_write_data(0x3e);   //Contrast  VCOMH=3.45V VCOML=-1.5V
 1762              		.loc 1 373 0
 1763 0008 3E20     		movs	r0, #62
 1764 000a FFF7FEFF 		bl	gpio_8080_write_data
ARM GAS  /tmp/ccKKwcYH.s 			page 37


 1765              	.LVL113:
 374:libs/ili9341/ili9341.c ****   gpio_8080_write_data(0x28); 
 1766              		.loc 1 374 0
 1767 000e 2820     		movs	r0, #40
 1768 0010 FFF7FEFF 		bl	gpio_8080_write_data
 1769              	.LVL114:
 1770 0014 08BD     		pop	{r3, pc}
 1771              		.cfi_endproc
 1772              	.LFE174:
 1774              		.section	.text.ili9341_set_vcom_control2,"ax",%progbits
 1775              		.align	1
 1776              		.global	ili9341_set_vcom_control2
 1777              		.syntax unified
 1778              		.thumb
 1779              		.thumb_func
 1780              		.fpu fpv4-sp-d16
 1782              	ili9341_set_vcom_control2:
 1783              	.LFB175:
 375:libs/ili9341/ili9341.c **** }
 376:libs/ili9341/ili9341.c **** 
 377:libs/ili9341/ili9341.c **** void ili9341_set_vcom_control2()
 378:libs/ili9341/ili9341.c **** {
 1784              		.loc 1 378 0
 1785              		.cfi_startproc
 1786              		@ args = 0, pretend = 0, frame = 0
 1787              		@ frame_needed = 0, uses_anonymous_args = 0
 1788 0000 08B5     		push	{r3, lr}
 1789              	.LCFI48:
 1790              		.cfi_def_cfa_offset 8
 1791              		.cfi_offset 3, -8
 1792              		.cfi_offset 14, -4
 379:libs/ili9341/ili9341.c ****   gpio_8080_write_command(0xC7);    //VCM control2 
 1793              		.loc 1 379 0
 1794 0002 C720     		movs	r0, #199
 1795 0004 FFF7FEFF 		bl	gpio_8080_write_command
 1796              	.LVL115:
 380:libs/ili9341/ili9341.c ****   gpio_8080_write_data(0x86);   //--
 1797              		.loc 1 380 0
 1798 0008 8620     		movs	r0, #134
 1799 000a FFF7FEFF 		bl	gpio_8080_write_data
 1800              	.LVL116:
 1801 000e 08BD     		pop	{r3, pc}
 1802              		.cfi_endproc
 1803              	.LFE175:
 1805              		.section	.text.ili9341_set_memory_access_control,"ax",%progbits
 1806              		.align	1
 1807              		.global	ili9341_set_memory_access_control
 1808              		.syntax unified
 1809              		.thumb
 1810              		.thumb_func
 1811              		.fpu fpv4-sp-d16
 1813              	ili9341_set_memory_access_control:
 1814              	.LFB176:
 381:libs/ili9341/ili9341.c **** }
 382:libs/ili9341/ili9341.c **** 
 383:libs/ili9341/ili9341.c **** void ili9341_set_memory_access_control()
 384:libs/ili9341/ili9341.c **** {
ARM GAS  /tmp/ccKKwcYH.s 			page 38


 1815              		.loc 1 384 0
 1816              		.cfi_startproc
 1817              		@ args = 0, pretend = 0, frame = 0
 1818              		@ frame_needed = 0, uses_anonymous_args = 0
 1819 0000 08B5     		push	{r3, lr}
 1820              	.LCFI49:
 1821              		.cfi_def_cfa_offset 8
 1822              		.cfi_offset 3, -8
 1823              		.cfi_offset 14, -4
 385:libs/ili9341/ili9341.c ****   gpio_8080_write_command(0x36);    // Memory Access Control 
 1824              		.loc 1 385 0
 1825 0002 3620     		movs	r0, #54
 1826 0004 FFF7FEFF 		bl	gpio_8080_write_command
 1827              	.LVL117:
 386:libs/ili9341/ili9341.c ****   //gpio_8080_write_data(0x48);  // MX=1 Column Address Order ; BGR=1 RGB(IC)-->BGR(LCD Panel)
 387:libs/ili9341/ili9341.c ****   gpio_8080_write_data(0x08);  // MX=0,BGR =1
 1828              		.loc 1 387 0
 1829 0008 0820     		movs	r0, #8
 1830 000a FFF7FEFF 		bl	gpio_8080_write_data
 1831              	.LVL118:
 1832 000e 08BD     		pop	{r3, pc}
 1833              		.cfi_endproc
 1834              	.LFE176:
 1836              		.section	.text.ili9341_set_pixel_format_set,"ax",%progbits
 1837              		.align	1
 1838              		.global	ili9341_set_pixel_format_set
 1839              		.syntax unified
 1840              		.thumb
 1841              		.thumb_func
 1842              		.fpu fpv4-sp-d16
 1844              	ili9341_set_pixel_format_set:
 1845              	.LFB177:
 388:libs/ili9341/ili9341.c **** }
 389:libs/ili9341/ili9341.c **** 
 390:libs/ili9341/ili9341.c **** void ili9341_set_pixel_format_set()
 391:libs/ili9341/ili9341.c **** {
 1846              		.loc 1 391 0
 1847              		.cfi_startproc
 1848              		@ args = 0, pretend = 0, frame = 0
 1849              		@ frame_needed = 0, uses_anonymous_args = 0
 1850 0000 08B5     		push	{r3, lr}
 1851              	.LCFI50:
 1852              		.cfi_def_cfa_offset 8
 1853              		.cfi_offset 3, -8
 1854              		.cfi_offset 14, -4
 392:libs/ili9341/ili9341.c ****   gpio_8080_write_command(0x3A);    //Pixel Format Set 
 1855              		.loc 1 392 0
 1856 0002 3A20     		movs	r0, #58
 1857 0004 FFF7FEFF 		bl	gpio_8080_write_command
 1858              	.LVL119:
 393:libs/ili9341/ili9341.c ****   gpio_8080_write_data(0x55);   //RGB MCU16bit/pixel  
 1859              		.loc 1 393 0
 1860 0008 5520     		movs	r0, #85
 1861 000a FFF7FEFF 		bl	gpio_8080_write_data
 1862              	.LVL120:
 1863 000e 08BD     		pop	{r3, pc}
 1864              		.cfi_endproc
ARM GAS  /tmp/ccKKwcYH.s 			page 39


 1865              	.LFE177:
 1867              		.section	.text.ili9341_set_frame_rate_control,"ax",%progbits
 1868              		.align	1
 1869              		.global	ili9341_set_frame_rate_control
 1870              		.syntax unified
 1871              		.thumb
 1872              		.thumb_func
 1873              		.fpu fpv4-sp-d16
 1875              	ili9341_set_frame_rate_control:
 1876              	.LFB178:
 394:libs/ili9341/ili9341.c **** }
 395:libs/ili9341/ili9341.c **** 
 396:libs/ili9341/ili9341.c **** void ili9341_set_frame_rate_control()
 397:libs/ili9341/ili9341.c **** {
 1877              		.loc 1 397 0
 1878              		.cfi_startproc
 1879              		@ args = 0, pretend = 0, frame = 0
 1880              		@ frame_needed = 0, uses_anonymous_args = 0
 1881 0000 08B5     		push	{r3, lr}
 1882              	.LCFI51:
 1883              		.cfi_def_cfa_offset 8
 1884              		.cfi_offset 3, -8
 1885              		.cfi_offset 14, -4
 398:libs/ili9341/ili9341.c ****   gpio_8080_write_command(0xB1);    //Frame Rate Control (B1h)In Normal Mode /Full colors 
 1886              		.loc 1 398 0
 1887 0002 B120     		movs	r0, #177
 1888 0004 FFF7FEFF 		bl	gpio_8080_write_command
 1889              	.LVL121:
 399:libs/ili9341/ili9341.c ****   gpio_8080_write_data(0x00);  
 1890              		.loc 1 399 0
 1891 0008 0020     		movs	r0, #0
 1892 000a FFF7FEFF 		bl	gpio_8080_write_data
 1893              	.LVL122:
 400:libs/ili9341/ili9341.c ****   gpio_8080_write_data(0x10);  //79HZ(frame rate)
 1894              		.loc 1 400 0
 1895 000e 1020     		movs	r0, #16
 1896 0010 FFF7FEFF 		bl	gpio_8080_write_data
 1897              	.LVL123:
 1898 0014 08BD     		pop	{r3, pc}
 1899              		.cfi_endproc
 1900              	.LFE178:
 1902              		.section	.text.ili9341_set_display_function_control,"ax",%progbits
 1903              		.align	1
 1904              		.global	ili9341_set_display_function_control
 1905              		.syntax unified
 1906              		.thumb
 1907              		.thumb_func
 1908              		.fpu fpv4-sp-d16
 1910              	ili9341_set_display_function_control:
 1911              	.LFB179:
 401:libs/ili9341/ili9341.c **** }
 402:libs/ili9341/ili9341.c **** 
 403:libs/ili9341/ili9341.c **** void ili9341_set_display_function_control()
 404:libs/ili9341/ili9341.c **** {
 1912              		.loc 1 404 0
 1913              		.cfi_startproc
 1914              		@ args = 0, pretend = 0, frame = 0
ARM GAS  /tmp/ccKKwcYH.s 			page 40


 1915              		@ frame_needed = 0, uses_anonymous_args = 0
 1916 0000 08B5     		push	{r3, lr}
 1917              	.LCFI52:
 1918              		.cfi_def_cfa_offset 8
 1919              		.cfi_offset 3, -8
 1920              		.cfi_offset 14, -4
 405:libs/ili9341/ili9341.c ****   gpio_8080_write_command(0xB6);    // Display Function Control 
 1921              		.loc 1 405 0
 1922 0002 B620     		movs	r0, #182
 1923 0004 FFF7FEFF 		bl	gpio_8080_write_command
 1924              	.LVL124:
 406:libs/ili9341/ili9341.c ****   gpio_8080_write_data(0x08);   // Interval Scan 
 1925              		.loc 1 406 0
 1926 0008 0820     		movs	r0, #8
 1927 000a FFF7FEFF 		bl	gpio_8080_write_data
 1928              	.LVL125:
 407:libs/ili9341/ili9341.c ****   gpio_8080_write_data(0x82);   // 5 frams Scan Cycle
 1929              		.loc 1 407 0
 1930 000e 8220     		movs	r0, #130
 1931 0010 FFF7FEFF 		bl	gpio_8080_write_data
 1932              	.LVL126:
 408:libs/ili9341/ili9341.c ****   gpio_8080_write_data(0x27);   //320 line
 1933              		.loc 1 408 0
 1934 0014 2720     		movs	r0, #39
 1935 0016 FFF7FEFF 		bl	gpio_8080_write_data
 1936              	.LVL127:
 1937 001a 08BD     		pop	{r3, pc}
 1938              		.cfi_endproc
 1939              	.LFE179:
 1941              		.section	.text.ili9341_exit_sleep_mode,"ax",%progbits
 1942              		.align	1
 1943              		.global	ili9341_exit_sleep_mode
 1944              		.syntax unified
 1945              		.thumb
 1946              		.thumb_func
 1947              		.fpu fpv4-sp-d16
 1949              	ili9341_exit_sleep_mode:
 1950              	.LFB180:
 409:libs/ili9341/ili9341.c **** }
 410:libs/ili9341/ili9341.c **** 
 411:libs/ili9341/ili9341.c **** void ili9341_exit_sleep_mode()
 412:libs/ili9341/ili9341.c **** {
 1951              		.loc 1 412 0
 1952              		.cfi_startproc
 1953              		@ args = 0, pretend = 0, frame = 0
 1954              		@ frame_needed = 0, uses_anonymous_args = 0
 1955 0000 08B5     		push	{r3, lr}
 1956              	.LCFI53:
 1957              		.cfi_def_cfa_offset 8
 1958              		.cfi_offset 3, -8
 1959              		.cfi_offset 14, -4
 413:libs/ili9341/ili9341.c ****   gpio_8080_write_command(0x11);    //Exit Sleep 
 1960              		.loc 1 413 0
 1961 0002 1120     		movs	r0, #17
 1962 0004 FFF7FEFF 		bl	gpio_8080_write_command
 1963              	.LVL128:
 414:libs/ili9341/ili9341.c ****   HAL_Delay(120);             //120ms
ARM GAS  /tmp/ccKKwcYH.s 			page 41


 1964              		.loc 1 414 0
 1965 0008 7820     		movs	r0, #120
 1966 000a FFF7FEFF 		bl	HAL_Delay
 1967              	.LVL129:
 1968 000e 08BD     		pop	{r3, pc}
 1969              		.cfi_endproc
 1970              	.LFE180:
 1972              		.section	.text.ili9341_set_display_on,"ax",%progbits
 1973              		.align	1
 1974              		.global	ili9341_set_display_on
 1975              		.syntax unified
 1976              		.thumb
 1977              		.thumb_func
 1978              		.fpu fpv4-sp-d16
 1980              	ili9341_set_display_on:
 1981              	.LFB181:
 415:libs/ili9341/ili9341.c **** }
 416:libs/ili9341/ili9341.c **** 
 417:libs/ili9341/ili9341.c **** void ili9341_set_display_on()
 418:libs/ili9341/ili9341.c **** {
 1982              		.loc 1 418 0
 1983              		.cfi_startproc
 1984              		@ args = 0, pretend = 0, frame = 0
 1985              		@ frame_needed = 0, uses_anonymous_args = 0
 1986 0000 08B5     		push	{r3, lr}
 1987              	.LCFI54:
 1988              		.cfi_def_cfa_offset 8
 1989              		.cfi_offset 3, -8
 1990              		.cfi_offset 14, -4
 419:libs/ili9341/ili9341.c ****   gpio_8080_write_command(0x29);    //Display on 
 1991              		.loc 1 419 0
 1992 0002 2920     		movs	r0, #41
 1993 0004 FFF7FEFF 		bl	gpio_8080_write_command
 1994              	.LVL130:
 1995 0008 08BD     		pop	{r3, pc}
 1996              		.cfi_endproc
 1997              	.LFE181:
 1999              		.section	.text.ili9341_memory_write,"ax",%progbits
 2000              		.align	1
 2001              		.global	ili9341_memory_write
 2002              		.syntax unified
 2003              		.thumb
 2004              		.thumb_func
 2005              		.fpu fpv4-sp-d16
 2007              	ili9341_memory_write:
 2008              	.LFB182:
 420:libs/ili9341/ili9341.c **** 
 421:libs/ili9341/ili9341.c **** }
 422:libs/ili9341/ili9341.c **** 
 423:libs/ili9341/ili9341.c **** void ili9341_memory_write()
 424:libs/ili9341/ili9341.c **** {
 2009              		.loc 1 424 0
 2010              		.cfi_startproc
 2011              		@ args = 0, pretend = 0, frame = 0
 2012              		@ frame_needed = 0, uses_anonymous_args = 0
 2013 0000 08B5     		push	{r3, lr}
 2014              	.LCFI55:
ARM GAS  /tmp/ccKKwcYH.s 			page 42


 2015              		.cfi_def_cfa_offset 8
 2016              		.cfi_offset 3, -8
 2017              		.cfi_offset 14, -4
 425:libs/ili9341/ili9341.c ****   gpio_8080_write_command(0x2c);    //Memory Write Start(2C)  Memory Write Continue(3ch)
 2018              		.loc 1 425 0
 2019 0002 2C20     		movs	r0, #44
 2020 0004 FFF7FEFF 		bl	gpio_8080_write_command
 2021              	.LVL131:
 2022 0008 08BD     		pop	{r3, pc}
 2023              		.cfi_endproc
 2024              	.LFE182:
 2026              		.section	.text.ili9341_hard_reset,"ax",%progbits
 2027              		.align	1
 2028              		.global	ili9341_hard_reset
 2029              		.syntax unified
 2030              		.thumb
 2031              		.thumb_func
 2032              		.fpu fpv4-sp-d16
 2034              	ili9341_hard_reset:
 2035              	.LFB183:
 426:libs/ili9341/ili9341.c **** }
 427:libs/ili9341/ili9341.c **** 
 428:libs/ili9341/ili9341.c **** void ili9341_hard_reset() 
 429:libs/ili9341/ili9341.c **** {
 2036              		.loc 1 429 0
 2037              		.cfi_startproc
 2038              		@ args = 0, pretend = 0, frame = 0
 2039              		@ frame_needed = 0, uses_anonymous_args = 0
 2040 0000 08B5     		push	{r3, lr}
 2041              	.LCFI56:
 2042              		.cfi_def_cfa_offset 8
 2043              		.cfi_offset 3, -8
 2044              		.cfi_offset 14, -4
 430:libs/ili9341/ili9341.c ****   LCD_RST_1();
 2045              		.loc 1 430 0
 2046 0002 FFF7FEFF 		bl	LCD_RST_1
 2047              	.LVL132:
 431:libs/ili9341/ili9341.c ****   HAL_Delay(1);
 2048              		.loc 1 431 0
 2049 0006 0120     		movs	r0, #1
 2050 0008 FFF7FEFF 		bl	HAL_Delay
 2051              	.LVL133:
 432:libs/ili9341/ili9341.c ****   LCD_RST_0();
 2052              		.loc 1 432 0
 2053 000c FFF7FEFF 		bl	LCD_RST_0
 2054              	.LVL134:
 433:libs/ili9341/ili9341.c ****   HAL_Delay(1);
 2055              		.loc 1 433 0
 2056 0010 0120     		movs	r0, #1
 2057 0012 FFF7FEFF 		bl	HAL_Delay
 2058              	.LVL135:
 434:libs/ili9341/ili9341.c ****   LCD_RST_1();
 2059              		.loc 1 434 0
 2060 0016 FFF7FEFF 		bl	LCD_RST_1
 2061              	.LVL136:
 435:libs/ili9341/ili9341.c ****   HAL_Delay(1);
 2062              		.loc 1 435 0
ARM GAS  /tmp/ccKKwcYH.s 			page 43


 2063 001a 0120     		movs	r0, #1
 2064 001c FFF7FEFF 		bl	HAL_Delay
 2065              	.LVL137:
 2066 0020 08BD     		pop	{r3, pc}
 2067              		.cfi_endproc
 2068              	.LFE183:
 2070              		.section	.text.ili9341_get_id4,"ax",%progbits
 2071              		.align	1
 2072              		.global	ili9341_get_id4
 2073              		.syntax unified
 2074              		.thumb
 2075              		.thumb_func
 2076              		.fpu fpv4-sp-d16
 2078              	ili9341_get_id4:
 2079              	.LFB184:
 436:libs/ili9341/ili9341.c **** }
 437:libs/ili9341/ili9341.c **** 
 438:libs/ili9341/ili9341.c **** /**
 439:libs/ili9341/ili9341.c **** 	* @brief Read LCD Controller Chip (ILI9341) ID. 
 440:libs/ili9341/ili9341.c **** 	* @note  It has been tested that some display modules has all manufacturer/version set to 0.
 441:libs/ili9341/ili9341.c **** 	*        Thus a more trustworthy way to test 8080 Read is to read the controller IC (ILI9341)'s ID
 442:libs/ili9341/ili9341.c **** 	*/
 443:libs/ili9341/ili9341.c **** void ili9341_get_id4(uint8_t* p_read_data) 
 444:libs/ili9341/ili9341.c **** {
 2080              		.loc 1 444 0
 2081              		.cfi_startproc
 2082              		@ args = 0, pretend = 0, frame = 64
 2083              		@ frame_needed = 0, uses_anonymous_args = 0
 2084              	.LVL138:
 2085 0000 70B5     		push	{r4, r5, r6, lr}
 2086              	.LCFI57:
 2087              		.cfi_def_cfa_offset 16
 2088              		.cfi_offset 4, -16
 2089              		.cfi_offset 5, -12
 2090              		.cfi_offset 6, -8
 2091              		.cfi_offset 14, -4
 2092 0002 92B0     		sub	sp, sp, #72
 2093              	.LCFI58:
 2094              		.cfi_def_cfa_offset 88
 2095 0004 0646     		mov	r6, r0
 445:libs/ili9341/ili9341.c ****   gpio_8080_write_command(0xD3);
 2096              		.loc 1 445 0
 2097 0006 D320     		movs	r0, #211
 2098              	.LVL139:
 2099 0008 FFF7FEFF 		bl	gpio_8080_write_command
 2100              	.LVL140:
 446:libs/ili9341/ili9341.c ****   gpio_8080_read_data(p_read_data, 4);
 2101              		.loc 1 446 0
 2102 000c 0421     		movs	r1, #4
 2103 000e 3046     		mov	r0, r6
 2104 0010 FFF7FEFF 		bl	gpio_8080_read_data
 2105              	.LVL141:
 447:libs/ili9341/ili9341.c **** 
 448:libs/ili9341/ili9341.c ****   char msg[64];
 449:libs/ili9341/ili9341.c **** 	sprintf(msg, "- Printing ID4 register value -\n");
 2106              		.loc 1 449 0
 2107 0014 02AC     		add	r4, sp, #8
ARM GAS  /tmp/ccKKwcYH.s 			page 44


 2108 0016 124D     		ldr	r5, .L175
 2109 0018 0FCD     		ldmia	r5!, {r0, r1, r2, r3}
 2110 001a 0FC4     		stmia	r4!, {r0, r1, r2, r3}
 2111 001c 0FCD     		ldmia	r5!, {r0, r1, r2, r3}
 2112 001e 0FC4     		stmia	r4!, {r0, r1, r2, r3}
 2113 0020 2B68     		ldr	r3, [r5]
 2114 0022 2370     		strb	r3, [r4]
 2115              	.LVL142:
 2116              	.LBB7:
 2117              	.LBB8:
  40:libs/ili9341/ili9341.c **** }
 2118              		.loc 1 40 0
 2119 0024 02A8     		add	r0, sp, #8
 2120              	.LVL143:
 2121 0026 FFF7FEFF 		bl	strlen
 2122              	.LVL144:
 2123 002a 0E4C     		ldr	r4, .L175+4
 2124              	.LVL145:
 2125 002c 6423     		movs	r3, #100
 2126 002e 82B2     		uxth	r2, r0
 2127 0030 02A9     		add	r1, sp, #8
 2128              	.LVL146:
 2129 0032 2046     		mov	r0, r4
 2130 0034 FFF7FEFF 		bl	HAL_UART_Transmit
 2131              	.LVL147:
 2132              	.LBE8:
 2133              	.LBE7:
 450:libs/ili9341/ili9341.c **** 	serial_print(msg);
 451:libs/ili9341/ili9341.c **** 	sprintf(msg, "ILI9341 IC Version: %d \nIC Model: 0x%02x%02x\n", p_read_data[1], p_read_data[2], p_
 2134              		.loc 1 451 0
 2135 0038 7278     		ldrb	r2, [r6, #1]	@ zero_extendqisi2
 2136 003a B378     		ldrb	r3, [r6, #2]	@ zero_extendqisi2
 2137 003c F178     		ldrb	r1, [r6, #3]	@ zero_extendqisi2
 2138 003e 0091     		str	r1, [sp]
 2139 0040 0949     		ldr	r1, .L175+8
 2140 0042 02A8     		add	r0, sp, #8
 2141 0044 FFF7FEFF 		bl	sprintf
 2142              	.LVL148:
 2143              	.LBB9:
 2144              	.LBB10:
  40:libs/ili9341/ili9341.c **** }
 2145              		.loc 1 40 0
 2146 0048 02A8     		add	r0, sp, #8
 2147              	.LVL149:
 2148 004a FFF7FEFF 		bl	strlen
 2149              	.LVL150:
 2150 004e 6423     		movs	r3, #100
 2151 0050 82B2     		uxth	r2, r0
 2152 0052 02A9     		add	r1, sp, #8
 2153              	.LVL151:
 2154 0054 2046     		mov	r0, r4
 2155 0056 FFF7FEFF 		bl	HAL_UART_Transmit
 2156              	.LVL152:
 2157              	.LBE10:
 2158              	.LBE9:
 452:libs/ili9341/ili9341.c **** 	serial_print(msg);
 453:libs/ili9341/ili9341.c **** }
ARM GAS  /tmp/ccKKwcYH.s 			page 45


 2159              		.loc 1 453 0
 2160 005a 12B0     		add	sp, sp, #72
 2161              	.LCFI59:
 2162              		.cfi_def_cfa_offset 16
 2163              		@ sp needed
 2164 005c 70BD     		pop	{r4, r5, r6, pc}
 2165              	.LVL153:
 2166              	.L176:
 2167 005e 00BF     		.align	2
 2168              	.L175:
 2169 0060 00000000 		.word	.LC0
 2170 0064 00000000 		.word	huart2
 2171 0068 24000000 		.word	.LC1
 2172              		.cfi_endproc
 2173              	.LFE184:
 2175              		.section	.text.ili9341_init,"ax",%progbits
 2176              		.align	1
 2177              		.global	ili9341_init
 2178              		.syntax unified
 2179              		.thumb
 2180              		.thumb_func
 2181              		.fpu fpv4-sp-d16
 2183              	ili9341_init:
 2184              	.LFB185:
 454:libs/ili9341/ili9341.c **** 
 455:libs/ili9341/ili9341.c **** 
 456:libs/ili9341/ili9341.c **** 
 457:libs/ili9341/ili9341.c **** void ili9341_init()
 458:libs/ili9341/ili9341.c **** {
 2185              		.loc 1 458 0
 2186              		.cfi_startproc
 2187              		@ args = 0, pretend = 0, frame = 0
 2188              		@ frame_needed = 0, uses_anonymous_args = 0
 2189 0000 08B5     		push	{r3, lr}
 2190              	.LCFI60:
 2191              		.cfi_def_cfa_offset 8
 2192              		.cfi_offset 3, -8
 2193              		.cfi_offset 14, -4
 459:libs/ili9341/ili9341.c **** 
 460:libs/ili9341/ili9341.c ****   ili9341_hard_reset();
 2194              		.loc 1 460 0
 2195 0002 FFF7FEFF 		bl	ili9341_hard_reset
 2196              	.LVL154:
 461:libs/ili9341/ili9341.c ****   ili9341_set_power_control_a();
 2197              		.loc 1 461 0
 2198 0006 FFF7FEFF 		bl	ili9341_set_power_control_a
 2199              	.LVL155:
 462:libs/ili9341/ili9341.c ****   ili9341_set_power_control_b();
 2200              		.loc 1 462 0
 2201 000a FFF7FEFF 		bl	ili9341_set_power_control_b
 2202              	.LVL156:
 463:libs/ili9341/ili9341.c ****   ili9341_set_driver_timing_control_a();
 2203              		.loc 1 463 0
 2204 000e FFF7FEFF 		bl	ili9341_set_driver_timing_control_a
 2205              	.LVL157:
 464:libs/ili9341/ili9341.c ****   ili9341_set_driver_timing_control_b();
 2206              		.loc 1 464 0
ARM GAS  /tmp/ccKKwcYH.s 			page 46


 2207 0012 FFF7FEFF 		bl	ili9341_set_driver_timing_control_b
 2208              	.LVL158:
 465:libs/ili9341/ili9341.c ****   ili9341_set_poweron_sequence_control_b();
 2209              		.loc 1 465 0
 2210 0016 FFF7FEFF 		bl	ili9341_set_poweron_sequence_control_b
 2211              	.LVL159:
 466:libs/ili9341/ili9341.c ****   ili9341_set_pump_ratio_control();
 2212              		.loc 1 466 0
 2213 001a FFF7FEFF 		bl	ili9341_set_pump_ratio_control
 2214              	.LVL160:
 467:libs/ili9341/ili9341.c ****   ili9341_set_power_control1();
 2215              		.loc 1 467 0
 2216 001e FFF7FEFF 		bl	ili9341_set_power_control1
 2217              	.LVL161:
 468:libs/ili9341/ili9341.c ****   ili9341_set_power_control2();
 2218              		.loc 1 468 0
 2219 0022 FFF7FEFF 		bl	ili9341_set_power_control2
 2220              	.LVL162:
 469:libs/ili9341/ili9341.c ****   ili9341_set_vcom_control1();
 2221              		.loc 1 469 0
 2222 0026 FFF7FEFF 		bl	ili9341_set_vcom_control1
 2223              	.LVL163:
 470:libs/ili9341/ili9341.c ****   ili9341_set_vcom_control2();
 2224              		.loc 1 470 0
 2225 002a FFF7FEFF 		bl	ili9341_set_vcom_control2
 2226              	.LVL164:
 471:libs/ili9341/ili9341.c ****   ili9341_set_memory_access_control();
 2227              		.loc 1 471 0
 2228 002e FFF7FEFF 		bl	ili9341_set_memory_access_control
 2229              	.LVL165:
 472:libs/ili9341/ili9341.c ****   ili9341_set_pixel_format_set();
 2230              		.loc 1 472 0
 2231 0032 FFF7FEFF 		bl	ili9341_set_pixel_format_set
 2232              	.LVL166:
 473:libs/ili9341/ili9341.c ****   ili9341_set_frame_rate_control();
 2233              		.loc 1 473 0
 2234 0036 FFF7FEFF 		bl	ili9341_set_frame_rate_control
 2235              	.LVL167:
 474:libs/ili9341/ili9341.c ****   ili9341_set_display_function_control();
 2236              		.loc 1 474 0
 2237 003a FFF7FEFF 		bl	ili9341_set_display_function_control
 2238              	.LVL168:
 475:libs/ili9341/ili9341.c ****   ili9341_exit_sleep_mode();
 2239              		.loc 1 475 0
 2240 003e FFF7FEFF 		bl	ili9341_exit_sleep_mode
 2241              	.LVL169:
 476:libs/ili9341/ili9341.c ****   ili9341_set_display_on();
 2242              		.loc 1 476 0
 2243 0042 FFF7FEFF 		bl	ili9341_set_display_on
 2244              	.LVL170:
 477:libs/ili9341/ili9341.c ****   ili9341_memory_write();
 2245              		.loc 1 477 0
 2246 0046 FFF7FEFF 		bl	ili9341_memory_write
 2247              	.LVL171:
 2248 004a 08BD     		pop	{r3, pc}
 2249              		.cfi_endproc
 2250              	.LFE185:
ARM GAS  /tmp/ccKKwcYH.s 			page 47


 2252              		.section	.text.ili9341_set_column_address,"ax",%progbits
 2253              		.align	1
 2254              		.global	ili9341_set_column_address
 2255              		.syntax unified
 2256              		.thumb
 2257              		.thumb_func
 2258              		.fpu fpv4-sp-d16
 2260              	ili9341_set_column_address:
 2261              	.LFB186:
 478:libs/ili9341/ili9341.c **** }
 479:libs/ili9341/ili9341.c **** 
 480:libs/ili9341/ili9341.c **** 
 481:libs/ili9341/ili9341.c **** 
 482:libs/ili9341/ili9341.c **** void ili9341_set_column_address(uint16_t x1, uint16_t x2)
 483:libs/ili9341/ili9341.c **** {
 2262              		.loc 1 483 0
 2263              		.cfi_startproc
 2264              		@ args = 0, pretend = 0, frame = 0
 2265              		@ frame_needed = 0, uses_anonymous_args = 0
 2266              	.LVL172:
 2267 0000 38B5     		push	{r3, r4, r5, lr}
 2268              	.LCFI61:
 2269              		.cfi_def_cfa_offset 16
 2270              		.cfi_offset 3, -16
 2271              		.cfi_offset 4, -12
 2272              		.cfi_offset 5, -8
 2273              		.cfi_offset 14, -4
 2274 0002 0546     		mov	r5, r0
 2275 0004 0C46     		mov	r4, r1
 484:libs/ili9341/ili9341.c ****   gpio_8080_write_command(0x2a);
 2276              		.loc 1 484 0
 2277 0006 2A20     		movs	r0, #42
 2278              	.LVL173:
 2279 0008 FFF7FEFF 		bl	gpio_8080_write_command
 2280              	.LVL174:
 485:libs/ili9341/ili9341.c ****   gpio_8080_write_data(x1>>8);   //
 2281              		.loc 1 485 0
 2282 000c 280A     		lsrs	r0, r5, #8
 2283 000e FFF7FEFF 		bl	gpio_8080_write_data
 2284              	.LVL175:
 486:libs/ili9341/ili9341.c ****   gpio_8080_write_data(x1);      //16bit
 2285              		.loc 1 486 0
 2286 0012 E8B2     		uxtb	r0, r5
 2287 0014 FFF7FEFF 		bl	gpio_8080_write_data
 2288              	.LVL176:
 487:libs/ili9341/ili9341.c ****   gpio_8080_write_data(x2>>8);   //
 2289              		.loc 1 487 0
 2290 0018 200A     		lsrs	r0, r4, #8
 2291 001a FFF7FEFF 		bl	gpio_8080_write_data
 2292              	.LVL177:
 488:libs/ili9341/ili9341.c ****   gpio_8080_write_data(x2);      //16bit
 2293              		.loc 1 488 0
 2294 001e E0B2     		uxtb	r0, r4
 2295 0020 FFF7FEFF 		bl	gpio_8080_write_data
 2296              	.LVL178:
 2297 0024 38BD     		pop	{r3, r4, r5, pc}
 2298              		.cfi_endproc
ARM GAS  /tmp/ccKKwcYH.s 			page 48


 2299              	.LFE186:
 2301              		.section	.text.ili9341_set_page_address,"ax",%progbits
 2302              		.align	1
 2303              		.global	ili9341_set_page_address
 2304              		.syntax unified
 2305              		.thumb
 2306              		.thumb_func
 2307              		.fpu fpv4-sp-d16
 2309              	ili9341_set_page_address:
 2310              	.LFB187:
 489:libs/ili9341/ili9341.c **** }
 490:libs/ili9341/ili9341.c **** 
 491:libs/ili9341/ili9341.c **** void ili9341_set_page_address(uint16_t y1, uint16_t y2)
 492:libs/ili9341/ili9341.c **** {
 2311              		.loc 1 492 0
 2312              		.cfi_startproc
 2313              		@ args = 0, pretend = 0, frame = 0
 2314              		@ frame_needed = 0, uses_anonymous_args = 0
 2315              	.LVL179:
 2316 0000 38B5     		push	{r3, r4, r5, lr}
 2317              	.LCFI62:
 2318              		.cfi_def_cfa_offset 16
 2319              		.cfi_offset 3, -16
 2320              		.cfi_offset 4, -12
 2321              		.cfi_offset 5, -8
 2322              		.cfi_offset 14, -4
 2323 0002 0546     		mov	r5, r0
 2324 0004 0C46     		mov	r4, r1
 493:libs/ili9341/ili9341.c ****   gpio_8080_write_command(0x2b);
 2325              		.loc 1 493 0
 2326 0006 2B20     		movs	r0, #43
 2327              	.LVL180:
 2328 0008 FFF7FEFF 		bl	gpio_8080_write_command
 2329              	.LVL181:
 494:libs/ili9341/ili9341.c ****   gpio_8080_write_data(y1>>8);     //
 2330              		.loc 1 494 0
 2331 000c 280A     		lsrs	r0, r5, #8
 2332 000e FFF7FEFF 		bl	gpio_8080_write_data
 2333              	.LVL182:
 495:libs/ili9341/ili9341.c ****   gpio_8080_write_data(y1);         //16bit
 2334              		.loc 1 495 0
 2335 0012 E8B2     		uxtb	r0, r5
 2336 0014 FFF7FEFF 		bl	gpio_8080_write_data
 2337              	.LVL183:
 496:libs/ili9341/ili9341.c ****   gpio_8080_write_data(y2>>8);      //
 2338              		.loc 1 496 0
 2339 0018 200A     		lsrs	r0, r4, #8
 2340 001a FFF7FEFF 		bl	gpio_8080_write_data
 2341              	.LVL184:
 497:libs/ili9341/ili9341.c ****   gpio_8080_write_data(y2);         //16bit
 2342              		.loc 1 497 0
 2343 001e E0B2     		uxtb	r0, r4
 2344 0020 FFF7FEFF 		bl	gpio_8080_write_data
 2345              	.LVL185:
 2346 0024 38BD     		pop	{r3, r4, r5, pc}
 2347              		.cfi_endproc
 2348              	.LFE187:
ARM GAS  /tmp/ccKKwcYH.s 			page 49


 2350              		.section	.text.ili9341_set_frame_address,"ax",%progbits
 2351              		.align	1
 2352              		.global	ili9341_set_frame_address
 2353              		.syntax unified
 2354              		.thumb
 2355              		.thumb_func
 2356              		.fpu fpv4-sp-d16
 2358              	ili9341_set_frame_address:
 2359              	.LFB188:
 498:libs/ili9341/ili9341.c **** }
 499:libs/ili9341/ili9341.c **** 
 500:libs/ili9341/ili9341.c **** 
 501:libs/ili9341/ili9341.c **** /**
 502:libs/ili9341/ili9341.c **** 	* @brief Send to ILI9341 the define area of frame memory where MCU can access.
 503:libs/ili9341/ili9341.c **** 	*/
 504:libs/ili9341/ili9341.c **** void ili9341_set_frame_address(uint16_t x1,uint16_t y1,uint16_t x2,uint16_t y2)
 505:libs/ili9341/ili9341.c **** {
 2360              		.loc 1 505 0
 2361              		.cfi_startproc
 2362              		@ args = 0, pretend = 0, frame = 0
 2363              		@ frame_needed = 0, uses_anonymous_args = 0
 2364              	.LVL186:
 2365 0000 38B5     		push	{r3, r4, r5, lr}
 2366              	.LCFI63:
 2367              		.cfi_def_cfa_offset 16
 2368              		.cfi_offset 3, -16
 2369              		.cfi_offset 4, -12
 2370              		.cfi_offset 5, -8
 2371              		.cfi_offset 14, -4
 2372 0002 0C46     		mov	r4, r1
 2373 0004 1D46     		mov	r5, r3
 506:libs/ili9341/ili9341.c **** 	ili9341_set_column_address(x1, x2);
 2374              		.loc 1 506 0
 2375 0006 1146     		mov	r1, r2
 2376              	.LVL187:
 2377 0008 FFF7FEFF 		bl	ili9341_set_column_address
 2378              	.LVL188:
 507:libs/ili9341/ili9341.c **** 	ili9341_set_page_address(y1, y2);
 2379              		.loc 1 507 0
 2380 000c 2946     		mov	r1, r5
 2381 000e 2046     		mov	r0, r4
 2382 0010 FFF7FEFF 		bl	ili9341_set_page_address
 2383              	.LVL189:
 508:libs/ili9341/ili9341.c **** 	ili9341_memory_write();
 2384              		.loc 1 508 0
 2385 0014 FFF7FEFF 		bl	ili9341_memory_write
 2386              	.LVL190:
 2387 0018 38BD     		pop	{r3, r4, r5, pc}
 2388              		.cfi_endproc
 2389              	.LFE188:
 2391              		.section	.text.lcd_draw_horizontal_line,"ax",%progbits
 2392              		.align	1
 2393              		.global	lcd_draw_horizontal_line
 2394              		.syntax unified
 2395              		.thumb
 2396              		.thumb_func
 2397              		.fpu fpv4-sp-d16
ARM GAS  /tmp/ccKKwcYH.s 			page 50


 2399              	lcd_draw_horizontal_line:
 2400              	.LFB189:
 509:libs/ili9341/ili9341.c **** }
 510:libs/ili9341/ili9341.c **** 
 511:libs/ili9341/ili9341.c **** 
 512:libs/ili9341/ili9341.c **** 
 513:libs/ili9341/ili9341.c **** 
 514:libs/ili9341/ili9341.c **** /**
 515:libs/ili9341/ili9341.c **** 	* @brief Draw a horizontal line.
 516:libs/ili9341/ili9341.c **** 	*/
 517:libs/ili9341/ili9341.c **** void lcd_draw_horizontal_line(uint16_t start_coordinate_x, uint16_t start_coordinate_y, uint16_t le
 518:libs/ili9341/ili9341.c **** { 
 2401              		.loc 1 518 0
 2402              		.cfi_startproc
 2403              		@ args = 0, pretend = 0, frame = 0
 2404              		@ frame_needed = 0, uses_anonymous_args = 0
 2405              	.LVL191:
 2406 0000 F8B5     		push	{r3, r4, r5, r6, r7, lr}
 2407              	.LCFI64:
 2408              		.cfi_def_cfa_offset 24
 2409              		.cfi_offset 3, -24
 2410              		.cfi_offset 4, -20
 2411              		.cfi_offset 5, -16
 2412              		.cfi_offset 6, -12
 2413              		.cfi_offset 7, -8
 2414              		.cfi_offset 14, -4
 2415 0002 0446     		mov	r4, r0
 2416 0004 0F46     		mov	r7, r1
 2417 0006 1646     		mov	r6, r2
 2418 0008 1D46     		mov	r5, r3
 519:libs/ili9341/ili9341.c ****   gpio_8080_write_command(0x2C);       //write_memory_start
 2419              		.loc 1 519 0
 2420 000a 2C20     		movs	r0, #44
 2421              	.LVL192:
 2422 000c FFF7FEFF 		bl	gpio_8080_write_command
 2423              	.LVL193:
 520:libs/ili9341/ili9341.c **** 	uint16_t end_coordinate_x = start_coordinate_x + length;
 2424              		.loc 1 520 0
 2425 0010 A219     		adds	r2, r4, r6
 2426              	.LVL194:
 521:libs/ili9341/ili9341.c **** 	uint16_t end_coordinate_y = start_coordinate_y;
 522:libs/ili9341/ili9341.c **** 
 523:libs/ili9341/ili9341.c **** 	/* Sets the frame memory area. */
 524:libs/ili9341/ili9341.c ****   ili9341_set_frame_address(start_coordinate_x, start_coordinate_y, end_coordinate_x, end_coordinat
 2427              		.loc 1 524 0
 2428 0012 3B46     		mov	r3, r7
 2429 0014 92B2     		uxth	r2, r2
 2430 0016 3946     		mov	r1, r7
 2431 0018 2046     		mov	r0, r4
 2432 001a FFF7FEFF 		bl	ili9341_set_frame_address
 2433              	.LVL195:
 2434              	.LBB11:
 525:libs/ili9341/ili9341.c **** 
 526:libs/ili9341/ili9341.c **** 	/* Fill with line_color. */
 527:libs/ili9341/ili9341.c ****   for(uint16_t i = 1; i<=length; ++i)
 2435              		.loc 1 527 0
 2436 001e 0124     		movs	r4, #1
ARM GAS  /tmp/ccKKwcYH.s 			page 51


 2437              	.LVL196:
 2438 0020 07E0     		b	.L186
 2439              	.LVL197:
 2440              	.L187:
 528:libs/ili9341/ili9341.c ****   {
 529:libs/ili9341/ili9341.c ****     gpio_8080_write_data(line_color >> 8);  /* MSB first. */
 2441              		.loc 1 529 0 discriminator 3
 2442 0022 280A     		lsrs	r0, r5, #8
 2443 0024 FFF7FEFF 		bl	gpio_8080_write_data
 2444              	.LVL198:
 530:libs/ili9341/ili9341.c ****     gpio_8080_write_data(line_color);      
 2445              		.loc 1 530 0 discriminator 3
 2446 0028 E8B2     		uxtb	r0, r5
 2447 002a FFF7FEFF 		bl	gpio_8080_write_data
 2448              	.LVL199:
 527:libs/ili9341/ili9341.c ****   {
 2449              		.loc 1 527 0 discriminator 3
 2450 002e 0134     		adds	r4, r4, #1
 2451              	.LVL200:
 2452 0030 A4B2     		uxth	r4, r4
 2453              	.LVL201:
 2454              	.L186:
 527:libs/ili9341/ili9341.c ****   {
 2455              		.loc 1 527 0 is_stmt 0 discriminator 1
 2456 0032 B442     		cmp	r4, r6
 2457 0034 F5D9     		bls	.L187
 2458              	.LBE11:
 531:libs/ili9341/ili9341.c ****   }
 532:libs/ili9341/ili9341.c **** }
 2459              		.loc 1 532 0 is_stmt 1
 2460 0036 F8BD     		pop	{r3, r4, r5, r6, r7, pc}
 2461              		.cfi_endproc
 2462              	.LFE189:
 2464              		.section	.text.lcd_draw_vertical_line,"ax",%progbits
 2465              		.align	1
 2466              		.global	lcd_draw_vertical_line
 2467              		.syntax unified
 2468              		.thumb
 2469              		.thumb_func
 2470              		.fpu fpv4-sp-d16
 2472              	lcd_draw_vertical_line:
 2473              	.LFB190:
 533:libs/ili9341/ili9341.c **** 
 534:libs/ili9341/ili9341.c **** /**
 535:libs/ili9341/ili9341.c **** 	* Draw a vertical line. Fill color if necessary.
 536:libs/ili9341/ili9341.c **** 	*/
 537:libs/ili9341/ili9341.c **** void lcd_draw_vertical_line(uint16_t start_coordinate_x, uint16_t start_coordinate_y, uint16_t leng
 538:libs/ili9341/ili9341.c **** { 
 2474              		.loc 1 538 0
 2475              		.cfi_startproc
 2476              		@ args = 0, pretend = 0, frame = 0
 2477              		@ frame_needed = 0, uses_anonymous_args = 0
 2478              	.LVL202:
 2479 0000 F8B5     		push	{r3, r4, r5, r6, r7, lr}
 2480              	.LCFI65:
 2481              		.cfi_def_cfa_offset 24
 2482              		.cfi_offset 3, -24
ARM GAS  /tmp/ccKKwcYH.s 			page 52


 2483              		.cfi_offset 4, -20
 2484              		.cfi_offset 5, -16
 2485              		.cfi_offset 6, -12
 2486              		.cfi_offset 7, -8
 2487              		.cfi_offset 14, -4
 2488 0002 0446     		mov	r4, r0
 2489 0004 0F46     		mov	r7, r1
 2490 0006 1646     		mov	r6, r2
 2491 0008 1D46     		mov	r5, r3
 539:libs/ili9341/ili9341.c ****   
 540:libs/ili9341/ili9341.c ****   gpio_8080_write_command(0x2c); //write_memory_start
 2492              		.loc 1 540 0
 2493 000a 2C20     		movs	r0, #44
 2494              	.LVL203:
 2495 000c FFF7FEFF 		bl	gpio_8080_write_command
 2496              	.LVL204:
 541:libs/ili9341/ili9341.c ****   
 542:libs/ili9341/ili9341.c **** 	uint16_t end_coordinate_x = start_coordinate_x;
 543:libs/ili9341/ili9341.c **** 	uint16_t end_coordinate_y = start_coordinate_y + length;
 2497              		.loc 1 543 0
 2498 0010 BB19     		adds	r3, r7, r6
 2499              	.LVL205:
 544:libs/ili9341/ili9341.c **** 	/* Sets the frame memory area. */
 545:libs/ili9341/ili9341.c ****   ili9341_set_frame_address(start_coordinate_x, start_coordinate_y, end_coordinate_x, end_coordinat
 2500              		.loc 1 545 0
 2501 0012 9BB2     		uxth	r3, r3
 2502 0014 2246     		mov	r2, r4
 2503 0016 3946     		mov	r1, r7
 2504 0018 2046     		mov	r0, r4
 2505 001a FFF7FEFF 		bl	ili9341_set_frame_address
 2506              	.LVL206:
 2507              	.LBB12:
 546:libs/ili9341/ili9341.c **** 
 547:libs/ili9341/ili9341.c **** 	/* Fill with line_color. */
 548:libs/ili9341/ili9341.c ****   for(uint16_t i=1; i<=length; ++i)
 2508              		.loc 1 548 0
 2509 001e 0124     		movs	r4, #1
 2510              	.LVL207:
 2511 0020 07E0     		b	.L190
 2512              	.LVL208:
 2513              	.L191:
 549:libs/ili9341/ili9341.c ****   { 
 550:libs/ili9341/ili9341.c ****     gpio_8080_write_data(line_color>>8);   
 2514              		.loc 1 550 0 discriminator 3
 2515 0022 280A     		lsrs	r0, r5, #8
 2516 0024 FFF7FEFF 		bl	gpio_8080_write_data
 2517              	.LVL209:
 551:libs/ili9341/ili9341.c ****     gpio_8080_write_data(line_color);       
 2518              		.loc 1 551 0 discriminator 3
 2519 0028 E8B2     		uxtb	r0, r5
 2520 002a FFF7FEFF 		bl	gpio_8080_write_data
 2521              	.LVL210:
 548:libs/ili9341/ili9341.c ****   { 
 2522              		.loc 1 548 0 discriminator 3
 2523 002e 0134     		adds	r4, r4, #1
 2524              	.LVL211:
 2525 0030 A4B2     		uxth	r4, r4
ARM GAS  /tmp/ccKKwcYH.s 			page 53


 2526              	.LVL212:
 2527              	.L190:
 548:libs/ili9341/ili9341.c ****   { 
 2528              		.loc 1 548 0 is_stmt 0 discriminator 1
 2529 0032 B442     		cmp	r4, r6
 2530 0034 F5D9     		bls	.L191
 2531              	.LBE12:
 552:libs/ili9341/ili9341.c ****   }
 553:libs/ili9341/ili9341.c **** }
 2532              		.loc 1 553 0 is_stmt 1
 2533 0036 F8BD     		pop	{r3, r4, r5, r6, r7, pc}
 2534              		.cfi_endproc
 2535              	.LFE190:
 2537              		.section	.text.lcd_draw_rectangle_unfilled,"ax",%progbits
 2538              		.align	1
 2539              		.global	lcd_draw_rectangle_unfilled
 2540              		.syntax unified
 2541              		.thumb
 2542              		.thumb_func
 2543              		.fpu fpv4-sp-d16
 2545              	lcd_draw_rectangle_unfilled:
 2546              	.LFB191:
 554:libs/ili9341/ili9341.c **** 
 555:libs/ili9341/ili9341.c **** /**
 556:libs/ili9341/ili9341.c **** 	* @brief Draw an empty rectangle frame.
 557:libs/ili9341/ili9341.c **** 	* @note  This is equivalent to drawing two vertical lines plus two horizontal lines.
 558:libs/ili9341/ili9341.c **** 	*/
 559:libs/ili9341/ili9341.c **** void lcd_draw_rectangle_unfilled(uint16_t start_coordinate_x, uint16_t start_coordinate_y, uint16_t
 560:libs/ili9341/ili9341.c **** {
 2547              		.loc 1 560 0
 2548              		.cfi_startproc
 2549              		@ args = 4, pretend = 0, frame = 0
 2550              		@ frame_needed = 0, uses_anonymous_args = 0
 2551              	.LVL213:
 2552 0000 2DE9F041 		push	{r4, r5, r6, r7, r8, lr}
 2553              	.LCFI66:
 2554              		.cfi_def_cfa_offset 24
 2555              		.cfi_offset 4, -24
 2556              		.cfi_offset 5, -20
 2557              		.cfi_offset 6, -16
 2558              		.cfi_offset 7, -12
 2559              		.cfi_offset 8, -8
 2560              		.cfi_offset 14, -4
 2561 0004 0446     		mov	r4, r0
 2562 0006 0E46     		mov	r6, r1
 2563 0008 9046     		mov	r8, r2
 2564 000a 1F46     		mov	r7, r3
 2565 000c BDF81850 		ldrh	r5, [sp, #24]
 561:libs/ili9341/ili9341.c ****   lcd_draw_horizontal_line(start_coordinate_x, start_coordinate_y, rect_width, frame_color);
 2566              		.loc 1 561 0
 2567 0010 2B46     		mov	r3, r5
 2568              	.LVL214:
 2569 0012 FFF7FEFF 		bl	lcd_draw_horizontal_line
 2570              	.LVL215:
 562:libs/ili9341/ili9341.c ****   lcd_draw_horizontal_line(start_coordinate_x, start_coordinate_y + rect_height, rect_width, frame_
 2571              		.loc 1 562 0
 2572 0016 F119     		adds	r1, r6, r7
ARM GAS  /tmp/ccKKwcYH.s 			page 54


 2573 0018 2B46     		mov	r3, r5
 2574 001a 4246     		mov	r2, r8
 2575 001c 89B2     		uxth	r1, r1
 2576 001e 2046     		mov	r0, r4
 2577 0020 FFF7FEFF 		bl	lcd_draw_horizontal_line
 2578              	.LVL216:
 563:libs/ili9341/ili9341.c **** 
 564:libs/ili9341/ili9341.c ****   lcd_draw_vertical_line(start_coordinate_x, start_coordinate_y, rect_height, frame_color);
 2579              		.loc 1 564 0
 2580 0024 2B46     		mov	r3, r5
 2581 0026 3A46     		mov	r2, r7
 2582 0028 3146     		mov	r1, r6
 2583 002a 2046     		mov	r0, r4
 2584 002c FFF7FEFF 		bl	lcd_draw_vertical_line
 2585              	.LVL217:
 565:libs/ili9341/ili9341.c ****   lcd_draw_vertical_line(start_coordinate_x + rect_width, start_coordinate_y, rect_height, frame_co
 2586              		.loc 1 565 0
 2587 0030 04EB0800 		add	r0, r4, r8
 2588 0034 2B46     		mov	r3, r5
 2589 0036 3A46     		mov	r2, r7
 2590 0038 3146     		mov	r1, r6
 2591 003a 80B2     		uxth	r0, r0
 2592 003c FFF7FEFF 		bl	lcd_draw_vertical_line
 2593              	.LVL218:
 2594 0040 BDE8F081 		pop	{r4, r5, r6, r7, r8, pc}
 2595              		.cfi_endproc
 2596              	.LFE191:
 2598              		.section	.text.lcd_draw_rectangle_filled,"ax",%progbits
 2599              		.align	1
 2600              		.global	lcd_draw_rectangle_filled
 2601              		.syntax unified
 2602              		.thumb
 2603              		.thumb_func
 2604              		.fpu fpv4-sp-d16
 2606              	lcd_draw_rectangle_filled:
 2607              	.LFB192:
 566:libs/ili9341/ili9341.c **** }
 567:libs/ili9341/ili9341.c **** 
 568:libs/ili9341/ili9341.c **** /**
 569:libs/ili9341/ili9341.c **** 	* @brief Draw a solid color-filled rectangle.
 570:libs/ili9341/ili9341.c **** 	*/
 571:libs/ili9341/ili9341.c **** void lcd_draw_rectangle_filled(uint16_t start_coordinate_x, uint16_t start_coordinate_y, uint16_t r
 572:libs/ili9341/ili9341.c **** {
 2608              		.loc 1 572 0
 2609              		.cfi_startproc
 2610              		@ args = 4, pretend = 0, frame = 0
 2611              		@ frame_needed = 0, uses_anonymous_args = 0
 2612              	.LVL219:
 2613 0000 2DE9F843 		push	{r3, r4, r5, r6, r7, r8, r9, lr}
 2614              	.LCFI67:
 2615              		.cfi_def_cfa_offset 32
 2616              		.cfi_offset 3, -32
 2617              		.cfi_offset 4, -28
 2618              		.cfi_offset 5, -24
 2619              		.cfi_offset 6, -20
 2620              		.cfi_offset 7, -16
 2621              		.cfi_offset 8, -12
ARM GAS  /tmp/ccKKwcYH.s 			page 55


 2622              		.cfi_offset 9, -8
 2623              		.cfi_offset 14, -4
 2624 0004 8146     		mov	r9, r0
 2625 0006 8846     		mov	r8, r1
 2626 0008 1746     		mov	r7, r2
 2627 000a 1D46     		mov	r5, r3
 2628 000c BDF82060 		ldrh	r6, [sp, #32]
 2629              	.LVL220:
 2630              	.LBB13:
 573:libs/ili9341/ili9341.c ****   for (uint16_t i = 0; i < rect_height; ++i)
 2631              		.loc 1 573 0
 2632 0010 0024     		movs	r4, #0
 2633 0012 09E0     		b	.L196
 2634              	.LVL221:
 2635              	.L197:
 574:libs/ili9341/ili9341.c ****   {
 575:libs/ili9341/ili9341.c ****     lcd_draw_horizontal_line(start_coordinate_x, start_coordinate_y + i, rect_width, rect_color);
 2636              		.loc 1 575 0 discriminator 3
 2637 0014 04EB0801 		add	r1, r4, r8
 2638 0018 3346     		mov	r3, r6
 2639 001a 3A46     		mov	r2, r7
 2640 001c 89B2     		uxth	r1, r1
 2641 001e 4846     		mov	r0, r9
 2642 0020 FFF7FEFF 		bl	lcd_draw_horizontal_line
 2643              	.LVL222:
 573:libs/ili9341/ili9341.c ****   for (uint16_t i = 0; i < rect_height; ++i)
 2644              		.loc 1 573 0 discriminator 3
 2645 0024 0134     		adds	r4, r4, #1
 2646              	.LVL223:
 2647 0026 A4B2     		uxth	r4, r4
 2648              	.LVL224:
 2649              	.L196:
 573:libs/ili9341/ili9341.c ****   for (uint16_t i = 0; i < rect_height; ++i)
 2650              		.loc 1 573 0 is_stmt 0 discriminator 1
 2651 0028 AC42     		cmp	r4, r5
 2652 002a F3D3     		bcc	.L197
 2653              	.LBE13:
 576:libs/ili9341/ili9341.c ****   }
 577:libs/ili9341/ili9341.c **** }
 2654              		.loc 1 577 0 is_stmt 1
 2655 002c BDE8F883 		pop	{r3, r4, r5, r6, r7, r8, r9, pc}
 2656              		.cfi_endproc
 2657              	.LFE192:
 2659              		.section	.text.lcd_clear_all,"ax",%progbits
 2660              		.align	1
 2661              		.global	lcd_clear_all
 2662              		.syntax unified
 2663              		.thumb
 2664              		.thumb_func
 2665              		.fpu fpv4-sp-d16
 2667              	lcd_clear_all:
 2668              	.LFB193:
 578:libs/ili9341/ili9341.c **** 
 579:libs/ili9341/ili9341.c **** /**
 580:libs/ili9341/ili9341.c **** 	* @brief Clear the entire screen and fill with color.
 581:libs/ili9341/ili9341.c **** 	*/
 582:libs/ili9341/ili9341.c **** void lcd_clear_all(uint16_t fill_color)                   
ARM GAS  /tmp/ccKKwcYH.s 			page 56


 583:libs/ili9341/ili9341.c **** { 
 2669              		.loc 1 583 0
 2670              		.cfi_startproc
 2671              		@ args = 0, pretend = 0, frame = 0
 2672              		@ frame_needed = 0, uses_anonymous_args = 0
 2673              	.LVL225:
 2674 0000 70B5     		push	{r4, r5, r6, lr}
 2675              	.LCFI68:
 2676              		.cfi_def_cfa_offset 16
 2677              		.cfi_offset 4, -16
 2678              		.cfi_offset 5, -12
 2679              		.cfi_offset 6, -8
 2680              		.cfi_offset 14, -4
 2681 0002 0546     		mov	r5, r0
 2682              	.LVL226:
 584:libs/ili9341/ili9341.c **** 	uint16_t start_coordinate_x = 0;
 585:libs/ili9341/ili9341.c **** 	uint16_t start_coordinate_y = 0;
 586:libs/ili9341/ili9341.c **** 	uint16_t end_coordinate_x = TFT_PIXEL_H_LENGTH - 1;
 587:libs/ili9341/ili9341.c **** 	uint16_t end_coordinate_y = TFT_PIXEL_V_WIDTH - 1;
 588:libs/ili9341/ili9341.c **** 
 589:libs/ili9341/ili9341.c ****   ili9341_set_frame_address(start_coordinate_x, start_coordinate_y, end_coordinate_x, end_coordinat
 2683              		.loc 1 589 0
 2684 0004 EF23     		movs	r3, #239
 2685 0006 40F23F12 		movw	r2, #319
 2686 000a 0021     		movs	r1, #0
 2687 000c 0846     		mov	r0, r1
 2688              	.LVL227:
 2689 000e FFF7FEFF 		bl	ili9341_set_frame_address
 2690              	.LVL228:
 2691              	.LBB14:
 590:libs/ili9341/ili9341.c ****   for(uint16_t i = 0; i < TFT_PIXEL_V_WIDTH; ++i)  
 2692              		.loc 1 590 0
 2693 0012 0026     		movs	r6, #0
 2694 0014 0CE0     		b	.L200
 2695              	.LVL229:
 2696              	.L201:
 2697              	.LBB15:
 591:libs/ili9341/ili9341.c ****     for(uint16_t m = 0; m < TFT_PIXEL_H_LENGTH; ++m) 
 592:libs/ili9341/ili9341.c ****     {
 593:libs/ili9341/ili9341.c **** 			/* Write color to fill. */
 594:libs/ili9341/ili9341.c ****       gpio_8080_write_data(fill_color>>8);
 2698              		.loc 1 594 0 discriminator 3
 2699 0016 280A     		lsrs	r0, r5, #8
 2700 0018 FFF7FEFF 		bl	gpio_8080_write_data
 2701              	.LVL230:
 595:libs/ili9341/ili9341.c ****       gpio_8080_write_data(fill_color);
 2702              		.loc 1 595 0 discriminator 3
 2703 001c E8B2     		uxtb	r0, r5
 2704 001e FFF7FEFF 		bl	gpio_8080_write_data
 2705              	.LVL231:
 591:libs/ili9341/ili9341.c ****     for(uint16_t m = 0; m < TFT_PIXEL_H_LENGTH; ++m) 
 2706              		.loc 1 591 0 discriminator 3
 2707 0022 0134     		adds	r4, r4, #1
 2708              	.LVL232:
 2709 0024 A4B2     		uxth	r4, r4
 2710              	.LVL233:
 2711              	.L202:
ARM GAS  /tmp/ccKKwcYH.s 			page 57


 591:libs/ili9341/ili9341.c ****     for(uint16_t m = 0; m < TFT_PIXEL_H_LENGTH; ++m) 
 2712              		.loc 1 591 0 is_stmt 0 discriminator 1
 2713 0026 B4F5A07F 		cmp	r4, #320
 2714 002a F4D3     		bcc	.L201
 2715              	.LBE15:
 590:libs/ili9341/ili9341.c ****   for(uint16_t i = 0; i < TFT_PIXEL_V_WIDTH; ++i)  
 2716              		.loc 1 590 0 is_stmt 1 discriminator 2
 2717 002c 0136     		adds	r6, r6, #1
 2718              	.LVL234:
 2719 002e B6B2     		uxth	r6, r6
 2720              	.LVL235:
 2721              	.L200:
 590:libs/ili9341/ili9341.c ****   for(uint16_t i = 0; i < TFT_PIXEL_V_WIDTH; ++i)  
 2722              		.loc 1 590 0 is_stmt 0 discriminator 1
 2723 0030 EF2E     		cmp	r6, #239
 2724 0032 01D8     		bhi	.L205
 2725 0034 0024     		movs	r4, #0
 2726 0036 F6E7     		b	.L202
 2727              	.L205:
 2728              	.LBE14:
 596:libs/ili9341/ili9341.c ****     }
 597:libs/ili9341/ili9341.c **** }
 2729              		.loc 1 597 0 is_stmt 1
 2730 0038 70BD     		pop	{r4, r5, r6, pc}
 2731              		.cfi_endproc
 2732              	.LFE193:
 2734              		.section	.text.lcd_draw_dot,"ax",%progbits
 2735              		.align	1
 2736              		.global	lcd_draw_dot
 2737              		.syntax unified
 2738              		.thumb
 2739              		.thumb_func
 2740              		.fpu fpv4-sp-d16
 2742              	lcd_draw_dot:
 2743              	.LFB194:
 598:libs/ili9341/ili9341.c **** 
 599:libs/ili9341/ili9341.c **** 
 600:libs/ili9341/ili9341.c **** void lcd_draw_dot(uint16_t start_coordinate_x, uint16_t start_coordinate_y, uint16_t dot_color) 
 601:libs/ili9341/ili9341.c **** {
 2744              		.loc 1 601 0
 2745              		.cfi_startproc
 2746              		@ args = 0, pretend = 0, frame = 0
 2747              		@ frame_needed = 0, uses_anonymous_args = 0
 2748              	.LVL236:
 2749 0000 10B5     		push	{r4, lr}
 2750              	.LCFI69:
 2751              		.cfi_def_cfa_offset 8
 2752              		.cfi_offset 4, -8
 2753              		.cfi_offset 14, -4
 2754 0002 1446     		mov	r4, r2
 602:libs/ili9341/ili9341.c **** 	uint16_t end_coordinate_x = start_coordinate_x + 1;
 2755              		.loc 1 602 0
 2756 0004 421C     		adds	r2, r0, #1
 2757              	.LVL237:
 603:libs/ili9341/ili9341.c **** 	uint16_t end_coordinate_y = start_coordinate_y + 1;
 2758              		.loc 1 603 0
 2759 0006 4B1C     		adds	r3, r1, #1
ARM GAS  /tmp/ccKKwcYH.s 			page 58


 2760              	.LVL238:
 604:libs/ili9341/ili9341.c ****   ili9341_set_frame_address(start_coordinate_x, start_coordinate_y, end_coordinate_x, end_coordinat
 2761              		.loc 1 604 0
 2762 0008 9BB2     		uxth	r3, r3
 2763 000a 92B2     		uxth	r2, r2
 2764 000c FFF7FEFF 		bl	ili9341_set_frame_address
 2765              	.LVL239:
 605:libs/ili9341/ili9341.c ****   gpio_8080_write_data(dot_color >> 8); 
 2766              		.loc 1 605 0
 2767 0010 200A     		lsrs	r0, r4, #8
 2768 0012 FFF7FEFF 		bl	gpio_8080_write_data
 2769              	.LVL240:
 606:libs/ili9341/ili9341.c ****   gpio_8080_write_data(dot_color);      
 2770              		.loc 1 606 0
 2771 0016 E0B2     		uxtb	r0, r4
 2772 0018 FFF7FEFF 		bl	gpio_8080_write_data
 2773              	.LVL241:
 2774 001c 10BD     		pop	{r4, pc}
 2775              		.cfi_endproc
 2776              	.LFE194:
 2778              		.section	.text.lcd_plot_char,"ax",%progbits
 2779              		.align	1
 2780              		.global	lcd_plot_char
 2781              		.syntax unified
 2782              		.thumb
 2783              		.thumb_func
 2784              		.fpu fpv4-sp-d16
 2786              	lcd_plot_char:
 2787              	.LFB195:
 607:libs/ili9341/ili9341.c **** }
 608:libs/ili9341/ili9341.c **** 
 609:libs/ili9341/ili9341.c **** 
 610:libs/ili9341/ili9341.c **** void lcd_plot_char(int16_t x, int16_t y, unsigned char c,uint16_t color, uint16_t bg, uint8_t size)
 611:libs/ili9341/ili9341.c **** {
 2788              		.loc 1 611 0
 2789              		.cfi_startproc
 2790              		@ args = 8, pretend = 0, frame = 8
 2791              		@ frame_needed = 0, uses_anonymous_args = 0
 2792              	.LVL242:
 2793 0000 2DE9F04F 		push	{r4, r5, r6, r7, r8, r9, r10, fp, lr}
 2794              	.LCFI70:
 2795              		.cfi_def_cfa_offset 36
 2796              		.cfi_offset 4, -36
 2797              		.cfi_offset 5, -32
 2798              		.cfi_offset 6, -28
 2799              		.cfi_offset 7, -24
 2800              		.cfi_offset 8, -20
 2801              		.cfi_offset 9, -16
 2802              		.cfi_offset 10, -12
 2803              		.cfi_offset 11, -8
 2804              		.cfi_offset 14, -4
 2805 0004 83B0     		sub	sp, sp, #12
 2806              	.LCFI71:
 2807              		.cfi_def_cfa_offset 48
 2808 0006 8346     		mov	fp, r0
 2809 0008 0191     		str	r1, [sp, #4]
 2810 000a 9246     		mov	r10, r2
ARM GAS  /tmp/ccKKwcYH.s 			page 59


 2811 000c 9846     		mov	r8, r3
 2812 000e BDF83090 		ldrh	r9, [sp, #48]
 2813 0012 9DF83470 		ldrb	r7, [sp, #52]	@ zero_extendqisi2
 2814              	.LVL243:
 2815              	.LBB16:
 612:libs/ili9341/ili9341.c **** 
 613:libs/ili9341/ili9341.c ****  
 614:libs/ili9341/ili9341.c **** 	for (int8_t i=0; i<6; i++ )
 2816              		.loc 1 614 0
 2817 0016 0026     		movs	r6, #0
 2818 0018 25E0     		b	.L209
 2819              	.LVL244:
 2820              	.L216:
 2821              	.LBB17:
 615:libs/ili9341/ili9341.c **** 	{
 616:libs/ili9341/ili9341.c **** 		uint8_t line;
 617:libs/ili9341/ili9341.c **** 
 618:libs/ili9341/ili9341.c **** 		if (i == 5)
 619:libs/ili9341/ili9341.c **** 		{
 620:libs/ili9341/ili9341.c **** 			line = 0x0;
 2822              		.loc 1 620 0
 2823 001a 0025     		movs	r5, #0
 2824 001c 2CE0     		b	.L210
 2825              	.LVL245:
 2826              	.L212:
 2827              	.LBB18:
 621:libs/ili9341/ili9341.c **** 		}
 622:libs/ili9341/ili9341.c **** 		else 
 623:libs/ili9341/ili9341.c **** 		{
 624:libs/ili9341/ili9341.c **** 			line = *((uint8_t*)(font+(c*5)+i));
 625:libs/ili9341/ili9341.c **** 		}
 626:libs/ili9341/ili9341.c **** 
 627:libs/ili9341/ili9341.c **** 		for (int8_t j = 0; j<8; j++)
 628:libs/ili9341/ili9341.c **** 		{
 629:libs/ili9341/ili9341.c **** 			if (line & 0x1)
 630:libs/ili9341/ili9341.c **** 			{
 631:libs/ili9341/ili9341.c **** 				if (size == 1) // default size
 632:libs/ili9341/ili9341.c **** 				{
 633:libs/ili9341/ili9341.c **** 					lcd_draw_dot(x+i, y+j, color);
 634:libs/ili9341/ili9341.c **** 				}
 635:libs/ili9341/ili9341.c **** 				else {  // big size
 636:libs/ili9341/ili9341.c **** 					// ili9341_plot_color_block(x+(i*size), y+(j*size), size, size, color);
 637:libs/ili9341/ili9341.c **** 				} 
 638:libs/ili9341/ili9341.c **** 			} else if (bg != color)
 2828              		.loc 1 638 0
 2829 001e C845     		cmp	r8, r9
 2830 0020 01D0     		beq	.L213
 639:libs/ili9341/ili9341.c **** 			{
 640:libs/ili9341/ili9341.c **** 				if (size == 1) // default size
 2831              		.loc 1 640 0
 2832 0022 012F     		cmp	r7, #1
 2833 0024 13D0     		beq	.L218
 2834              	.L213:
 641:libs/ili9341/ili9341.c **** 				{
 642:libs/ili9341/ili9341.c **** 					lcd_draw_dot(x+i, y+j, bg);
 643:libs/ili9341/ili9341.c **** 				}
 644:libs/ili9341/ili9341.c **** 				else 
ARM GAS  /tmp/ccKKwcYH.s 			page 60


 645:libs/ili9341/ili9341.c **** 				{  // big size
 646:libs/ili9341/ili9341.c **** 					//ili9341_plot_color_block(x+i*size, y+j*size, size, size, bg);
 647:libs/ili9341/ili9341.c **** 				}
 648:libs/ili9341/ili9341.c **** 			}
 649:libs/ili9341/ili9341.c **** 
 650:libs/ili9341/ili9341.c **** 			line >>= 1;
 2835              		.loc 1 650 0 discriminator 2
 2836 0026 6D08     		lsrs	r5, r5, #1
 2837              	.LVL246:
 627:libs/ili9341/ili9341.c **** 		{
 2838              		.loc 1 627 0 discriminator 2
 2839 0028 0134     		adds	r4, r4, #1
 2840              	.LVL247:
 2841 002a 64B2     		sxtb	r4, r4
 2842              	.LVL248:
 2843              	.L211:
 627:libs/ili9341/ili9341.c **** 		{
 2844              		.loc 1 627 0 is_stmt 0 discriminator 1
 2845 002c 072C     		cmp	r4, #7
 2846 002e 18DC     		bgt	.L219
 629:libs/ili9341/ili9341.c **** 			{
 2847              		.loc 1 629 0 is_stmt 1
 2848 0030 15F0010F 		tst	r5, #1
 2849 0034 F3D0     		beq	.L212
 631:libs/ili9341/ili9341.c **** 				{
 2850              		.loc 1 631 0
 2851 0036 012F     		cmp	r7, #1
 2852 0038 F5D1     		bne	.L213
 633:libs/ili9341/ili9341.c **** 				}
 2853              		.loc 1 633 0
 2854 003a 019B     		ldr	r3, [sp, #4]
 2855 003c E118     		adds	r1, r4, r3
 2856 003e 06EB0B00 		add	r0, r6, fp
 2857 0042 4246     		mov	r2, r8
 2858 0044 89B2     		uxth	r1, r1
 2859 0046 80B2     		uxth	r0, r0
 2860 0048 FFF7FEFF 		bl	lcd_draw_dot
 2861              	.LVL249:
 2862 004c EBE7     		b	.L213
 2863              	.L218:
 642:libs/ili9341/ili9341.c **** 				}
 2864              		.loc 1 642 0
 2865 004e 019B     		ldr	r3, [sp, #4]
 2866 0050 E118     		adds	r1, r4, r3
 2867 0052 06EB0B00 		add	r0, r6, fp
 2868 0056 4A46     		mov	r2, r9
 2869 0058 89B2     		uxth	r1, r1
 2870 005a 80B2     		uxth	r0, r0
 2871 005c FFF7FEFF 		bl	lcd_draw_dot
 2872              	.LVL250:
 2873 0060 E1E7     		b	.L213
 2874              	.L219:
 2875              	.LBE18:
 2876              	.LBE17:
 614:libs/ili9341/ili9341.c **** 	{
 2877              		.loc 1 614 0 discriminator 2
 2878 0062 0136     		adds	r6, r6, #1
ARM GAS  /tmp/ccKKwcYH.s 			page 61


 2879              	.LVL251:
 2880 0064 76B2     		sxtb	r6, r6
 2881              	.LVL252:
 2882              	.L209:
 614:libs/ili9341/ili9341.c **** 	{
 2883              		.loc 1 614 0 is_stmt 0 discriminator 1
 2884 0066 052E     		cmp	r6, #5
 2885 0068 08DC     		bgt	.L220
 2886              	.LBB19:
 618:libs/ili9341/ili9341.c **** 		{
 2887              		.loc 1 618 0 is_stmt 1
 2888 006a 052E     		cmp	r6, #5
 2889 006c D5D0     		beq	.L216
 624:libs/ili9341/ili9341.c **** 		}
 2890              		.loc 1 624 0
 2891 006e 0AEB8A03 		add	r3, r10, r10, lsl #2
 2892 0072 3344     		add	r3, r3, r6
 2893 0074 034A     		ldr	r2, .L221
 2894 0076 D55C     		ldrb	r5, [r2, r3]	@ zero_extendqisi2
 2895              	.LVL253:
 2896              	.L210:
 620:libs/ili9341/ili9341.c **** 		}
 2897              		.loc 1 620 0 discriminator 1
 2898 0078 0024     		movs	r4, #0
 2899 007a D7E7     		b	.L211
 2900              	.L220:
 2901              	.LBE19:
 2902              	.LBE16:
 651:libs/ili9341/ili9341.c **** 		}
 652:libs/ili9341/ili9341.c **** 	}
 653:libs/ili9341/ili9341.c **** }
 2903              		.loc 1 653 0
 2904 007c 03B0     		add	sp, sp, #12
 2905              	.LCFI72:
 2906              		.cfi_def_cfa_offset 36
 2907              		@ sp needed
 2908 007e BDE8F08F 		pop	{r4, r5, r6, r7, r8, r9, r10, fp, pc}
 2909              	.LVL254:
 2910              	.L222:
 2911 0082 00BF     		.align	2
 2912              	.L221:
 2913 0084 00000000 		.word	.LANCHOR0
 2914              		.cfi_endproc
 2915              	.LFE195:
 2917              		.section	.text.lcd_set_rotation,"ax",%progbits
 2918              		.align	1
 2919              		.global	lcd_set_rotation
 2920              		.syntax unified
 2921              		.thumb
 2922              		.thumb_func
 2923              		.fpu fpv4-sp-d16
 2925              	lcd_set_rotation:
 2926              	.LFB196:
 654:libs/ili9341/ili9341.c **** 
 655:libs/ili9341/ili9341.c **** void lcd_set_rotation(uint8_t orientation) 
 656:libs/ili9341/ili9341.c **** {
 2927              		.loc 1 656 0
ARM GAS  /tmp/ccKKwcYH.s 			page 62


 2928              		.cfi_startproc
 2929              		@ args = 0, pretend = 0, frame = 0
 2930              		@ frame_needed = 0, uses_anonymous_args = 0
 2931              	.LVL255:
 2932 0000 10B5     		push	{r4, lr}
 2933              	.LCFI73:
 2934              		.cfi_def_cfa_offset 8
 2935              		.cfi_offset 4, -8
 2936              		.cfi_offset 14, -4
 2937 0002 0446     		mov	r4, r0
 657:libs/ili9341/ili9341.c **** 
 658:libs/ili9341/ili9341.c ****   gpio_8080_write_command(0x36);    
 2938              		.loc 1 658 0
 2939 0004 3620     		movs	r0, #54
 2940              	.LVL256:
 2941 0006 FFF7FEFF 		bl	gpio_8080_write_command
 2942              	.LVL257:
 659:libs/ili9341/ili9341.c **** 
 660:libs/ili9341/ili9341.c **** 	switch (orientation) 
 2943              		.loc 1 660 0
 2944 000a 032C     		cmp	r4, #3
 2945 000c 12D8     		bhi	.L223
 2946 000e DFE804F0 		tbb	[pc, r4]
 2947              	.L226:
 2948 0012 02       		.byte	(.L225-.L226)/2
 2949 0013 06       		.byte	(.L227-.L226)/2
 2950 0014 0A       		.byte	(.L228-.L226)/2
 2951 0015 0E       		.byte	(.L229-.L226)/2
 2952              		.p2align 1
 2953              	.L225:
 661:libs/ili9341/ili9341.c **** 	{
 662:libs/ili9341/ili9341.c **** 		case 0:
 663:libs/ili9341/ili9341.c **** 			gpio_8080_write_data(0x40|0x08);
 2954              		.loc 1 663 0
 2955 0016 4820     		movs	r0, #72
 2956 0018 FFF7FEFF 		bl	gpio_8080_write_data
 2957              	.LVL258:
 664:libs/ili9341/ili9341.c **** 			break;
 2958              		.loc 1 664 0
 2959 001c 10BD     		pop	{r4, pc}
 2960              	.L227:
 665:libs/ili9341/ili9341.c **** 		case 1:
 666:libs/ili9341/ili9341.c **** 			gpio_8080_write_data(0x20|0x08);
 2961              		.loc 1 666 0
 2962 001e 2820     		movs	r0, #40
 2963 0020 FFF7FEFF 		bl	gpio_8080_write_data
 2964              	.LVL259:
 667:libs/ili9341/ili9341.c **** 			break;
 2965              		.loc 1 667 0
 2966 0024 10BD     		pop	{r4, pc}
 2967              	.L228:
 668:libs/ili9341/ili9341.c **** 		case 2:
 669:libs/ili9341/ili9341.c **** 			gpio_8080_write_data(0x80|0x08);
 2968              		.loc 1 669 0
 2969 0026 8820     		movs	r0, #136
 2970 0028 FFF7FEFF 		bl	gpio_8080_write_data
 2971              	.LVL260:
ARM GAS  /tmp/ccKKwcYH.s 			page 63


 670:libs/ili9341/ili9341.c **** 			break;
 2972              		.loc 1 670 0
 2973 002c 10BD     		pop	{r4, pc}
 2974              	.L229:
 671:libs/ili9341/ili9341.c **** 		case 3:
 672:libs/ili9341/ili9341.c **** 			gpio_8080_write_data(0x40|0x80|0x20|0x08);
 2975              		.loc 1 672 0
 2976 002e E820     		movs	r0, #232
 2977 0030 FFF7FEFF 		bl	gpio_8080_write_data
 2978              	.LVL261:
 2979              	.L223:
 2980 0034 10BD     		pop	{r4, pc}
 2981              		.cfi_endproc
 2982              	.LFE196:
 2984              		.section	.text.lcd_write_message,"ax",%progbits
 2985              		.align	1
 2986              		.global	lcd_write_message
 2987              		.syntax unified
 2988              		.thumb
 2989              		.thumb_func
 2990              		.fpu fpv4-sp-d16
 2992              	lcd_write_message:
 2993              	.LFB197:
 673:libs/ili9341/ili9341.c **** 			break;
 674:libs/ili9341/ili9341.c **** 	}
 675:libs/ili9341/ili9341.c **** }
 676:libs/ili9341/ili9341.c **** 
 677:libs/ili9341/ili9341.c **** 
 678:libs/ili9341/ili9341.c **** void lcd_write_message(char* message, uint16_t start_coordinate_x, uint16_t start_coordinate_y, uin
 2994              		.loc 1 678 0
 2995              		.cfi_startproc
 2996              		@ args = 8, pretend = 0, frame = 0
 2997              		@ frame_needed = 0, uses_anonymous_args = 0
 2998              	.LVL262:
 2999 0000 2DE9F043 		push	{r4, r5, r6, r7, r8, r9, lr}
 3000              	.LCFI74:
 3001              		.cfi_def_cfa_offset 28
 3002              		.cfi_offset 4, -28
 3003              		.cfi_offset 5, -24
 3004              		.cfi_offset 6, -20
 3005              		.cfi_offset 7, -16
 3006              		.cfi_offset 8, -12
 3007              		.cfi_offset 9, -8
 3008              		.cfi_offset 14, -4
 3009 0004 83B0     		sub	sp, sp, #12
 3010              	.LCFI75:
 3011              		.cfi_def_cfa_offset 40
 3012 0006 0646     		mov	r6, r0
 3013 0008 0D46     		mov	r5, r1
 3014 000a 9146     		mov	r9, r2
 3015 000c BDF82880 		ldrh	r8, [sp, #40]
 3016 0010 BDF82C70 		ldrh	r7, [sp, #44]
 3017              	.LVL263:
 3018              	.LBB20:
 679:libs/ili9341/ili9341.c **** 	for(uint8_t i = 0; i< strlen(message); i++){
 3019              		.loc 1 679 0
 3020 0014 0024     		movs	r4, #0
ARM GAS  /tmp/ccKKwcYH.s 			page 64


 3021 0016 0DE0     		b	.L232
 3022              	.LVL264:
 3023              	.L233:
 3024              	.LBB21:
 680:libs/ili9341/ili9341.c **** 		char single_char = message[i];
 3025              		.loc 1 680 0 discriminator 3
 3026 0018 325D     		ldrb	r2, [r6, r4]	@ zero_extendqisi2
 3027              	.LVL265:
 681:libs/ili9341/ili9341.c **** 		lcd_plot_char(start_coordinate_x, start_coordinate_y, single_char, text_color, text_bg_color, 1);
 3028              		.loc 1 681 0 discriminator 3
 3029 001a 0123     		movs	r3, #1
 3030 001c 0193     		str	r3, [sp, #4]
 3031 001e 0097     		str	r7, [sp]
 3032 0020 4346     		mov	r3, r8
 3033 0022 0FFA89F1 		sxth	r1, r9
 3034 0026 28B2     		sxth	r0, r5
 3035 0028 FFF7FEFF 		bl	lcd_plot_char
 3036              	.LVL266:
 682:libs/ili9341/ili9341.c **** 		start_coordinate_x += 6;
 3037              		.loc 1 682 0 discriminator 3
 3038 002c 0635     		adds	r5, r5, #6
 3039              	.LVL267:
 3040 002e ADB2     		uxth	r5, r5
 3041              	.LVL268:
 3042              	.LBE21:
 679:libs/ili9341/ili9341.c **** 		char single_char = message[i];
 3043              		.loc 1 679 0 discriminator 3
 3044 0030 0134     		adds	r4, r4, #1
 3045              	.LVL269:
 3046 0032 E4B2     		uxtb	r4, r4
 3047              	.LVL270:
 3048              	.L232:
 679:libs/ili9341/ili9341.c **** 		char single_char = message[i];
 3049              		.loc 1 679 0 is_stmt 0 discriminator 1
 3050 0034 3046     		mov	r0, r6
 3051 0036 FFF7FEFF 		bl	strlen
 3052              	.LVL271:
 3053 003a 8442     		cmp	r4, r0
 3054 003c ECD3     		bcc	.L233
 3055              	.LBE20:
 683:libs/ili9341/ili9341.c **** 	}
 684:libs/ili9341/ili9341.c **** }
 3056              		.loc 1 684 0 is_stmt 1
 3057 003e 03B0     		add	sp, sp, #12
 3058              	.LCFI76:
 3059              		.cfi_def_cfa_offset 28
 3060              		@ sp needed
 3061 0040 BDE8F083 		pop	{r4, r5, r6, r7, r8, r9, pc}
 3062              		.cfi_endproc
 3063              	.LFE197:
 3065              		.section	.rodata.font,"a",%progbits
 3066              		.align	2
 3067              		.set	.LANCHOR0,. + 0
 3070              	font:
 3071 0000 00       		.byte	0
 3072 0001 00       		.byte	0
 3073 0002 00       		.byte	0
ARM GAS  /tmp/ccKKwcYH.s 			page 65


 3074 0003 00       		.byte	0
 3075 0004 00       		.byte	0
 3076 0005 3E       		.byte	62
 3077 0006 5B       		.byte	91
 3078 0007 4F       		.byte	79
 3079 0008 5B       		.byte	91
 3080 0009 3E       		.byte	62
 3081 000a 3E       		.byte	62
 3082 000b 6B       		.byte	107
 3083 000c 4F       		.byte	79
 3084 000d 6B       		.byte	107
 3085 000e 3E       		.byte	62
 3086 000f 1C       		.byte	28
 3087 0010 3E       		.byte	62
 3088 0011 7C       		.byte	124
 3089 0012 3E       		.byte	62
 3090 0013 1C       		.byte	28
 3091 0014 18       		.byte	24
 3092 0015 3C       		.byte	60
 3093 0016 7E       		.byte	126
 3094 0017 3C       		.byte	60
 3095 0018 18       		.byte	24
 3096 0019 1C       		.byte	28
 3097 001a 57       		.byte	87
 3098 001b 7D       		.byte	125
 3099 001c 57       		.byte	87
 3100 001d 1C       		.byte	28
 3101 001e 1C       		.byte	28
 3102 001f 5E       		.byte	94
 3103 0020 7F       		.byte	127
 3104 0021 5E       		.byte	94
 3105 0022 1C       		.byte	28
 3106 0023 00       		.byte	0
 3107 0024 18       		.byte	24
 3108 0025 3C       		.byte	60
 3109 0026 18       		.byte	24
 3110 0027 00       		.byte	0
 3111 0028 FF       		.byte	-1
 3112 0029 E7       		.byte	-25
 3113 002a C3       		.byte	-61
 3114 002b E7       		.byte	-25
 3115 002c FF       		.byte	-1
 3116 002d 00       		.byte	0
 3117 002e 18       		.byte	24
 3118 002f 24       		.byte	36
 3119 0030 18       		.byte	24
 3120 0031 00       		.byte	0
 3121 0032 FF       		.byte	-1
 3122 0033 E7       		.byte	-25
 3123 0034 DB       		.byte	-37
 3124 0035 E7       		.byte	-25
 3125 0036 FF       		.byte	-1
 3126 0037 30       		.byte	48
 3127 0038 48       		.byte	72
 3128 0039 3A       		.byte	58
 3129 003a 06       		.byte	6
 3130 003b 0E       		.byte	14
ARM GAS  /tmp/ccKKwcYH.s 			page 66


 3131 003c 26       		.byte	38
 3132 003d 29       		.byte	41
 3133 003e 79       		.byte	121
 3134 003f 29       		.byte	41
 3135 0040 26       		.byte	38
 3136 0041 40       		.byte	64
 3137 0042 7F       		.byte	127
 3138 0043 05       		.byte	5
 3139 0044 05       		.byte	5
 3140 0045 07       		.byte	7
 3141 0046 40       		.byte	64
 3142 0047 7F       		.byte	127
 3143 0048 05       		.byte	5
 3144 0049 25       		.byte	37
 3145 004a 3F       		.byte	63
 3146 004b 5A       		.byte	90
 3147 004c 3C       		.byte	60
 3148 004d E7       		.byte	-25
 3149 004e 3C       		.byte	60
 3150 004f 5A       		.byte	90
 3151 0050 7F       		.byte	127
 3152 0051 3E       		.byte	62
 3153 0052 1C       		.byte	28
 3154 0053 1C       		.byte	28
 3155 0054 08       		.byte	8
 3156 0055 08       		.byte	8
 3157 0056 1C       		.byte	28
 3158 0057 1C       		.byte	28
 3159 0058 3E       		.byte	62
 3160 0059 7F       		.byte	127
 3161 005a 14       		.byte	20
 3162 005b 22       		.byte	34
 3163 005c 7F       		.byte	127
 3164 005d 22       		.byte	34
 3165 005e 14       		.byte	20
 3166 005f 5F       		.byte	95
 3167 0060 5F       		.byte	95
 3168 0061 00       		.byte	0
 3169 0062 5F       		.byte	95
 3170 0063 5F       		.byte	95
 3171 0064 06       		.byte	6
 3172 0065 09       		.byte	9
 3173 0066 7F       		.byte	127
 3174 0067 01       		.byte	1
 3175 0068 7F       		.byte	127
 3176 0069 00       		.byte	0
 3177 006a 66       		.byte	102
 3178 006b 89       		.byte	-119
 3179 006c 95       		.byte	-107
 3180 006d 6A       		.byte	106
 3181 006e 60       		.byte	96
 3182 006f 60       		.byte	96
 3183 0070 60       		.byte	96
 3184 0071 60       		.byte	96
 3185 0072 60       		.byte	96
 3186 0073 94       		.byte	-108
 3187 0074 A2       		.byte	-94
ARM GAS  /tmp/ccKKwcYH.s 			page 67


 3188 0075 FF       		.byte	-1
 3189 0076 A2       		.byte	-94
 3190 0077 94       		.byte	-108
 3191 0078 08       		.byte	8
 3192 0079 04       		.byte	4
 3193 007a 7E       		.byte	126
 3194 007b 04       		.byte	4
 3195 007c 08       		.byte	8
 3196 007d 10       		.byte	16
 3197 007e 20       		.byte	32
 3198 007f 7E       		.byte	126
 3199 0080 20       		.byte	32
 3200 0081 10       		.byte	16
 3201 0082 08       		.byte	8
 3202 0083 08       		.byte	8
 3203 0084 2A       		.byte	42
 3204 0085 1C       		.byte	28
 3205 0086 08       		.byte	8
 3206 0087 08       		.byte	8
 3207 0088 1C       		.byte	28
 3208 0089 2A       		.byte	42
 3209 008a 08       		.byte	8
 3210 008b 08       		.byte	8
 3211 008c 1E       		.byte	30
 3212 008d 10       		.byte	16
 3213 008e 10       		.byte	16
 3214 008f 10       		.byte	16
 3215 0090 10       		.byte	16
 3216 0091 0C       		.byte	12
 3217 0092 1E       		.byte	30
 3218 0093 0C       		.byte	12
 3219 0094 1E       		.byte	30
 3220 0095 0C       		.byte	12
 3221 0096 30       		.byte	48
 3222 0097 38       		.byte	56
 3223 0098 3E       		.byte	62
 3224 0099 38       		.byte	56
 3225 009a 30       		.byte	48
 3226 009b 06       		.byte	6
 3227 009c 0E       		.byte	14
 3228 009d 3E       		.byte	62
 3229 009e 0E       		.byte	14
 3230 009f 06       		.byte	6
 3231 00a0 00       		.byte	0
 3232 00a1 00       		.byte	0
 3233 00a2 00       		.byte	0
 3234 00a3 00       		.byte	0
 3235 00a4 00       		.byte	0
 3236 00a5 00       		.byte	0
 3237 00a6 00       		.byte	0
 3238 00a7 5F       		.byte	95
 3239 00a8 00       		.byte	0
 3240 00a9 00       		.byte	0
 3241 00aa 00       		.byte	0
 3242 00ab 07       		.byte	7
 3243 00ac 00       		.byte	0
 3244 00ad 07       		.byte	7
ARM GAS  /tmp/ccKKwcYH.s 			page 68


 3245 00ae 00       		.byte	0
 3246 00af 14       		.byte	20
 3247 00b0 7F       		.byte	127
 3248 00b1 14       		.byte	20
 3249 00b2 7F       		.byte	127
 3250 00b3 14       		.byte	20
 3251 00b4 24       		.byte	36
 3252 00b5 2A       		.byte	42
 3253 00b6 7F       		.byte	127
 3254 00b7 2A       		.byte	42
 3255 00b8 12       		.byte	18
 3256 00b9 23       		.byte	35
 3257 00ba 13       		.byte	19
 3258 00bb 08       		.byte	8
 3259 00bc 64       		.byte	100
 3260 00bd 62       		.byte	98
 3261 00be 36       		.byte	54
 3262 00bf 49       		.byte	73
 3263 00c0 56       		.byte	86
 3264 00c1 20       		.byte	32
 3265 00c2 50       		.byte	80
 3266 00c3 00       		.byte	0
 3267 00c4 08       		.byte	8
 3268 00c5 07       		.byte	7
 3269 00c6 03       		.byte	3
 3270 00c7 00       		.byte	0
 3271 00c8 00       		.byte	0
 3272 00c9 1C       		.byte	28
 3273 00ca 22       		.byte	34
 3274 00cb 41       		.byte	65
 3275 00cc 00       		.byte	0
 3276 00cd 00       		.byte	0
 3277 00ce 41       		.byte	65
 3278 00cf 22       		.byte	34
 3279 00d0 1C       		.byte	28
 3280 00d1 00       		.byte	0
 3281 00d2 2A       		.byte	42
 3282 00d3 1C       		.byte	28
 3283 00d4 7F       		.byte	127
 3284 00d5 1C       		.byte	28
 3285 00d6 2A       		.byte	42
 3286 00d7 08       		.byte	8
 3287 00d8 08       		.byte	8
 3288 00d9 3E       		.byte	62
 3289 00da 08       		.byte	8
 3290 00db 08       		.byte	8
 3291 00dc 00       		.byte	0
 3292 00dd 80       		.byte	-128
 3293 00de 70       		.byte	112
 3294 00df 30       		.byte	48
 3295 00e0 00       		.byte	0
 3296 00e1 08       		.byte	8
 3297 00e2 08       		.byte	8
 3298 00e3 08       		.byte	8
 3299 00e4 08       		.byte	8
 3300 00e5 08       		.byte	8
 3301 00e6 00       		.byte	0
ARM GAS  /tmp/ccKKwcYH.s 			page 69


 3302 00e7 00       		.byte	0
 3303 00e8 60       		.byte	96
 3304 00e9 60       		.byte	96
 3305 00ea 00       		.byte	0
 3306 00eb 20       		.byte	32
 3307 00ec 10       		.byte	16
 3308 00ed 08       		.byte	8
 3309 00ee 04       		.byte	4
 3310 00ef 02       		.byte	2
 3311 00f0 3E       		.byte	62
 3312 00f1 51       		.byte	81
 3313 00f2 49       		.byte	73
 3314 00f3 45       		.byte	69
 3315 00f4 3E       		.byte	62
 3316 00f5 00       		.byte	0
 3317 00f6 42       		.byte	66
 3318 00f7 7F       		.byte	127
 3319 00f8 40       		.byte	64
 3320 00f9 00       		.byte	0
 3321 00fa 72       		.byte	114
 3322 00fb 49       		.byte	73
 3323 00fc 49       		.byte	73
 3324 00fd 49       		.byte	73
 3325 00fe 46       		.byte	70
 3326 00ff 21       		.byte	33
 3327 0100 41       		.byte	65
 3328 0101 49       		.byte	73
 3329 0102 4D       		.byte	77
 3330 0103 33       		.byte	51
 3331 0104 18       		.byte	24
 3332 0105 14       		.byte	20
 3333 0106 12       		.byte	18
 3334 0107 7F       		.byte	127
 3335 0108 10       		.byte	16
 3336 0109 27       		.byte	39
 3337 010a 45       		.byte	69
 3338 010b 45       		.byte	69
 3339 010c 45       		.byte	69
 3340 010d 39       		.byte	57
 3341 010e 3C       		.byte	60
 3342 010f 4A       		.byte	74
 3343 0110 49       		.byte	73
 3344 0111 49       		.byte	73
 3345 0112 31       		.byte	49
 3346 0113 41       		.byte	65
 3347 0114 21       		.byte	33
 3348 0115 11       		.byte	17
 3349 0116 09       		.byte	9
 3350 0117 07       		.byte	7
 3351 0118 36       		.byte	54
 3352 0119 49       		.byte	73
 3353 011a 49       		.byte	73
 3354 011b 49       		.byte	73
 3355 011c 36       		.byte	54
 3356 011d 46       		.byte	70
 3357 011e 49       		.byte	73
 3358 011f 49       		.byte	73
ARM GAS  /tmp/ccKKwcYH.s 			page 70


 3359 0120 29       		.byte	41
 3360 0121 1E       		.byte	30
 3361 0122 00       		.byte	0
 3362 0123 00       		.byte	0
 3363 0124 14       		.byte	20
 3364 0125 00       		.byte	0
 3365 0126 00       		.byte	0
 3366 0127 00       		.byte	0
 3367 0128 40       		.byte	64
 3368 0129 34       		.byte	52
 3369 012a 00       		.byte	0
 3370 012b 00       		.byte	0
 3371 012c 00       		.byte	0
 3372 012d 08       		.byte	8
 3373 012e 14       		.byte	20
 3374 012f 22       		.byte	34
 3375 0130 41       		.byte	65
 3376 0131 14       		.byte	20
 3377 0132 14       		.byte	20
 3378 0133 14       		.byte	20
 3379 0134 14       		.byte	20
 3380 0135 14       		.byte	20
 3381 0136 00       		.byte	0
 3382 0137 41       		.byte	65
 3383 0138 22       		.byte	34
 3384 0139 14       		.byte	20
 3385 013a 08       		.byte	8
 3386 013b 02       		.byte	2
 3387 013c 01       		.byte	1
 3388 013d 59       		.byte	89
 3389 013e 09       		.byte	9
 3390 013f 06       		.byte	6
 3391 0140 3E       		.byte	62
 3392 0141 41       		.byte	65
 3393 0142 5D       		.byte	93
 3394 0143 59       		.byte	89
 3395 0144 4E       		.byte	78
 3396 0145 7C       		.byte	124
 3397 0146 12       		.byte	18
 3398 0147 11       		.byte	17
 3399 0148 12       		.byte	18
 3400 0149 7C       		.byte	124
 3401 014a 7F       		.byte	127
 3402 014b 49       		.byte	73
 3403 014c 49       		.byte	73
 3404 014d 49       		.byte	73
 3405 014e 36       		.byte	54
 3406 014f 3E       		.byte	62
 3407 0150 41       		.byte	65
 3408 0151 41       		.byte	65
 3409 0152 41       		.byte	65
 3410 0153 22       		.byte	34
 3411 0154 7F       		.byte	127
 3412 0155 41       		.byte	65
 3413 0156 41       		.byte	65
 3414 0157 41       		.byte	65
 3415 0158 3E       		.byte	62
ARM GAS  /tmp/ccKKwcYH.s 			page 71


 3416 0159 7F       		.byte	127
 3417 015a 49       		.byte	73
 3418 015b 49       		.byte	73
 3419 015c 49       		.byte	73
 3420 015d 41       		.byte	65
 3421 015e 7F       		.byte	127
 3422 015f 09       		.byte	9
 3423 0160 09       		.byte	9
 3424 0161 09       		.byte	9
 3425 0162 01       		.byte	1
 3426 0163 3E       		.byte	62
 3427 0164 41       		.byte	65
 3428 0165 41       		.byte	65
 3429 0166 51       		.byte	81
 3430 0167 73       		.byte	115
 3431 0168 7F       		.byte	127
 3432 0169 08       		.byte	8
 3433 016a 08       		.byte	8
 3434 016b 08       		.byte	8
 3435 016c 7F       		.byte	127
 3436 016d 00       		.byte	0
 3437 016e 41       		.byte	65
 3438 016f 7F       		.byte	127
 3439 0170 41       		.byte	65
 3440 0171 00       		.byte	0
 3441 0172 20       		.byte	32
 3442 0173 40       		.byte	64
 3443 0174 41       		.byte	65
 3444 0175 3F       		.byte	63
 3445 0176 01       		.byte	1
 3446 0177 7F       		.byte	127
 3447 0178 08       		.byte	8
 3448 0179 14       		.byte	20
 3449 017a 22       		.byte	34
 3450 017b 41       		.byte	65
 3451 017c 7F       		.byte	127
 3452 017d 40       		.byte	64
 3453 017e 40       		.byte	64
 3454 017f 40       		.byte	64
 3455 0180 40       		.byte	64
 3456 0181 7F       		.byte	127
 3457 0182 02       		.byte	2
 3458 0183 1C       		.byte	28
 3459 0184 02       		.byte	2
 3460 0185 7F       		.byte	127
 3461 0186 7F       		.byte	127
 3462 0187 04       		.byte	4
 3463 0188 08       		.byte	8
 3464 0189 10       		.byte	16
 3465 018a 7F       		.byte	127
 3466 018b 3E       		.byte	62
 3467 018c 41       		.byte	65
 3468 018d 41       		.byte	65
 3469 018e 41       		.byte	65
 3470 018f 3E       		.byte	62
 3471 0190 7F       		.byte	127
 3472 0191 09       		.byte	9
ARM GAS  /tmp/ccKKwcYH.s 			page 72


 3473 0192 09       		.byte	9
 3474 0193 09       		.byte	9
 3475 0194 06       		.byte	6
 3476 0195 3E       		.byte	62
 3477 0196 41       		.byte	65
 3478 0197 51       		.byte	81
 3479 0198 21       		.byte	33
 3480 0199 5E       		.byte	94
 3481 019a 7F       		.byte	127
 3482 019b 09       		.byte	9
 3483 019c 19       		.byte	25
 3484 019d 29       		.byte	41
 3485 019e 46       		.byte	70
 3486 019f 26       		.byte	38
 3487 01a0 49       		.byte	73
 3488 01a1 49       		.byte	73
 3489 01a2 49       		.byte	73
 3490 01a3 32       		.byte	50
 3491 01a4 03       		.byte	3
 3492 01a5 01       		.byte	1
 3493 01a6 7F       		.byte	127
 3494 01a7 01       		.byte	1
 3495 01a8 03       		.byte	3
 3496 01a9 3F       		.byte	63
 3497 01aa 40       		.byte	64
 3498 01ab 40       		.byte	64
 3499 01ac 40       		.byte	64
 3500 01ad 3F       		.byte	63
 3501 01ae 1F       		.byte	31
 3502 01af 20       		.byte	32
 3503 01b0 40       		.byte	64
 3504 01b1 20       		.byte	32
 3505 01b2 1F       		.byte	31
 3506 01b3 3F       		.byte	63
 3507 01b4 40       		.byte	64
 3508 01b5 38       		.byte	56
 3509 01b6 40       		.byte	64
 3510 01b7 3F       		.byte	63
 3511 01b8 63       		.byte	99
 3512 01b9 14       		.byte	20
 3513 01ba 08       		.byte	8
 3514 01bb 14       		.byte	20
 3515 01bc 63       		.byte	99
 3516 01bd 03       		.byte	3
 3517 01be 04       		.byte	4
 3518 01bf 78       		.byte	120
 3519 01c0 04       		.byte	4
 3520 01c1 03       		.byte	3
 3521 01c2 61       		.byte	97
 3522 01c3 59       		.byte	89
 3523 01c4 49       		.byte	73
 3524 01c5 4D       		.byte	77
 3525 01c6 43       		.byte	67
 3526 01c7 00       		.byte	0
 3527 01c8 7F       		.byte	127
 3528 01c9 41       		.byte	65
 3529 01ca 41       		.byte	65
ARM GAS  /tmp/ccKKwcYH.s 			page 73


 3530 01cb 41       		.byte	65
 3531 01cc 02       		.byte	2
 3532 01cd 04       		.byte	4
 3533 01ce 08       		.byte	8
 3534 01cf 10       		.byte	16
 3535 01d0 20       		.byte	32
 3536 01d1 00       		.byte	0
 3537 01d2 41       		.byte	65
 3538 01d3 41       		.byte	65
 3539 01d4 41       		.byte	65
 3540 01d5 7F       		.byte	127
 3541 01d6 04       		.byte	4
 3542 01d7 02       		.byte	2
 3543 01d8 01       		.byte	1
 3544 01d9 02       		.byte	2
 3545 01da 04       		.byte	4
 3546 01db 40       		.byte	64
 3547 01dc 40       		.byte	64
 3548 01dd 40       		.byte	64
 3549 01de 40       		.byte	64
 3550 01df 40       		.byte	64
 3551 01e0 00       		.byte	0
 3552 01e1 03       		.byte	3
 3553 01e2 07       		.byte	7
 3554 01e3 08       		.byte	8
 3555 01e4 00       		.byte	0
 3556 01e5 20       		.byte	32
 3557 01e6 54       		.byte	84
 3558 01e7 54       		.byte	84
 3559 01e8 78       		.byte	120
 3560 01e9 40       		.byte	64
 3561 01ea 7F       		.byte	127
 3562 01eb 28       		.byte	40
 3563 01ec 44       		.byte	68
 3564 01ed 44       		.byte	68
 3565 01ee 38       		.byte	56
 3566 01ef 38       		.byte	56
 3567 01f0 44       		.byte	68
 3568 01f1 44       		.byte	68
 3569 01f2 44       		.byte	68
 3570 01f3 28       		.byte	40
 3571 01f4 38       		.byte	56
 3572 01f5 44       		.byte	68
 3573 01f6 44       		.byte	68
 3574 01f7 28       		.byte	40
 3575 01f8 7F       		.byte	127
 3576 01f9 38       		.byte	56
 3577 01fa 54       		.byte	84
 3578 01fb 54       		.byte	84
 3579 01fc 54       		.byte	84
 3580 01fd 18       		.byte	24
 3581 01fe 00       		.byte	0
 3582 01ff 08       		.byte	8
 3583 0200 7E       		.byte	126
 3584 0201 09       		.byte	9
 3585 0202 02       		.byte	2
 3586 0203 18       		.byte	24
ARM GAS  /tmp/ccKKwcYH.s 			page 74


 3587 0204 A4       		.byte	-92
 3588 0205 A4       		.byte	-92
 3589 0206 9C       		.byte	-100
 3590 0207 78       		.byte	120
 3591 0208 7F       		.byte	127
 3592 0209 08       		.byte	8
 3593 020a 04       		.byte	4
 3594 020b 04       		.byte	4
 3595 020c 78       		.byte	120
 3596 020d 00       		.byte	0
 3597 020e 44       		.byte	68
 3598 020f 7D       		.byte	125
 3599 0210 40       		.byte	64
 3600 0211 00       		.byte	0
 3601 0212 20       		.byte	32
 3602 0213 40       		.byte	64
 3603 0214 40       		.byte	64
 3604 0215 3D       		.byte	61
 3605 0216 00       		.byte	0
 3606 0217 7F       		.byte	127
 3607 0218 10       		.byte	16
 3608 0219 28       		.byte	40
 3609 021a 44       		.byte	68
 3610 021b 00       		.byte	0
 3611 021c 00       		.byte	0
 3612 021d 41       		.byte	65
 3613 021e 7F       		.byte	127
 3614 021f 40       		.byte	64
 3615 0220 00       		.byte	0
 3616 0221 7C       		.byte	124
 3617 0222 04       		.byte	4
 3618 0223 78       		.byte	120
 3619 0224 04       		.byte	4
 3620 0225 78       		.byte	120
 3621 0226 7C       		.byte	124
 3622 0227 08       		.byte	8
 3623 0228 04       		.byte	4
 3624 0229 04       		.byte	4
 3625 022a 78       		.byte	120
 3626 022b 38       		.byte	56
 3627 022c 44       		.byte	68
 3628 022d 44       		.byte	68
 3629 022e 44       		.byte	68
 3630 022f 38       		.byte	56
 3631 0230 FC       		.byte	-4
 3632 0231 18       		.byte	24
 3633 0232 24       		.byte	36
 3634 0233 24       		.byte	36
 3635 0234 18       		.byte	24
 3636 0235 18       		.byte	24
 3637 0236 24       		.byte	36
 3638 0237 24       		.byte	36
 3639 0238 18       		.byte	24
 3640 0239 FC       		.byte	-4
 3641 023a 7C       		.byte	124
 3642 023b 08       		.byte	8
 3643 023c 04       		.byte	4
ARM GAS  /tmp/ccKKwcYH.s 			page 75


 3644 023d 04       		.byte	4
 3645 023e 08       		.byte	8
 3646 023f 48       		.byte	72
 3647 0240 54       		.byte	84
 3648 0241 54       		.byte	84
 3649 0242 54       		.byte	84
 3650 0243 24       		.byte	36
 3651 0244 04       		.byte	4
 3652 0245 04       		.byte	4
 3653 0246 3F       		.byte	63
 3654 0247 44       		.byte	68
 3655 0248 24       		.byte	36
 3656 0249 3C       		.byte	60
 3657 024a 40       		.byte	64
 3658 024b 40       		.byte	64
 3659 024c 20       		.byte	32
 3660 024d 7C       		.byte	124
 3661 024e 1C       		.byte	28
 3662 024f 20       		.byte	32
 3663 0250 40       		.byte	64
 3664 0251 20       		.byte	32
 3665 0252 1C       		.byte	28
 3666 0253 3C       		.byte	60
 3667 0254 40       		.byte	64
 3668 0255 30       		.byte	48
 3669 0256 40       		.byte	64
 3670 0257 3C       		.byte	60
 3671 0258 44       		.byte	68
 3672 0259 28       		.byte	40
 3673 025a 10       		.byte	16
 3674 025b 28       		.byte	40
 3675 025c 44       		.byte	68
 3676 025d 4C       		.byte	76
 3677 025e 90       		.byte	-112
 3678 025f 90       		.byte	-112
 3679 0260 90       		.byte	-112
 3680 0261 7C       		.byte	124
 3681 0262 44       		.byte	68
 3682 0263 64       		.byte	100
 3683 0264 54       		.byte	84
 3684 0265 4C       		.byte	76
 3685 0266 44       		.byte	68
 3686 0267 00       		.byte	0
 3687 0268 08       		.byte	8
 3688 0269 36       		.byte	54
 3689 026a 41       		.byte	65
 3690 026b 00       		.byte	0
 3691 026c 00       		.byte	0
 3692 026d 00       		.byte	0
 3693 026e 77       		.byte	119
 3694 026f 00       		.byte	0
 3695 0270 00       		.byte	0
 3696 0271 00       		.byte	0
 3697 0272 41       		.byte	65
 3698 0273 36       		.byte	54
 3699 0274 08       		.byte	8
 3700 0275 00       		.byte	0
ARM GAS  /tmp/ccKKwcYH.s 			page 76


 3701 0276 02       		.byte	2
 3702 0277 01       		.byte	1
 3703 0278 02       		.byte	2
 3704 0279 04       		.byte	4
 3705 027a 02       		.byte	2
 3706 027b 3C       		.byte	60
 3707 027c 26       		.byte	38
 3708 027d 23       		.byte	35
 3709 027e 26       		.byte	38
 3710 027f 3C       		.byte	60
 3711 0280 1E       		.byte	30
 3712 0281 A1       		.byte	-95
 3713 0282 A1       		.byte	-95
 3714 0283 61       		.byte	97
 3715 0284 12       		.byte	18
 3716 0285 3A       		.byte	58
 3717 0286 40       		.byte	64
 3718 0287 40       		.byte	64
 3719 0288 20       		.byte	32
 3720 0289 7A       		.byte	122
 3721 028a 38       		.byte	56
 3722 028b 54       		.byte	84
 3723 028c 54       		.byte	84
 3724 028d 55       		.byte	85
 3725 028e 59       		.byte	89
 3726 028f 21       		.byte	33
 3727 0290 55       		.byte	85
 3728 0291 55       		.byte	85
 3729 0292 79       		.byte	121
 3730 0293 41       		.byte	65
 3731 0294 22       		.byte	34
 3732 0295 54       		.byte	84
 3733 0296 54       		.byte	84
 3734 0297 78       		.byte	120
 3735 0298 42       		.byte	66
 3736 0299 21       		.byte	33
 3737 029a 55       		.byte	85
 3738 029b 54       		.byte	84
 3739 029c 78       		.byte	120
 3740 029d 40       		.byte	64
 3741 029e 20       		.byte	32
 3742 029f 54       		.byte	84
 3743 02a0 55       		.byte	85
 3744 02a1 79       		.byte	121
 3745 02a2 40       		.byte	64
 3746 02a3 0C       		.byte	12
 3747 02a4 1E       		.byte	30
 3748 02a5 52       		.byte	82
 3749 02a6 72       		.byte	114
 3750 02a7 12       		.byte	18
 3751 02a8 39       		.byte	57
 3752 02a9 55       		.byte	85
 3753 02aa 55       		.byte	85
 3754 02ab 55       		.byte	85
 3755 02ac 59       		.byte	89
 3756 02ad 39       		.byte	57
 3757 02ae 54       		.byte	84
ARM GAS  /tmp/ccKKwcYH.s 			page 77


 3758 02af 54       		.byte	84
 3759 02b0 54       		.byte	84
 3760 02b1 59       		.byte	89
 3761 02b2 39       		.byte	57
 3762 02b3 55       		.byte	85
 3763 02b4 54       		.byte	84
 3764 02b5 54       		.byte	84
 3765 02b6 58       		.byte	88
 3766 02b7 00       		.byte	0
 3767 02b8 00       		.byte	0
 3768 02b9 45       		.byte	69
 3769 02ba 7C       		.byte	124
 3770 02bb 41       		.byte	65
 3771 02bc 00       		.byte	0
 3772 02bd 02       		.byte	2
 3773 02be 45       		.byte	69
 3774 02bf 7D       		.byte	125
 3775 02c0 42       		.byte	66
 3776 02c1 00       		.byte	0
 3777 02c2 01       		.byte	1
 3778 02c3 45       		.byte	69
 3779 02c4 7C       		.byte	124
 3780 02c5 40       		.byte	64
 3781 02c6 7D       		.byte	125
 3782 02c7 12       		.byte	18
 3783 02c8 11       		.byte	17
 3784 02c9 12       		.byte	18
 3785 02ca 7D       		.byte	125
 3786 02cb F0       		.byte	-16
 3787 02cc 28       		.byte	40
 3788 02cd 25       		.byte	37
 3789 02ce 28       		.byte	40
 3790 02cf F0       		.byte	-16
 3791 02d0 7C       		.byte	124
 3792 02d1 54       		.byte	84
 3793 02d2 55       		.byte	85
 3794 02d3 45       		.byte	69
 3795 02d4 00       		.byte	0
 3796 02d5 20       		.byte	32
 3797 02d6 54       		.byte	84
 3798 02d7 54       		.byte	84
 3799 02d8 7C       		.byte	124
 3800 02d9 54       		.byte	84
 3801 02da 7C       		.byte	124
 3802 02db 0A       		.byte	10
 3803 02dc 09       		.byte	9
 3804 02dd 7F       		.byte	127
 3805 02de 49       		.byte	73
 3806 02df 32       		.byte	50
 3807 02e0 49       		.byte	73
 3808 02e1 49       		.byte	73
 3809 02e2 49       		.byte	73
 3810 02e3 32       		.byte	50
 3811 02e4 3A       		.byte	58
 3812 02e5 44       		.byte	68
 3813 02e6 44       		.byte	68
 3814 02e7 44       		.byte	68
ARM GAS  /tmp/ccKKwcYH.s 			page 78


 3815 02e8 3A       		.byte	58
 3816 02e9 32       		.byte	50
 3817 02ea 4A       		.byte	74
 3818 02eb 48       		.byte	72
 3819 02ec 48       		.byte	72
 3820 02ed 30       		.byte	48
 3821 02ee 3A       		.byte	58
 3822 02ef 41       		.byte	65
 3823 02f0 41       		.byte	65
 3824 02f1 21       		.byte	33
 3825 02f2 7A       		.byte	122
 3826 02f3 3A       		.byte	58
 3827 02f4 42       		.byte	66
 3828 02f5 40       		.byte	64
 3829 02f6 20       		.byte	32
 3830 02f7 78       		.byte	120
 3831 02f8 00       		.byte	0
 3832 02f9 9D       		.byte	-99
 3833 02fa A0       		.byte	-96
 3834 02fb A0       		.byte	-96
 3835 02fc 7D       		.byte	125
 3836 02fd 3D       		.byte	61
 3837 02fe 42       		.byte	66
 3838 02ff 42       		.byte	66
 3839 0300 42       		.byte	66
 3840 0301 3D       		.byte	61
 3841 0302 3D       		.byte	61
 3842 0303 40       		.byte	64
 3843 0304 40       		.byte	64
 3844 0305 40       		.byte	64
 3845 0306 3D       		.byte	61
 3846 0307 3C       		.byte	60
 3847 0308 24       		.byte	36
 3848 0309 FF       		.byte	-1
 3849 030a 24       		.byte	36
 3850 030b 24       		.byte	36
 3851 030c 48       		.byte	72
 3852 030d 7E       		.byte	126
 3853 030e 49       		.byte	73
 3854 030f 43       		.byte	67
 3855 0310 66       		.byte	102
 3856 0311 2B       		.byte	43
 3857 0312 2F       		.byte	47
 3858 0313 FC       		.byte	-4
 3859 0314 2F       		.byte	47
 3860 0315 2B       		.byte	43
 3861 0316 FF       		.byte	-1
 3862 0317 09       		.byte	9
 3863 0318 29       		.byte	41
 3864 0319 F6       		.byte	-10
 3865 031a 20       		.byte	32
 3866 031b C0       		.byte	-64
 3867 031c 88       		.byte	-120
 3868 031d 7E       		.byte	126
 3869 031e 09       		.byte	9
 3870 031f 03       		.byte	3
 3871 0320 20       		.byte	32
ARM GAS  /tmp/ccKKwcYH.s 			page 79


 3872 0321 54       		.byte	84
 3873 0322 54       		.byte	84
 3874 0323 79       		.byte	121
 3875 0324 41       		.byte	65
 3876 0325 00       		.byte	0
 3877 0326 00       		.byte	0
 3878 0327 44       		.byte	68
 3879 0328 7D       		.byte	125
 3880 0329 41       		.byte	65
 3881 032a 30       		.byte	48
 3882 032b 48       		.byte	72
 3883 032c 48       		.byte	72
 3884 032d 4A       		.byte	74
 3885 032e 32       		.byte	50
 3886 032f 38       		.byte	56
 3887 0330 40       		.byte	64
 3888 0331 40       		.byte	64
 3889 0332 22       		.byte	34
 3890 0333 7A       		.byte	122
 3891 0334 00       		.byte	0
 3892 0335 7A       		.byte	122
 3893 0336 0A       		.byte	10
 3894 0337 0A       		.byte	10
 3895 0338 72       		.byte	114
 3896 0339 7D       		.byte	125
 3897 033a 0D       		.byte	13
 3898 033b 19       		.byte	25
 3899 033c 31       		.byte	49
 3900 033d 7D       		.byte	125
 3901 033e 26       		.byte	38
 3902 033f 29       		.byte	41
 3903 0340 29       		.byte	41
 3904 0341 2F       		.byte	47
 3905 0342 28       		.byte	40
 3906 0343 26       		.byte	38
 3907 0344 29       		.byte	41
 3908 0345 29       		.byte	41
 3909 0346 29       		.byte	41
 3910 0347 26       		.byte	38
 3911 0348 30       		.byte	48
 3912 0349 48       		.byte	72
 3913 034a 4D       		.byte	77
 3914 034b 40       		.byte	64
 3915 034c 20       		.byte	32
 3916 034d 38       		.byte	56
 3917 034e 08       		.byte	8
 3918 034f 08       		.byte	8
 3919 0350 08       		.byte	8
 3920 0351 08       		.byte	8
 3921 0352 08       		.byte	8
 3922 0353 08       		.byte	8
 3923 0354 08       		.byte	8
 3924 0355 08       		.byte	8
 3925 0356 38       		.byte	56
 3926 0357 2F       		.byte	47
 3927 0358 10       		.byte	16
 3928 0359 C8       		.byte	-56
ARM GAS  /tmp/ccKKwcYH.s 			page 80


 3929 035a AC       		.byte	-84
 3930 035b BA       		.byte	-70
 3931 035c 2F       		.byte	47
 3932 035d 10       		.byte	16
 3933 035e 28       		.byte	40
 3934 035f 34       		.byte	52
 3935 0360 FA       		.byte	-6
 3936 0361 00       		.byte	0
 3937 0362 00       		.byte	0
 3938 0363 7B       		.byte	123
 3939 0364 00       		.byte	0
 3940 0365 00       		.byte	0
 3941 0366 08       		.byte	8
 3942 0367 14       		.byte	20
 3943 0368 2A       		.byte	42
 3944 0369 14       		.byte	20
 3945 036a 22       		.byte	34
 3946 036b 22       		.byte	34
 3947 036c 14       		.byte	20
 3948 036d 2A       		.byte	42
 3949 036e 14       		.byte	20
 3950 036f 08       		.byte	8
 3951 0370 AA       		.byte	-86
 3952 0371 00       		.byte	0
 3953 0372 55       		.byte	85
 3954 0373 00       		.byte	0
 3955 0374 AA       		.byte	-86
 3956 0375 AA       		.byte	-86
 3957 0376 55       		.byte	85
 3958 0377 AA       		.byte	-86
 3959 0378 55       		.byte	85
 3960 0379 AA       		.byte	-86
 3961 037a 00       		.byte	0
 3962 037b 00       		.byte	0
 3963 037c 00       		.byte	0
 3964 037d FF       		.byte	-1
 3965 037e 00       		.byte	0
 3966 037f 10       		.byte	16
 3967 0380 10       		.byte	16
 3968 0381 10       		.byte	16
 3969 0382 FF       		.byte	-1
 3970 0383 00       		.byte	0
 3971 0384 14       		.byte	20
 3972 0385 14       		.byte	20
 3973 0386 14       		.byte	20
 3974 0387 FF       		.byte	-1
 3975 0388 00       		.byte	0
 3976 0389 10       		.byte	16
 3977 038a 10       		.byte	16
 3978 038b FF       		.byte	-1
 3979 038c 00       		.byte	0
 3980 038d FF       		.byte	-1
 3981 038e 10       		.byte	16
 3982 038f 10       		.byte	16
 3983 0390 F0       		.byte	-16
 3984 0391 10       		.byte	16
 3985 0392 F0       		.byte	-16
ARM GAS  /tmp/ccKKwcYH.s 			page 81


 3986 0393 14       		.byte	20
 3987 0394 14       		.byte	20
 3988 0395 14       		.byte	20
 3989 0396 FC       		.byte	-4
 3990 0397 00       		.byte	0
 3991 0398 14       		.byte	20
 3992 0399 14       		.byte	20
 3993 039a F7       		.byte	-9
 3994 039b 00       		.byte	0
 3995 039c FF       		.byte	-1
 3996 039d 00       		.byte	0
 3997 039e 00       		.byte	0
 3998 039f FF       		.byte	-1
 3999 03a0 00       		.byte	0
 4000 03a1 FF       		.byte	-1
 4001 03a2 14       		.byte	20
 4002 03a3 14       		.byte	20
 4003 03a4 F4       		.byte	-12
 4004 03a5 04       		.byte	4
 4005 03a6 FC       		.byte	-4
 4006 03a7 14       		.byte	20
 4007 03a8 14       		.byte	20
 4008 03a9 17       		.byte	23
 4009 03aa 10       		.byte	16
 4010 03ab 1F       		.byte	31
 4011 03ac 10       		.byte	16
 4012 03ad 10       		.byte	16
 4013 03ae 1F       		.byte	31
 4014 03af 10       		.byte	16
 4015 03b0 1F       		.byte	31
 4016 03b1 14       		.byte	20
 4017 03b2 14       		.byte	20
 4018 03b3 14       		.byte	20
 4019 03b4 1F       		.byte	31
 4020 03b5 00       		.byte	0
 4021 03b6 10       		.byte	16
 4022 03b7 10       		.byte	16
 4023 03b8 10       		.byte	16
 4024 03b9 F0       		.byte	-16
 4025 03ba 00       		.byte	0
 4026 03bb 00       		.byte	0
 4027 03bc 00       		.byte	0
 4028 03bd 00       		.byte	0
 4029 03be 1F       		.byte	31
 4030 03bf 10       		.byte	16
 4031 03c0 10       		.byte	16
 4032 03c1 10       		.byte	16
 4033 03c2 10       		.byte	16
 4034 03c3 1F       		.byte	31
 4035 03c4 10       		.byte	16
 4036 03c5 10       		.byte	16
 4037 03c6 10       		.byte	16
 4038 03c7 10       		.byte	16
 4039 03c8 F0       		.byte	-16
 4040 03c9 10       		.byte	16
 4041 03ca 00       		.byte	0
 4042 03cb 00       		.byte	0
ARM GAS  /tmp/ccKKwcYH.s 			page 82


 4043 03cc 00       		.byte	0
 4044 03cd FF       		.byte	-1
 4045 03ce 10       		.byte	16
 4046 03cf 10       		.byte	16
 4047 03d0 10       		.byte	16
 4048 03d1 10       		.byte	16
 4049 03d2 10       		.byte	16
 4050 03d3 10       		.byte	16
 4051 03d4 10       		.byte	16
 4052 03d5 10       		.byte	16
 4053 03d6 10       		.byte	16
 4054 03d7 FF       		.byte	-1
 4055 03d8 10       		.byte	16
 4056 03d9 00       		.byte	0
 4057 03da 00       		.byte	0
 4058 03db 00       		.byte	0
 4059 03dc FF       		.byte	-1
 4060 03dd 14       		.byte	20
 4061 03de 00       		.byte	0
 4062 03df 00       		.byte	0
 4063 03e0 FF       		.byte	-1
 4064 03e1 00       		.byte	0
 4065 03e2 FF       		.byte	-1
 4066 03e3 00       		.byte	0
 4067 03e4 00       		.byte	0
 4068 03e5 1F       		.byte	31
 4069 03e6 10       		.byte	16
 4070 03e7 17       		.byte	23
 4071 03e8 00       		.byte	0
 4072 03e9 00       		.byte	0
 4073 03ea FC       		.byte	-4
 4074 03eb 04       		.byte	4
 4075 03ec F4       		.byte	-12
 4076 03ed 14       		.byte	20
 4077 03ee 14       		.byte	20
 4078 03ef 17       		.byte	23
 4079 03f0 10       		.byte	16
 4080 03f1 17       		.byte	23
 4081 03f2 14       		.byte	20
 4082 03f3 14       		.byte	20
 4083 03f4 F4       		.byte	-12
 4084 03f5 04       		.byte	4
 4085 03f6 F4       		.byte	-12
 4086 03f7 00       		.byte	0
 4087 03f8 00       		.byte	0
 4088 03f9 FF       		.byte	-1
 4089 03fa 00       		.byte	0
 4090 03fb F7       		.byte	-9
 4091 03fc 14       		.byte	20
 4092 03fd 14       		.byte	20
 4093 03fe 14       		.byte	20
 4094 03ff 14       		.byte	20
 4095 0400 14       		.byte	20
 4096 0401 14       		.byte	20
 4097 0402 14       		.byte	20
 4098 0403 F7       		.byte	-9
 4099 0404 00       		.byte	0
ARM GAS  /tmp/ccKKwcYH.s 			page 83


 4100 0405 F7       		.byte	-9
 4101 0406 14       		.byte	20
 4102 0407 14       		.byte	20
 4103 0408 14       		.byte	20
 4104 0409 17       		.byte	23
 4105 040a 14       		.byte	20
 4106 040b 10       		.byte	16
 4107 040c 10       		.byte	16
 4108 040d 1F       		.byte	31
 4109 040e 10       		.byte	16
 4110 040f 1F       		.byte	31
 4111 0410 14       		.byte	20
 4112 0411 14       		.byte	20
 4113 0412 14       		.byte	20
 4114 0413 F4       		.byte	-12
 4115 0414 14       		.byte	20
 4116 0415 10       		.byte	16
 4117 0416 10       		.byte	16
 4118 0417 F0       		.byte	-16
 4119 0418 10       		.byte	16
 4120 0419 F0       		.byte	-16
 4121 041a 00       		.byte	0
 4122 041b 00       		.byte	0
 4123 041c 1F       		.byte	31
 4124 041d 10       		.byte	16
 4125 041e 1F       		.byte	31
 4126 041f 00       		.byte	0
 4127 0420 00       		.byte	0
 4128 0421 00       		.byte	0
 4129 0422 1F       		.byte	31
 4130 0423 14       		.byte	20
 4131 0424 00       		.byte	0
 4132 0425 00       		.byte	0
 4133 0426 00       		.byte	0
 4134 0427 FC       		.byte	-4
 4135 0428 14       		.byte	20
 4136 0429 00       		.byte	0
 4137 042a 00       		.byte	0
 4138 042b F0       		.byte	-16
 4139 042c 10       		.byte	16
 4140 042d F0       		.byte	-16
 4141 042e 10       		.byte	16
 4142 042f 10       		.byte	16
 4143 0430 FF       		.byte	-1
 4144 0431 10       		.byte	16
 4145 0432 FF       		.byte	-1
 4146 0433 14       		.byte	20
 4147 0434 14       		.byte	20
 4148 0435 14       		.byte	20
 4149 0436 FF       		.byte	-1
 4150 0437 14       		.byte	20
 4151 0438 10       		.byte	16
 4152 0439 10       		.byte	16
 4153 043a 10       		.byte	16
 4154 043b 1F       		.byte	31
 4155 043c 00       		.byte	0
 4156 043d 00       		.byte	0
ARM GAS  /tmp/ccKKwcYH.s 			page 84


 4157 043e 00       		.byte	0
 4158 043f 00       		.byte	0
 4159 0440 F0       		.byte	-16
 4160 0441 10       		.byte	16
 4161 0442 FF       		.byte	-1
 4162 0443 FF       		.byte	-1
 4163 0444 FF       		.byte	-1
 4164 0445 FF       		.byte	-1
 4165 0446 FF       		.byte	-1
 4166 0447 F0       		.byte	-16
 4167 0448 F0       		.byte	-16
 4168 0449 F0       		.byte	-16
 4169 044a F0       		.byte	-16
 4170 044b F0       		.byte	-16
 4171 044c FF       		.byte	-1
 4172 044d FF       		.byte	-1
 4173 044e FF       		.byte	-1
 4174 044f 00       		.byte	0
 4175 0450 00       		.byte	0
 4176 0451 00       		.byte	0
 4177 0452 00       		.byte	0
 4178 0453 00       		.byte	0
 4179 0454 FF       		.byte	-1
 4180 0455 FF       		.byte	-1
 4181 0456 0F       		.byte	15
 4182 0457 0F       		.byte	15
 4183 0458 0F       		.byte	15
 4184 0459 0F       		.byte	15
 4185 045a 0F       		.byte	15
 4186 045b 38       		.byte	56
 4187 045c 44       		.byte	68
 4188 045d 44       		.byte	68
 4189 045e 38       		.byte	56
 4190 045f 44       		.byte	68
 4191 0460 FC       		.byte	-4
 4192 0461 4A       		.byte	74
 4193 0462 4A       		.byte	74
 4194 0463 4A       		.byte	74
 4195 0464 34       		.byte	52
 4196 0465 7E       		.byte	126
 4197 0466 02       		.byte	2
 4198 0467 02       		.byte	2
 4199 0468 06       		.byte	6
 4200 0469 06       		.byte	6
 4201 046a 02       		.byte	2
 4202 046b 7E       		.byte	126
 4203 046c 02       		.byte	2
 4204 046d 7E       		.byte	126
 4205 046e 02       		.byte	2
 4206 046f 63       		.byte	99
 4207 0470 55       		.byte	85
 4208 0471 49       		.byte	73
 4209 0472 41       		.byte	65
 4210 0473 63       		.byte	99
 4211 0474 38       		.byte	56
 4212 0475 44       		.byte	68
 4213 0476 44       		.byte	68
ARM GAS  /tmp/ccKKwcYH.s 			page 85


 4214 0477 3C       		.byte	60
 4215 0478 04       		.byte	4
 4216 0479 40       		.byte	64
 4217 047a 7E       		.byte	126
 4218 047b 20       		.byte	32
 4219 047c 1E       		.byte	30
 4220 047d 20       		.byte	32
 4221 047e 06       		.byte	6
 4222 047f 02       		.byte	2
 4223 0480 7E       		.byte	126
 4224 0481 02       		.byte	2
 4225 0482 02       		.byte	2
 4226 0483 99       		.byte	-103
 4227 0484 A5       		.byte	-91
 4228 0485 E7       		.byte	-25
 4229 0486 A5       		.byte	-91
 4230 0487 99       		.byte	-103
 4231 0488 1C       		.byte	28
 4232 0489 2A       		.byte	42
 4233 048a 49       		.byte	73
 4234 048b 2A       		.byte	42
 4235 048c 1C       		.byte	28
 4236 048d 4C       		.byte	76
 4237 048e 72       		.byte	114
 4238 048f 01       		.byte	1
 4239 0490 72       		.byte	114
 4240 0491 4C       		.byte	76
 4241 0492 30       		.byte	48
 4242 0493 4A       		.byte	74
 4243 0494 4D       		.byte	77
 4244 0495 4D       		.byte	77
 4245 0496 30       		.byte	48
 4246 0497 30       		.byte	48
 4247 0498 48       		.byte	72
 4248 0499 78       		.byte	120
 4249 049a 48       		.byte	72
 4250 049b 30       		.byte	48
 4251 049c BC       		.byte	-68
 4252 049d 62       		.byte	98
 4253 049e 5A       		.byte	90
 4254 049f 46       		.byte	70
 4255 04a0 3D       		.byte	61
 4256 04a1 3E       		.byte	62
 4257 04a2 49       		.byte	73
 4258 04a3 49       		.byte	73
 4259 04a4 49       		.byte	73
 4260 04a5 00       		.byte	0
 4261 04a6 7E       		.byte	126
 4262 04a7 01       		.byte	1
 4263 04a8 01       		.byte	1
 4264 04a9 01       		.byte	1
 4265 04aa 7E       		.byte	126
 4266 04ab 2A       		.byte	42
 4267 04ac 2A       		.byte	42
 4268 04ad 2A       		.byte	42
 4269 04ae 2A       		.byte	42
 4270 04af 2A       		.byte	42
ARM GAS  /tmp/ccKKwcYH.s 			page 86


 4271 04b0 44       		.byte	68
 4272 04b1 44       		.byte	68
 4273 04b2 5F       		.byte	95
 4274 04b3 44       		.byte	68
 4275 04b4 44       		.byte	68
 4276 04b5 40       		.byte	64
 4277 04b6 51       		.byte	81
 4278 04b7 4A       		.byte	74
 4279 04b8 44       		.byte	68
 4280 04b9 40       		.byte	64
 4281 04ba 40       		.byte	64
 4282 04bb 44       		.byte	68
 4283 04bc 4A       		.byte	74
 4284 04bd 51       		.byte	81
 4285 04be 40       		.byte	64
 4286 04bf 00       		.byte	0
 4287 04c0 00       		.byte	0
 4288 04c1 FF       		.byte	-1
 4289 04c2 01       		.byte	1
 4290 04c3 03       		.byte	3
 4291 04c4 E0       		.byte	-32
 4292 04c5 80       		.byte	-128
 4293 04c6 FF       		.byte	-1
 4294 04c7 00       		.byte	0
 4295 04c8 00       		.byte	0
 4296 04c9 08       		.byte	8
 4297 04ca 08       		.byte	8
 4298 04cb 6B       		.byte	107
 4299 04cc 6B       		.byte	107
 4300 04cd 08       		.byte	8
 4301 04ce 36       		.byte	54
 4302 04cf 12       		.byte	18
 4303 04d0 36       		.byte	54
 4304 04d1 24       		.byte	36
 4305 04d2 36       		.byte	54
 4306 04d3 06       		.byte	6
 4307 04d4 0F       		.byte	15
 4308 04d5 09       		.byte	9
 4309 04d6 0F       		.byte	15
 4310 04d7 06       		.byte	6
 4311 04d8 00       		.byte	0
 4312 04d9 00       		.byte	0
 4313 04da 18       		.byte	24
 4314 04db 18       		.byte	24
 4315 04dc 00       		.byte	0
 4316 04dd 00       		.byte	0
 4317 04de 00       		.byte	0
 4318 04df 10       		.byte	16
 4319 04e0 10       		.byte	16
 4320 04e1 00       		.byte	0
 4321 04e2 30       		.byte	48
 4322 04e3 40       		.byte	64
 4323 04e4 FF       		.byte	-1
 4324 04e5 01       		.byte	1
 4325 04e6 01       		.byte	1
 4326 04e7 00       		.byte	0
 4327 04e8 1F       		.byte	31
ARM GAS  /tmp/ccKKwcYH.s 			page 87


 4328 04e9 01       		.byte	1
 4329 04ea 01       		.byte	1
 4330 04eb 1E       		.byte	30
 4331 04ec 00       		.byte	0
 4332 04ed 19       		.byte	25
 4333 04ee 1D       		.byte	29
 4334 04ef 17       		.byte	23
 4335 04f0 12       		.byte	18
 4336 04f1 00       		.byte	0
 4337 04f2 3C       		.byte	60
 4338 04f3 3C       		.byte	60
 4339 04f4 3C       		.byte	60
 4340 04f5 3C       		.byte	60
 4341 04f6 00       		.byte	0
 4342 04f7 00       		.byte	0
 4343 04f8 00       		.byte	0
 4344 04f9 00       		.byte	0
 4345 04fa 00       		.byte	0
 4346              		.section	.rodata.ili9341_get_id4.str1.4,"aMS",%progbits,1
 4347              		.align	2
 4348              	.LC0:
 4349 0000 2D205072 		.ascii	"- Printing ID4 register value -\012\000"
 4349      696E7469 
 4349      6E672049 
 4349      44342072 
 4349      65676973 
 4350 0021 000000   		.space	3
 4351              	.LC1:
 4352 0024 494C4939 		.ascii	"ILI9341 IC Version: %d \012IC Model: 0x%02x%02x\012"
 4352      33343120 
 4352      49432056 
 4352      65727369 
 4352      6F6E3A20 
 4353 0051 00       		.ascii	"\000"
 4354              		.text
 4355              	.Letext0:
 4356              		.file 2 "/usr/include/newlib/machine/_default_types.h"
 4357              		.file 3 "/usr/include/newlib/sys/_stdint.h"
 4358              		.file 4 "Drivers/CMSIS/Include/core_cm4.h"
 4359              		.file 5 "Drivers/CMSIS/Device/ST/STM32F4xx/Include/system_stm32f4xx.h"
 4360              		.file 6 "Drivers/CMSIS/Device/ST/STM32F4xx/Include/stm32f401xe.h"
 4361              		.file 7 "Drivers/STM32F4xx_HAL_Driver/Inc/stm32f4xx_hal_def.h"
 4362              		.file 8 "Drivers/STM32F4xx_HAL_Driver/Inc/stm32f4xx_hal_gpio.h"
 4363              		.file 9 "Drivers/STM32F4xx_HAL_Driver/Inc/stm32f4xx_hal_dma.h"
 4364              		.file 10 "Drivers/STM32F4xx_HAL_Driver/Inc/stm32f4xx_hal_uart.h"
 4365              		.file 11 "Drivers/STM32F4xx_HAL_Driver/Inc/stm32f4xx_hal.h"
 4366              		.file 12 "/usr/include/newlib/sys/lock.h"
 4367              		.file 13 "/usr/include/newlib/sys/_types.h"
 4368              		.file 14 "/usr/lib/gcc/arm-none-eabi/6.3.1/include/stddef.h"
 4369              		.file 15 "/usr/include/newlib/sys/reent.h"
 4370              		.file 16 "libs/ili9341/ili9341.h"
 4371              		.file 17 "/usr/include/newlib/string.h"
 4372              		.file 18 "/usr/include/newlib/stdio.h"
ARM GAS  /tmp/ccKKwcYH.s 			page 88


DEFINED SYMBOLS
                            *ABS*:0000000000000000 ili9341.c
     /tmp/ccKKwcYH.s:18     .text.serial_print:0000000000000000 $t
     /tmp/ccKKwcYH.s:25     .text.serial_print:0000000000000000 serial_print
     /tmp/ccKKwcYH.s:53     .text.serial_print:0000000000000018 $d
     /tmp/ccKKwcYH.s:58     .text.LCD_RST_1:0000000000000000 $t
     /tmp/ccKKwcYH.s:65     .text.LCD_RST_1:0000000000000000 LCD_RST_1
     /tmp/ccKKwcYH.s:86     .text.LCD_RST_1:0000000000000010 $d
     /tmp/ccKKwcYH.s:91     .text.LCD_RST_0:0000000000000000 $t
     /tmp/ccKKwcYH.s:98     .text.LCD_RST_0:0000000000000000 LCD_RST_0
     /tmp/ccKKwcYH.s:119    .text.LCD_RST_0:0000000000000010 $d
     /tmp/ccKKwcYH.s:124    .text.LCD_CS_1:0000000000000000 $t
     /tmp/ccKKwcYH.s:131    .text.LCD_CS_1:0000000000000000 LCD_CS_1
     /tmp/ccKKwcYH.s:152    .text.LCD_CS_1:0000000000000010 $d
     /tmp/ccKKwcYH.s:157    .text.LCD_CS_0:0000000000000000 $t
     /tmp/ccKKwcYH.s:164    .text.LCD_CS_0:0000000000000000 LCD_CS_0
     /tmp/ccKKwcYH.s:185    .text.LCD_CS_0:0000000000000010 $d
     /tmp/ccKKwcYH.s:190    .text.LCD_RS_1:0000000000000000 $t
     /tmp/ccKKwcYH.s:197    .text.LCD_RS_1:0000000000000000 LCD_RS_1
     /tmp/ccKKwcYH.s:218    .text.LCD_RS_1:0000000000000010 $d
     /tmp/ccKKwcYH.s:223    .text.LCD_RS_0:0000000000000000 $t
     /tmp/ccKKwcYH.s:230    .text.LCD_RS_0:0000000000000000 LCD_RS_0
     /tmp/ccKKwcYH.s:251    .text.LCD_RS_0:0000000000000010 $d
     /tmp/ccKKwcYH.s:256    .text.LCD_WR_1:0000000000000000 $t
     /tmp/ccKKwcYH.s:263    .text.LCD_WR_1:0000000000000000 LCD_WR_1
     /tmp/ccKKwcYH.s:284    .text.LCD_WR_1:0000000000000010 $d
     /tmp/ccKKwcYH.s:289    .text.LCD_WR_0:0000000000000000 $t
     /tmp/ccKKwcYH.s:296    .text.LCD_WR_0:0000000000000000 LCD_WR_0
     /tmp/ccKKwcYH.s:317    .text.LCD_WR_0:0000000000000010 $d
     /tmp/ccKKwcYH.s:322    .text.LCD_WR_RISING_EDGE:0000000000000000 $t
     /tmp/ccKKwcYH.s:329    .text.LCD_WR_RISING_EDGE:0000000000000000 LCD_WR_RISING_EDGE
     /tmp/ccKKwcYH.s:357    .text.LCD_WR_RISING_EDGE:000000000000001c $d
     /tmp/ccKKwcYH.s:362    .text.LCD_RD_1:0000000000000000 $t
     /tmp/ccKKwcYH.s:369    .text.LCD_RD_1:0000000000000000 LCD_RD_1
     /tmp/ccKKwcYH.s:390    .text.LCD_RD_1:0000000000000010 $d
     /tmp/ccKKwcYH.s:395    .text.LCD_RD_0:0000000000000000 $t
     /tmp/ccKKwcYH.s:402    .text.LCD_RD_0:0000000000000000 LCD_RD_0
     /tmp/ccKKwcYH.s:423    .text.LCD_RD_0:0000000000000010 $d
     /tmp/ccKKwcYH.s:428    .text.LCD_D2_1:0000000000000000 $t
     /tmp/ccKKwcYH.s:435    .text.LCD_D2_1:0000000000000000 LCD_D2_1
     /tmp/ccKKwcYH.s:456    .text.LCD_D2_1:0000000000000010 $d
     /tmp/ccKKwcYH.s:461    .text.LCD_D2_0:0000000000000000 $t
     /tmp/ccKKwcYH.s:468    .text.LCD_D2_0:0000000000000000 LCD_D2_0
     /tmp/ccKKwcYH.s:489    .text.LCD_D2_0:0000000000000010 $d
     /tmp/ccKKwcYH.s:494    .text.LCD_D3_1:0000000000000000 $t
     /tmp/ccKKwcYH.s:501    .text.LCD_D3_1:0000000000000000 LCD_D3_1
     /tmp/ccKKwcYH.s:522    .text.LCD_D3_1:0000000000000010 $d
     /tmp/ccKKwcYH.s:527    .text.LCD_D3_0:0000000000000000 $t
     /tmp/ccKKwcYH.s:534    .text.LCD_D3_0:0000000000000000 LCD_D3_0
     /tmp/ccKKwcYH.s:555    .text.LCD_D3_0:0000000000000010 $d
     /tmp/ccKKwcYH.s:560    .text.LCD_D4_1:0000000000000000 $t
     /tmp/ccKKwcYH.s:567    .text.LCD_D4_1:0000000000000000 LCD_D4_1
     /tmp/ccKKwcYH.s:588    .text.LCD_D4_1:0000000000000010 $d
     /tmp/ccKKwcYH.s:593    .text.LCD_D4_0:0000000000000000 $t
     /tmp/ccKKwcYH.s:600    .text.LCD_D4_0:0000000000000000 LCD_D4_0
     /tmp/ccKKwcYH.s:621    .text.LCD_D4_0:0000000000000010 $d
     /tmp/ccKKwcYH.s:626    .text.LCD_D5_1:0000000000000000 $t
ARM GAS  /tmp/ccKKwcYH.s 			page 89


     /tmp/ccKKwcYH.s:633    .text.LCD_D5_1:0000000000000000 LCD_D5_1
     /tmp/ccKKwcYH.s:654    .text.LCD_D5_1:0000000000000010 $d
     /tmp/ccKKwcYH.s:659    .text.LCD_D5_0:0000000000000000 $t
     /tmp/ccKKwcYH.s:666    .text.LCD_D5_0:0000000000000000 LCD_D5_0
     /tmp/ccKKwcYH.s:687    .text.LCD_D5_0:0000000000000010 $d
     /tmp/ccKKwcYH.s:692    .text.LCD_D6_1:0000000000000000 $t
     /tmp/ccKKwcYH.s:699    .text.LCD_D6_1:0000000000000000 LCD_D6_1
     /tmp/ccKKwcYH.s:720    .text.LCD_D6_1:0000000000000010 $d
     /tmp/ccKKwcYH.s:725    .text.LCD_D6_0:0000000000000000 $t
     /tmp/ccKKwcYH.s:732    .text.LCD_D6_0:0000000000000000 LCD_D6_0
     /tmp/ccKKwcYH.s:753    .text.LCD_D6_0:0000000000000010 $d
     /tmp/ccKKwcYH.s:758    .text.LCD_D7_1:0000000000000000 $t
     /tmp/ccKKwcYH.s:765    .text.LCD_D7_1:0000000000000000 LCD_D7_1
     /tmp/ccKKwcYH.s:786    .text.LCD_D7_1:0000000000000010 $d
     /tmp/ccKKwcYH.s:791    .text.LCD_D7_0:0000000000000000 $t
     /tmp/ccKKwcYH.s:798    .text.LCD_D7_0:0000000000000000 LCD_D7_0
     /tmp/ccKKwcYH.s:819    .text.LCD_D7_0:0000000000000010 $d
     /tmp/ccKKwcYH.s:824    .text.LCD_D0_1:0000000000000000 $t
     /tmp/ccKKwcYH.s:831    .text.LCD_D0_1:0000000000000000 LCD_D0_1
     /tmp/ccKKwcYH.s:852    .text.LCD_D0_1:0000000000000010 $d
     /tmp/ccKKwcYH.s:857    .text.LCD_D0_0:0000000000000000 $t
     /tmp/ccKKwcYH.s:864    .text.LCD_D0_0:0000000000000000 LCD_D0_0
     /tmp/ccKKwcYH.s:885    .text.LCD_D0_0:0000000000000010 $d
     /tmp/ccKKwcYH.s:890    .text.LCD_D1_1:0000000000000000 $t
     /tmp/ccKKwcYH.s:897    .text.LCD_D1_1:0000000000000000 LCD_D1_1
     /tmp/ccKKwcYH.s:918    .text.LCD_D1_1:0000000000000010 $d
     /tmp/ccKKwcYH.s:923    .text.LCD_D1_0:0000000000000000 $t
     /tmp/ccKKwcYH.s:930    .text.LCD_D1_0:0000000000000000 LCD_D1_0
     /tmp/ccKKwcYH.s:951    .text.LCD_D1_0:0000000000000010 $d
     /tmp/ccKKwcYH.s:956    .text.gpio_configure_8080_datapins_input_mode:0000000000000000 $t
     /tmp/ccKKwcYH.s:963    .text.gpio_configure_8080_datapins_input_mode:0000000000000000 gpio_configure_8080_datapins_input_mode
     /tmp/ccKKwcYH.s:1025   .text.gpio_configure_8080_datapins_input_mode:0000000000000040 $d
     /tmp/ccKKwcYH.s:1032   .text.gpio_configure_8080_datapins_output_mode:0000000000000000 $t
     /tmp/ccKKwcYH.s:1039   .text.gpio_configure_8080_datapins_output_mode:0000000000000000 gpio_configure_8080_datapins_output_mode
     /tmp/ccKKwcYH.s:1101   .text.gpio_configure_8080_datapins_output_mode:0000000000000040 $d
     /tmp/ccKKwcYH.s:1108   .text.gpio_8080_read_parallel_datapins:0000000000000000 $t
     /tmp/ccKKwcYH.s:1115   .text.gpio_8080_read_parallel_datapins:0000000000000000 gpio_8080_read_parallel_datapins
     /tmp/ccKKwcYH.s:1192   .text.gpio_8080_read_parallel_datapins:000000000000007c $d
     /tmp/ccKKwcYH.s:1199   .text.gpio_8080_write_parallel_datapins:0000000000000000 $t
     /tmp/ccKKwcYH.s:1206   .text.gpio_8080_write_parallel_datapins:0000000000000000 gpio_8080_write_parallel_datapins
     /tmp/ccKKwcYH.s:1276   .text.gpio_8080_write_parallel_datapins:0000000000000070 $d
     /tmp/ccKKwcYH.s:1283   .text.gpio_8080_write_command:0000000000000000 $t
     /tmp/ccKKwcYH.s:1290   .text.gpio_8080_write_command:0000000000000000 gpio_8080_write_command
     /tmp/ccKKwcYH.s:1330   .text.gpio_8080_write_data:0000000000000000 $t
     /tmp/ccKKwcYH.s:1337   .text.gpio_8080_write_data:0000000000000000 gpio_8080_write_data
     /tmp/ccKKwcYH.s:1377   .text.gpio_8080_read_data:0000000000000000 $t
     /tmp/ccKKwcYH.s:1384   .text.gpio_8080_read_data:0000000000000000 gpio_8080_read_data
     /tmp/ccKKwcYH.s:1444   .text.ili9341_set_power_control_a:0000000000000000 $t
     /tmp/ccKKwcYH.s:1451   .text.ili9341_set_power_control_a:0000000000000000 ili9341_set_power_control_a
     /tmp/ccKKwcYH.s:1491   .text.ili9341_set_power_control_b:0000000000000000 $t
     /tmp/ccKKwcYH.s:1498   .text.ili9341_set_power_control_b:0000000000000000 ili9341_set_power_control_b
     /tmp/ccKKwcYH.s:1530   .text.ili9341_set_driver_timing_control_a:0000000000000000 $t
     /tmp/ccKKwcYH.s:1537   .text.ili9341_set_driver_timing_control_a:0000000000000000 ili9341_set_driver_timing_control_a
     /tmp/ccKKwcYH.s:1569   .text.ili9341_set_driver_timing_control_b:0000000000000000 $t
     /tmp/ccKKwcYH.s:1576   .text.ili9341_set_driver_timing_control_b:0000000000000000 ili9341_set_driver_timing_control_b
     /tmp/ccKKwcYH.s:1604   .text.ili9341_set_poweron_sequence_control_b:0000000000000000 $t
     /tmp/ccKKwcYH.s:1611   .text.ili9341_set_poweron_sequence_control_b:0000000000000000 ili9341_set_poweron_sequence_control_b
ARM GAS  /tmp/ccKKwcYH.s 			page 90


     /tmp/ccKKwcYH.s:1647   .text.ili9341_set_pump_ratio_control:0000000000000000 $t
     /tmp/ccKKwcYH.s:1654   .text.ili9341_set_pump_ratio_control:0000000000000000 ili9341_set_pump_ratio_control
     /tmp/ccKKwcYH.s:1678   .text.ili9341_set_power_control1:0000000000000000 $t
     /tmp/ccKKwcYH.s:1685   .text.ili9341_set_power_control1:0000000000000000 ili9341_set_power_control1
     /tmp/ccKKwcYH.s:1709   .text.ili9341_set_power_control2:0000000000000000 $t
     /tmp/ccKKwcYH.s:1716   .text.ili9341_set_power_control2:0000000000000000 ili9341_set_power_control2
     /tmp/ccKKwcYH.s:1740   .text.ili9341_set_vcom_control1:0000000000000000 $t
     /tmp/ccKKwcYH.s:1747   .text.ili9341_set_vcom_control1:0000000000000000 ili9341_set_vcom_control1
     /tmp/ccKKwcYH.s:1775   .text.ili9341_set_vcom_control2:0000000000000000 $t
     /tmp/ccKKwcYH.s:1782   .text.ili9341_set_vcom_control2:0000000000000000 ili9341_set_vcom_control2
     /tmp/ccKKwcYH.s:1806   .text.ili9341_set_memory_access_control:0000000000000000 $t
     /tmp/ccKKwcYH.s:1813   .text.ili9341_set_memory_access_control:0000000000000000 ili9341_set_memory_access_control
     /tmp/ccKKwcYH.s:1837   .text.ili9341_set_pixel_format_set:0000000000000000 $t
     /tmp/ccKKwcYH.s:1844   .text.ili9341_set_pixel_format_set:0000000000000000 ili9341_set_pixel_format_set
     /tmp/ccKKwcYH.s:1868   .text.ili9341_set_frame_rate_control:0000000000000000 $t
     /tmp/ccKKwcYH.s:1875   .text.ili9341_set_frame_rate_control:0000000000000000 ili9341_set_frame_rate_control
     /tmp/ccKKwcYH.s:1903   .text.ili9341_set_display_function_control:0000000000000000 $t
     /tmp/ccKKwcYH.s:1910   .text.ili9341_set_display_function_control:0000000000000000 ili9341_set_display_function_control
     /tmp/ccKKwcYH.s:1942   .text.ili9341_exit_sleep_mode:0000000000000000 $t
     /tmp/ccKKwcYH.s:1949   .text.ili9341_exit_sleep_mode:0000000000000000 ili9341_exit_sleep_mode
     /tmp/ccKKwcYH.s:1973   .text.ili9341_set_display_on:0000000000000000 $t
     /tmp/ccKKwcYH.s:1980   .text.ili9341_set_display_on:0000000000000000 ili9341_set_display_on
     /tmp/ccKKwcYH.s:2000   .text.ili9341_memory_write:0000000000000000 $t
     /tmp/ccKKwcYH.s:2007   .text.ili9341_memory_write:0000000000000000 ili9341_memory_write
     /tmp/ccKKwcYH.s:2027   .text.ili9341_hard_reset:0000000000000000 $t
     /tmp/ccKKwcYH.s:2034   .text.ili9341_hard_reset:0000000000000000 ili9341_hard_reset
     /tmp/ccKKwcYH.s:2071   .text.ili9341_get_id4:0000000000000000 $t
     /tmp/ccKKwcYH.s:2078   .text.ili9341_get_id4:0000000000000000 ili9341_get_id4
     /tmp/ccKKwcYH.s:2169   .text.ili9341_get_id4:0000000000000060 $d
     /tmp/ccKKwcYH.s:2176   .text.ili9341_init:0000000000000000 $t
     /tmp/ccKKwcYH.s:2183   .text.ili9341_init:0000000000000000 ili9341_init
     /tmp/ccKKwcYH.s:2253   .text.ili9341_set_column_address:0000000000000000 $t
     /tmp/ccKKwcYH.s:2260   .text.ili9341_set_column_address:0000000000000000 ili9341_set_column_address
     /tmp/ccKKwcYH.s:2302   .text.ili9341_set_page_address:0000000000000000 $t
     /tmp/ccKKwcYH.s:2309   .text.ili9341_set_page_address:0000000000000000 ili9341_set_page_address
     /tmp/ccKKwcYH.s:2351   .text.ili9341_set_frame_address:0000000000000000 $t
     /tmp/ccKKwcYH.s:2358   .text.ili9341_set_frame_address:0000000000000000 ili9341_set_frame_address
     /tmp/ccKKwcYH.s:2392   .text.lcd_draw_horizontal_line:0000000000000000 $t
     /tmp/ccKKwcYH.s:2399   .text.lcd_draw_horizontal_line:0000000000000000 lcd_draw_horizontal_line
     /tmp/ccKKwcYH.s:2465   .text.lcd_draw_vertical_line:0000000000000000 $t
     /tmp/ccKKwcYH.s:2472   .text.lcd_draw_vertical_line:0000000000000000 lcd_draw_vertical_line
     /tmp/ccKKwcYH.s:2538   .text.lcd_draw_rectangle_unfilled:0000000000000000 $t
     /tmp/ccKKwcYH.s:2545   .text.lcd_draw_rectangle_unfilled:0000000000000000 lcd_draw_rectangle_unfilled
     /tmp/ccKKwcYH.s:2599   .text.lcd_draw_rectangle_filled:0000000000000000 $t
     /tmp/ccKKwcYH.s:2606   .text.lcd_draw_rectangle_filled:0000000000000000 lcd_draw_rectangle_filled
     /tmp/ccKKwcYH.s:2660   .text.lcd_clear_all:0000000000000000 $t
     /tmp/ccKKwcYH.s:2667   .text.lcd_clear_all:0000000000000000 lcd_clear_all
     /tmp/ccKKwcYH.s:2735   .text.lcd_draw_dot:0000000000000000 $t
     /tmp/ccKKwcYH.s:2742   .text.lcd_draw_dot:0000000000000000 lcd_draw_dot
     /tmp/ccKKwcYH.s:2779   .text.lcd_plot_char:0000000000000000 $t
     /tmp/ccKKwcYH.s:2786   .text.lcd_plot_char:0000000000000000 lcd_plot_char
     /tmp/ccKKwcYH.s:2913   .text.lcd_plot_char:0000000000000084 $d
     /tmp/ccKKwcYH.s:2918   .text.lcd_set_rotation:0000000000000000 $t
     /tmp/ccKKwcYH.s:2925   .text.lcd_set_rotation:0000000000000000 lcd_set_rotation
     /tmp/ccKKwcYH.s:2948   .text.lcd_set_rotation:0000000000000012 $d
     /tmp/ccKKwcYH.s:2952   .text.lcd_set_rotation:0000000000000016 $t
     /tmp/ccKKwcYH.s:2985   .text.lcd_write_message:0000000000000000 $t
ARM GAS  /tmp/ccKKwcYH.s 			page 91


     /tmp/ccKKwcYH.s:2992   .text.lcd_write_message:0000000000000000 lcd_write_message
     /tmp/ccKKwcYH.s:3066   .rodata.font:0000000000000000 $d
     /tmp/ccKKwcYH.s:3070   .rodata.font:0000000000000000 font
     /tmp/ccKKwcYH.s:4347   .rodata.ili9341_get_id4.str1.4:0000000000000000 $d
                     .debug_frame:0000000000000010 $d

UNDEFINED SYMBOLS
strlen
HAL_UART_Transmit
huart2
HAL_GPIO_WritePin
HAL_GPIO_Init
HAL_GPIO_ReadPin
HAL_Delay
sprintf
